---
triple:          'arm64-apple-darwin'
binary-path:     '/Users/vladyslav/Library/Developer/Xcode/DerivedData/randomFFI-avkkaxlejsfrqdfvhxsqqsqgoqrw/Build/Intermediates.noindex/ArchiveIntermediates/randomFFI/InstallationBuildProductsLocation/Library/Frameworks/randomFFI.framework/randomFFI'
relocations:
  - { offset: 0x3341F, size: 0x8, addend: 0x0, symName: '__ZN19rustrandomgenerator52uniffi_rustrandomgenerator_fn_func_get_random_number28_$u7b$$u7b$closure$u7d$$u7d$17hb6a395ecd8fffe53E', symObjAddr: 0x0, symBinAddr: 0x8DBC, symSize: 0x14 }
  - { offset: 0x33B44, size: 0x8, addend: 0x0, symName: '__ZN19rustrandomgenerator52uniffi_rustrandomgenerator_fn_func_get_random_number28_$u7b$$u7b$closure$u7d$$u7d$17hb6a395ecd8fffe53E', symObjAddr: 0x0, symBinAddr: 0x8DBC, symSize: 0x14 }
  - { offset: 0x33B6E, size: 0x8, addend: 0x0, symName: '__ZN19rustrandomgenerator52uniffi_rustrandomgenerator_fn_func_get_random_number28_$u7b$$u7b$closure$u7d$$u7d$17hc1d00a89e896c10cE', symObjAddr: 0x14, symBinAddr: 0x8DD0, symSize: 0xA0 }
  - { offset: 0x34693, size: 0x8, addend: 0x0, symName: __ZN5alloc3fmt6format17h03fb2314bac17301E, symObjAddr: 0x0, symBinAddr: 0x8E70, symSize: 0xD4 }
  - { offset: 0x34D3A, size: 0x8, addend: 0x0, symName: __ZN5alloc3fmt6format17h03fb2314bac17301E, symObjAddr: 0x0, symBinAddr: 0x8E70, symSize: 0xD4 }
  - { offset: 0x34EA0, size: 0x8, addend: 0x0, symName: '__ZN47_$LT$str$u20$as$u20$alloc..string..ToString$GT$9to_string17h3fbdd0d8e82c7b59E', symObjAddr: 0x0, symBinAddr: 0x8F44, symSize: 0x50 }
  - { offset: 0x354E9, size: 0x8, addend: 0x0, symName: '__ZN47_$LT$str$u20$as$u20$alloc..string..ToString$GT$9to_string17h3fbdd0d8e82c7b59E', symObjAddr: 0x0, symBinAddr: 0x8F44, symSize: 0x50 }
  - { offset: 0x35691, size: 0x8, addend: 0x0, symName: '__ZN58_$LT$alloc..string..String$u20$as$u20$core..fmt..Debug$GT$3fmt17h7879b7344e7466d4E', symObjAddr: 0x50, symBinAddr: 0x8F94, symSize: 0x8C }
  - { offset: 0x35A98, size: 0x8, addend: 0x0, symName: __ZN3std9panicking3try7do_call17h714cf539d250cf96E, symObjAddr: 0x0, symBinAddr: 0x9020, symSize: 0x70 }
  - { offset: 0x35FFF, size: 0x8, addend: 0x0, symName: __ZN3std9panicking3try7do_call17h714cf539d250cf96E, symObjAddr: 0x0, symBinAddr: 0x9020, symSize: 0x70 }
  - { offset: 0x3612B, size: 0x8, addend: 0x0, symName: __ZN3std9panicking3try7do_call17h7aebea24f29ac3f4E, symObjAddr: 0x70, symBinAddr: 0x9090, symSize: 0x7C }
  - { offset: 0x36257, size: 0x8, addend: 0x0, symName: __ZN3std9panicking3try8do_catch17h5741c88182fb6505E, symObjAddr: 0xEC, symBinAddr: 0x910C, symSize: 0x70 }
  - { offset: 0x362F7, size: 0x8, addend: 0x0, symName: __ZN3std9panicking3try8do_catch17h92b8b3e7b649c116E, symObjAddr: 0x15C, symBinAddr: 0x917C, symSize: 0x70 }
  - { offset: 0x36502, size: 0x8, addend: 0x0, symName: __ZN11uniffi_core20ffi_converter_traits11HandleAlloc7get_arc17h22b6ca866d242f39E, symObjAddr: 0x0, symBinAddr: 0x91EC, symSize: 0x24 }
  - { offset: 0x36522, size: 0x8, addend: 0x0, symName: __ZN11uniffi_core20ffi_converter_traits11HandleAlloc7get_arc17h22b6ca866d242f39E, symObjAddr: 0x0, symBinAddr: 0x91EC, symSize: 0x24 }
  - { offset: 0x36566, size: 0x8, addend: 0x0, symName: __ZN11uniffi_core20ffi_converter_traits11HandleAlloc7get_arc17h240a7892d3f1dbceE, symObjAddr: 0x24, symBinAddr: 0x9210, symSize: 0x24 }
  - { offset: 0x365AA, size: 0x8, addend: 0x0, symName: __ZN11uniffi_core20ffi_converter_traits11HandleAlloc7get_arc17h42f1bcf166f9be89E, symObjAddr: 0x48, symBinAddr: 0x9234, symSize: 0x24 }
  - { offset: 0x365EE, size: 0x8, addend: 0x0, symName: __ZN11uniffi_core20ffi_converter_traits11HandleAlloc7get_arc17h74ad21605b988260E, symObjAddr: 0x6C, symBinAddr: 0x9258, symSize: 0x24 }
  - { offset: 0x36632, size: 0x8, addend: 0x0, symName: __ZN11uniffi_core20ffi_converter_traits11HandleAlloc7get_arc17h7bb493fa5bd1dc15E, symObjAddr: 0x90, symBinAddr: 0x927C, symSize: 0x24 }
  - { offset: 0x36676, size: 0x8, addend: 0x0, symName: __ZN11uniffi_core20ffi_converter_traits11HandleAlloc7get_arc17h8a83bf97c702e9deE, symObjAddr: 0xB4, symBinAddr: 0x92A0, symSize: 0x24 }
  - { offset: 0x366BA, size: 0x8, addend: 0x0, symName: __ZN11uniffi_core20ffi_converter_traits11HandleAlloc7get_arc17ha332e1c900cd370cE, symObjAddr: 0xD8, symBinAddr: 0x92C4, symSize: 0x24 }
  - { offset: 0x366FE, size: 0x8, addend: 0x0, symName: __ZN11uniffi_core20ffi_converter_traits11HandleAlloc7get_arc17hae217f92a52c2410E, symObjAddr: 0xFC, symBinAddr: 0x92E8, symSize: 0x24 }
  - { offset: 0x36742, size: 0x8, addend: 0x0, symName: __ZN11uniffi_core20ffi_converter_traits11HandleAlloc7get_arc17hd5b5e70349deda88E, symObjAddr: 0x120, symBinAddr: 0x930C, symSize: 0x24 }
  - { offset: 0x36786, size: 0x8, addend: 0x0, symName: __ZN11uniffi_core20ffi_converter_traits11HandleAlloc7get_arc17he73a95510178b9d2E, symObjAddr: 0x144, symBinAddr: 0x9330, symSize: 0x24 }
  - { offset: 0x367CA, size: 0x8, addend: 0x0, symName: __ZN11uniffi_core20ffi_converter_traits11HandleAlloc7get_arc17heb9a31b7882f3b62E, symObjAddr: 0x168, symBinAddr: 0x9354, symSize: 0x24 }
  - { offset: 0x3680E, size: 0x8, addend: 0x0, symName: __ZN11uniffi_core20ffi_converter_traits11HandleAlloc7get_arc17hf8344cda9c8e7fb9E, symObjAddr: 0x18C, symBinAddr: 0x9378, symSize: 0x24 }
  - { offset: 0x36852, size: 0x8, addend: 0x0, symName: __ZN11uniffi_core20ffi_converter_traits11HandleAlloc7get_arc17hf9bb97599e0a7efcE, symObjAddr: 0x1B0, symBinAddr: 0x939C, symSize: 0x24 }
  - { offset: 0x368AA, size: 0x8, addend: 0x0, symName: '__ZN11uniffi_core3ffi10rustfuture156_$LT$impl$u20$uniffi_core..ffi_converter_traits..HandleAlloc$LT$UT$GT$$u20$for$u20$dyn$u20$uniffi_core..ffi..rustfuture..future..RustFutureFfi$LT$i8$GT$$GT$12clone_handle17h01effdff36262c11E', symObjAddr: 0x1D4, symBinAddr: 0x93C0, symSize: 0x30 }
  - { offset: 0x368E4, size: 0x8, addend: 0x0, symName: '__ZN11uniffi_core3ffi10rustfuture156_$LT$impl$u20$uniffi_core..ffi_converter_traits..HandleAlloc$LT$UT$GT$$u20$for$u20$dyn$u20$uniffi_core..ffi..rustfuture..future..RustFutureFfi$LT$i8$GT$$GT$14consume_handle17h3022493ae2d3dd41E', symObjAddr: 0x204, symBinAddr: 0x93F0, symSize: 0x90 }
  - { offset: 0x36925, size: 0x8, addend: 0x0, symName: '__ZN11uniffi_core3ffi10rustfuture156_$LT$impl$u20$uniffi_core..ffi_converter_traits..HandleAlloc$LT$UT$GT$$u20$for$u20$dyn$u20$uniffi_core..ffi..rustfuture..future..RustFutureFfi$LT$u8$GT$$GT$14consume_handle17h672ce36b794d9bc2E', symObjAddr: 0x2C4, symBinAddr: 0x9480, symSize: 0x90 }
  - { offset: 0x36966, size: 0x8, addend: 0x0, symName: '__ZN11uniffi_core3ffi10rustfuture157_$LT$impl$u20$uniffi_core..ffi_converter_traits..HandleAlloc$LT$UT$GT$$u20$for$u20$dyn$u20$uniffi_core..ffi..rustfuture..future..RustFutureFfi$LT$f32$GT$$GT$14consume_handle17h63024b010845a040E', symObjAddr: 0x384, symBinAddr: 0x9510, symSize: 0x90 }
  - { offset: 0x369A7, size: 0x8, addend: 0x0, symName: '__ZN11uniffi_core3ffi10rustfuture157_$LT$impl$u20$uniffi_core..ffi_converter_traits..HandleAlloc$LT$UT$GT$$u20$for$u20$dyn$u20$uniffi_core..ffi..rustfuture..future..RustFutureFfi$LT$f64$GT$$GT$14consume_handle17ha7899df3c1221befE', symObjAddr: 0x444, symBinAddr: 0x95A0, symSize: 0x90 }
  - { offset: 0x369E8, size: 0x8, addend: 0x0, symName: '__ZN11uniffi_core3ffi10rustfuture157_$LT$impl$u20$uniffi_core..ffi_converter_traits..HandleAlloc$LT$UT$GT$$u20$for$u20$dyn$u20$uniffi_core..ffi..rustfuture..future..RustFutureFfi$LT$i16$GT$$GT$14consume_handle17h5c84680a3fb25205E', symObjAddr: 0x504, symBinAddr: 0x9630, symSize: 0x90 }
  - { offset: 0x36A29, size: 0x8, addend: 0x0, symName: '__ZN11uniffi_core3ffi10rustfuture157_$LT$impl$u20$uniffi_core..ffi_converter_traits..HandleAlloc$LT$UT$GT$$u20$for$u20$dyn$u20$uniffi_core..ffi..rustfuture..future..RustFutureFfi$LT$i32$GT$$GT$14consume_handle17h77f56aa8758bd850E', symObjAddr: 0x5C4, symBinAddr: 0x96C0, symSize: 0x90 }
  - { offset: 0x36A6A, size: 0x8, addend: 0x0, symName: '__ZN11uniffi_core3ffi10rustfuture157_$LT$impl$u20$uniffi_core..ffi_converter_traits..HandleAlloc$LT$UT$GT$$u20$for$u20$dyn$u20$uniffi_core..ffi..rustfuture..future..RustFutureFfi$LT$i64$GT$$GT$14consume_handle17h24a5d0f5b733f1a6E', symObjAddr: 0x684, symBinAddr: 0x9750, symSize: 0x90 }
  - { offset: 0x36AAB, size: 0x8, addend: 0x0, symName: '__ZN11uniffi_core3ffi10rustfuture157_$LT$impl$u20$uniffi_core..ffi_converter_traits..HandleAlloc$LT$UT$GT$$u20$for$u20$dyn$u20$uniffi_core..ffi..rustfuture..future..RustFutureFfi$LT$u16$GT$$GT$14consume_handle17hb41e6974ccb560bfE', symObjAddr: 0x744, symBinAddr: 0x97E0, symSize: 0x90 }
  - { offset: 0x36AEC, size: 0x8, addend: 0x0, symName: '__ZN11uniffi_core3ffi10rustfuture157_$LT$impl$u20$uniffi_core..ffi_converter_traits..HandleAlloc$LT$UT$GT$$u20$for$u20$dyn$u20$uniffi_core..ffi..rustfuture..future..RustFutureFfi$LT$u32$GT$$GT$14consume_handle17h9eee6f74fe90230dE', symObjAddr: 0x804, symBinAddr: 0x9870, symSize: 0x90 }
  - { offset: 0x36B2D, size: 0x8, addend: 0x0, symName: '__ZN11uniffi_core3ffi10rustfuture157_$LT$impl$u20$uniffi_core..ffi_converter_traits..HandleAlloc$LT$UT$GT$$u20$for$u20$dyn$u20$uniffi_core..ffi..rustfuture..future..RustFutureFfi$LT$u64$GT$$GT$14consume_handle17hfec33f57231ea450E', symObjAddr: 0x8C4, symBinAddr: 0x9900, symSize: 0x90 }
  - { offset: 0x36B6E, size: 0x8, addend: 0x0, symName: '__ZN11uniffi_core3ffi10rustfuture162_$LT$impl$u20$uniffi_core..ffi_converter_traits..HandleAlloc$LT$UT$GT$$u20$for$u20$dyn$u20$uniffi_core..ffi..rustfuture..future..RustFutureFfi$LT$$LP$$RP$$GT$$GT$14consume_handle17hebb17029ab82d0b8E', symObjAddr: 0x984, symBinAddr: 0x9990, symSize: 0x90 }
  - { offset: 0x36BAF, size: 0x8, addend: 0x0, symName: '__ZN11uniffi_core3ffi10rustfuture185_$LT$impl$u20$uniffi_core..ffi_converter_traits..HandleAlloc$LT$UT$GT$$u20$for$u20$dyn$u20$uniffi_core..ffi..rustfuture..future..RustFutureFfi$LT$$BP$const$u20$core..ffi..c_void$GT$$GT$14consume_handle17h8b4cdc60f197b089E', symObjAddr: 0xA44, symBinAddr: 0x9A20, symSize: 0x90 }
  - { offset: 0x36BF0, size: 0x8, addend: 0x0, symName: '__ZN11uniffi_core3ffi10rustfuture194_$LT$impl$u20$uniffi_core..ffi_converter_traits..HandleAlloc$LT$UT$GT$$u20$for$u20$dyn$u20$uniffi_core..ffi..rustfuture..future..RustFutureFfi$LT$uniffi_core..ffi..rustbuffer..RustBuffer$GT$$GT$14consume_handle17h48767280f309cb87E', symObjAddr: 0xB04, symBinAddr: 0x9AB0, symSize: 0x90 }
  - { offset: 0x378E0, size: 0x8, addend: 0x0, symName: __ZN4core3ops8function6FnOnce9call_once17h4332d89e3e7c8974E, symObjAddr: 0x0, symBinAddr: 0x9B40, symSize: 0x60 }
  - { offset: 0x3803E, size: 0x8, addend: 0x0, symName: '__ZN4core3ptr114drop_in_place$LT$alloc..sync..Arc$LT$dyn$u20$uniffi_core..ffi..rustfuture..future..RustFutureFfi$LT$i8$GT$$GT$$GT$17h745bf57e1438a2deE', symObjAddr: 0x7C, symBinAddr: 0x9BBC, symSize: 0x24 }
  - { offset: 0x38070, size: 0x8, addend: 0x0, symName: '__ZN4core3ptr119drop_in_place$LT$dyn$u20$uniffi_core..ffi..rustfuture..future..RustFutureFfi$LT$$BP$const$u20$core..ffi..c_void$GT$$GT$17h426510c4ebaee09bE', symObjAddr: 0x1E4, symBinAddr: 0x9BE0, symSize: 0x48 }
  - { offset: 0x380A2, size: 0x8, addend: 0x0, symName: '__ZN4core3ptr138drop_in_place$LT$alloc..sync..Arc$LT$alloc..sync..Arc$LT$dyn$u20$uniffi_core..ffi..rustfuture..future..RustFutureFfi$LT$i8$GT$$GT$$GT$$GT$17h0c467f309c078125E', symObjAddr: 0x298, symBinAddr: 0x9C28, symSize: 0x24 }
  - { offset: 0x380D4, size: 0x8, addend: 0x0, symName: '__ZN4core3ptr142drop_in_place$LT$alloc..sync..Weak$LT$dyn$u20$uniffi_core..ffi..rustfuture..future..RustFutureFfi$LT$i8$GT$$C$$RF$alloc..alloc..Global$GT$$GT$17h3639bcd778d8f5aeE', symObjAddr: 0x400, symBinAddr: 0x9C4C, symSize: 0x24 }
  - { offset: 0x38106, size: 0x8, addend: 0x0, symName: '__ZN4core3ptr166drop_in_place$LT$alloc..sync..Weak$LT$alloc..sync..Arc$LT$dyn$u20$uniffi_core..ffi..rustfuture..future..RustFutureFfi$LT$i8$GT$$GT$$C$$RF$alloc..alloc..Global$GT$$GT$17h79f3f423df909903E', symObjAddr: 0x5F8, symBinAddr: 0x9C70, symSize: 0x24 }
  - { offset: 0x38138, size: 0x8, addend: 0x0, symName: '__ZN4core3ptr220drop_in_place$LT$uniffi_core..ffi..rustcalls..rust_call_with_out_status$LT$rustrandomgenerator..uniffi_rustrandomgenerator_fn_func_get_random_number..$u7b$$u7b$closure$u7d$$u7d$$C$u32$GT$..$u7b$$u7b$closure$u7d$$u7d$$GT$17h46fcb208f6994a6bE', symObjAddr: 0x85C, symBinAddr: 0x9C94, symSize: 0x24 }
  - { offset: 0x3816A, size: 0x8, addend: 0x0, symName: '__ZN4core3ptr34drop_in_place$LT$anyhow..Error$GT$17h773542614f925764E', symObjAddr: 0x880, symBinAddr: 0x9CB8, symSize: 0x24 }
  - { offset: 0x3819C, size: 0x8, addend: 0x0, symName: '__ZN4core3ptr50drop_in_place$LT$rand..rngs..thread..ThreadRng$GT$17h2729dbfcaa0d291aE', symObjAddr: 0x8A4, symBinAddr: 0x9CDC, symSize: 0x24 }
  - { offset: 0x38A57, size: 0x8, addend: 0x0, symName: __ZN4core3ops8function6FnOnce9call_once17h4332d89e3e7c8974E, symObjAddr: 0x0, symBinAddr: 0x9B40, symSize: 0x60 }
  - { offset: 0x38AA0, size: 0x8, addend: 0x0, symName: __ZN4core3ops8function6FnOnce9call_once17h8e989fb861d63c3eE, symObjAddr: 0x60, symBinAddr: 0x9BA0, symSize: 0x1C }
  - { offset: 0x39945, size: 0x8, addend: 0x0, symName: '__ZN71_$LT$alloc..sync..Arc$LT$T$C$A$GT$$u20$as$u20$core..ops..drop..Drop$GT$4drop17h01201076118aa4b6E', symObjAddr: 0xBE0, symBinAddr: 0x9D00, symSize: 0x114 }
  - { offset: 0x39B22, size: 0x8, addend: 0x0, symName: '__ZN71_$LT$alloc..sync..Arc$LT$T$C$A$GT$$u20$as$u20$core..ops..drop..Drop$GT$4drop17h198bbdff0c4e671cE', symObjAddr: 0x1030, symBinAddr: 0x9E14, symSize: 0x108 }
  - { offset: 0x3A96D, size: 0x8, addend: 0x0, symName: '__ZN72_$LT$alloc..sync..Weak$LT$T$C$A$GT$$u20$as$u20$core..ops..drop..Drop$GT$4drop17h0a8eac53d2024287E', symObjAddr: 0x274C, symBinAddr: 0x9F1C, symSize: 0x1D4 }
  - { offset: 0x3AC9C, size: 0x8, addend: 0x0, symName: '__ZN72_$LT$alloc..sync..Weak$LT$T$C$A$GT$$u20$as$u20$core..ops..drop..Drop$GT$4drop17h121e3a44af5c5425E', symObjAddr: 0x2920, symBinAddr: 0xA0F0, symSize: 0x178 }
  - { offset: 0x3CB7E, size: 0x8, addend: 0x0, symName: '__ZN4rand13distributions7integer118_$LT$impl$u20$rand..distributions..distribution..Distribution$LT$u32$GT$$u20$for$u20$rand..distributions..Standard$GT$6sample17h92e50162480582baE', symObjAddr: 0x0, symBinAddr: 0xA268, symSize: 0x68 }
  - { offset: 0x3CED3, size: 0x8, addend: 0x0, symName: '__ZN4rand13distributions7integer118_$LT$impl$u20$rand..distributions..distribution..Distribution$LT$u32$GT$$u20$for$u20$rand..distributions..Standard$GT$6sample17h92e50162480582baE', symObjAddr: 0x0, symBinAddr: 0xA268, symSize: 0x68 }
  - { offset: 0x3D28A, size: 0x8, addend: 0x0, symName: '__ZN4core3ptr8non_null16NonNull$LT$T$GT$13new_unchecked18precondition_check17hc709a100f14cf86bE', symObjAddr: 0x0, symBinAddr: 0xA2D0, symSize: 0x3C }
  - { offset: 0x3D2EF, size: 0x8, addend: 0x0, symName: '__ZN4core3ptr8non_null16NonNull$LT$T$GT$13new_unchecked18precondition_check17hc709a100f14cf86bE', symObjAddr: 0x0, symBinAddr: 0xA2D0, symSize: 0x3C }
  - { offset: 0x3D386, size: 0x8, addend: 0x0, symName: '__ZN11uniffi_core19ffi_converter_impls84_$LT$impl$u20$uniffi_core..ffi_converter_traits..Lower$LT$UT$GT$$u20$for$u20$u32$GT$5lower17he414456d5fca0416E', symObjAddr: 0x0, symBinAddr: 0xA30C, symSize: 0x20 }
  - { offset: 0x3D3A6, size: 0x8, addend: 0x0, symName: '__ZN11uniffi_core19ffi_converter_impls84_$LT$impl$u20$uniffi_core..ffi_converter_traits..Lower$LT$UT$GT$$u20$for$u20$u32$GT$5lower17he414456d5fca0416E', symObjAddr: 0x0, symBinAddr: 0xA30C, symSize: 0x20 }
  - { offset: 0x3D3E7, size: 0x8, addend: 0x0, symName: '__ZN11uniffi_core19ffi_converter_impls90_$LT$impl$u20$uniffi_core..ffi_converter_traits..LowerReturn$LT$UT$GT$$u20$for$u20$u32$GT$12lower_return17hfb433f9b971e012eE', symObjAddr: 0x20, symBinAddr: 0xA32C, symSize: 0x34 }
  - { offset: 0x3D428, size: 0x8, addend: 0x0, symName: '__ZN11uniffi_core19ffi_converter_impls91_$LT$impl$u20$uniffi_core..ffi_converter_traits..FfiConverter$LT$UT$GT$$u20$for$u20$u32$GT$5lower17h83137abbdca5b808E', symObjAddr: 0x54, symBinAddr: 0xA360, symSize: 0x10 }
  - { offset: 0x3D764, size: 0x8, addend: 0x0, symName: __ZN11uniffi_core20ffi_converter_traits11LowerReturn18handle_failed_lift17h228db6941038875fE, symObjAddr: 0x0, symBinAddr: 0xA370, symSize: 0x170 }
  - { offset: 0x3EC6D, size: 0x8, addend: 0x0, symName: __ZN11uniffi_core20ffi_converter_traits11LowerReturn18handle_failed_lift17h228db6941038875fE, symObjAddr: 0x0, symBinAddr: 0xA370, symSize: 0x170 }
  - { offset: 0x3EF18, size: 0x8, addend: 0x0, symName: '__ZN59_$LT$alloc..alloc..Global$u20$as$u20$core..clone..Clone$GT$5clone17h7e16bad833e70a0bE', symObjAddr: 0x0, symBinAddr: 0xA4E0, symSize: 0x10 }
  - { offset: 0x3F2BA, size: 0x8, addend: 0x0, symName: '__ZN59_$LT$alloc..alloc..Global$u20$as$u20$core..clone..Clone$GT$5clone17h7e16bad833e70a0bE', symObjAddr: 0x0, symBinAddr: 0xA4E0, symSize: 0x10 }
  - { offset: 0x3F314, size: 0x8, addend: 0x0, symName: '__ZN63_$LT$alloc..alloc..Global$u20$as$u20$core..alloc..Allocator$GT$10deallocate17h976ada1a22183175E', symObjAddr: 0x10, symBinAddr: 0xA4F0, symSize: 0x8C }
  - { offset: 0x3F533, size: 0x8, addend: 0x0, symName: __ZN3std5panic12catch_unwind17h123a33323cdf2eb6E, symObjAddr: 0x0, symBinAddr: 0xA57C, symSize: 0xB8 }
  - { offset: 0x3F689, size: 0x8, addend: 0x0, symName: __ZN3std5panic12catch_unwind17h123a33323cdf2eb6E, symObjAddr: 0x0, symBinAddr: 0xA57C, symSize: 0xB8 }
  - { offset: 0x3F75C, size: 0x8, addend: 0x0, symName: __ZN3std5panic12catch_unwind17h63473dfc1fa3ee59E, symObjAddr: 0xB8, symBinAddr: 0xA634, symSize: 0xCC }
  - { offset: 0x3FE4D, size: 0x8, addend: 0x0, symName: __ZN19rustrandomgenerator17get_random_number17h9841e5daee7efa37E, symObjAddr: 0x0, symBinAddr: 0xA754, symSize: 0x20 }
  - { offset: 0x3FE6E, size: 0x8, addend: 0x0, symName: _UNIFFI_META_UDL_RANDOM, symObjAddr: 0xF34, symBinAddr: 0xEE7C4, symSize: 0x0 }
  - { offset: 0x3FE85, size: 0x8, addend: 0x0, symName: _UNIFFI_META_NAMESPACE_RANDOM, symObjAddr: 0xF5C, symBinAddr: 0xEE7EC, symSize: 0x0 }
  - { offset: 0x3FE8F, size: 0x8, addend: 0x0, symName: __ZN19rustrandomgenerator17get_random_number17h9841e5daee7efa37E, symObjAddr: 0x0, symBinAddr: 0xA754, symSize: 0x20 }
  - { offset: 0x3FEAD, size: 0x8, addend: 0x0, symName: _uniffi_rustrandomgenerator_checksum_func_get_random_number, symObjAddr: 0x20, symBinAddr: 0xA774, symSize: 0x8 }
  - { offset: 0x3FEC7, size: 0x8, addend: 0x0, symName: _ffi_rustrandomgenerator_uniffi_contract_version, symObjAddr: 0x28, symBinAddr: 0xA77C, symSize: 0x8 }
  - { offset: 0x3FEE1, size: 0x8, addend: 0x0, symName: _ffi_rustrandomgenerator_rustbuffer_alloc, symObjAddr: 0x30, symBinAddr: 0xA784, symSize: 0x30 }
  - { offset: 0x3FF1A, size: 0x8, addend: 0x0, symName: _ffi_rustrandomgenerator_rustbuffer_from_bytes, symObjAddr: 0x60, symBinAddr: 0xA7B4, symSize: 0x44 }
  - { offset: 0x3FF53, size: 0x8, addend: 0x0, symName: _ffi_rustrandomgenerator_rustbuffer_free, symObjAddr: 0xA4, symBinAddr: 0xA7F8, symSize: 0x2C }
  - { offset: 0x3FF89, size: 0x8, addend: 0x0, symName: _ffi_rustrandomgenerator_rustbuffer_reserve, symObjAddr: 0xD0, symBinAddr: 0xA824, symSize: 0x30 }
  - { offset: 0x3FFD2, size: 0x8, addend: 0x0, symName: _ffi_rustrandomgenerator_rust_future_poll_u8, symObjAddr: 0x100, symBinAddr: 0xA854, symSize: 0x34 }
  - { offset: 0x40016, size: 0x8, addend: 0x0, symName: _ffi_rustrandomgenerator_rust_future_cancel_u8, symObjAddr: 0x134, symBinAddr: 0xA888, symSize: 0x28 }
  - { offset: 0x4003C, size: 0x8, addend: 0x0, symName: _ffi_rustrandomgenerator_rust_future_complete_u8, symObjAddr: 0x15C, symBinAddr: 0xA8B0, symSize: 0x3C }
  - { offset: 0x40075, size: 0x8, addend: 0x0, symName: _ffi_rustrandomgenerator_rust_future_free_u8, symObjAddr: 0x198, symBinAddr: 0xA8EC, symSize: 0x28 }
  - { offset: 0x4009B, size: 0x8, addend: 0x0, symName: _ffi_rustrandomgenerator_rust_future_poll_i8, symObjAddr: 0x1C0, symBinAddr: 0xA914, symSize: 0x34 }
  - { offset: 0x400DF, size: 0x8, addend: 0x0, symName: _ffi_rustrandomgenerator_rust_future_cancel_i8, symObjAddr: 0x1F4, symBinAddr: 0xA948, symSize: 0x28 }
  - { offset: 0x40105, size: 0x8, addend: 0x0, symName: _ffi_rustrandomgenerator_rust_future_complete_i8, symObjAddr: 0x21C, symBinAddr: 0xA970, symSize: 0x3C }
  - { offset: 0x4013E, size: 0x8, addend: 0x0, symName: _ffi_rustrandomgenerator_rust_future_free_i8, symObjAddr: 0x258, symBinAddr: 0xA9AC, symSize: 0x28 }
  - { offset: 0x40164, size: 0x8, addend: 0x0, symName: _ffi_rustrandomgenerator_rust_future_poll_u16, symObjAddr: 0x280, symBinAddr: 0xA9D4, symSize: 0x34 }
  - { offset: 0x401A8, size: 0x8, addend: 0x0, symName: _ffi_rustrandomgenerator_rust_future_cancel_u16, symObjAddr: 0x2B4, symBinAddr: 0xAA08, symSize: 0x28 }
  - { offset: 0x401CE, size: 0x8, addend: 0x0, symName: _ffi_rustrandomgenerator_rust_future_complete_u16, symObjAddr: 0x2DC, symBinAddr: 0xAA30, symSize: 0x3C }
  - { offset: 0x40207, size: 0x8, addend: 0x0, symName: _ffi_rustrandomgenerator_rust_future_free_u16, symObjAddr: 0x318, symBinAddr: 0xAA6C, symSize: 0x28 }
  - { offset: 0x4022D, size: 0x8, addend: 0x0, symName: _ffi_rustrandomgenerator_rust_future_poll_i16, symObjAddr: 0x340, symBinAddr: 0xAA94, symSize: 0x34 }
  - { offset: 0x40271, size: 0x8, addend: 0x0, symName: _ffi_rustrandomgenerator_rust_future_cancel_i16, symObjAddr: 0x374, symBinAddr: 0xAAC8, symSize: 0x28 }
  - { offset: 0x40297, size: 0x8, addend: 0x0, symName: _ffi_rustrandomgenerator_rust_future_complete_i16, symObjAddr: 0x39C, symBinAddr: 0xAAF0, symSize: 0x3C }
  - { offset: 0x402D0, size: 0x8, addend: 0x0, symName: _ffi_rustrandomgenerator_rust_future_free_i16, symObjAddr: 0x3D8, symBinAddr: 0xAB2C, symSize: 0x28 }
  - { offset: 0x402F6, size: 0x8, addend: 0x0, symName: _ffi_rustrandomgenerator_rust_future_poll_u32, symObjAddr: 0x400, symBinAddr: 0xAB54, symSize: 0x34 }
  - { offset: 0x4033A, size: 0x8, addend: 0x0, symName: _ffi_rustrandomgenerator_rust_future_cancel_u32, symObjAddr: 0x434, symBinAddr: 0xAB88, symSize: 0x28 }
  - { offset: 0x40360, size: 0x8, addend: 0x0, symName: _ffi_rustrandomgenerator_rust_future_complete_u32, symObjAddr: 0x45C, symBinAddr: 0xABB0, symSize: 0x38 }
  - { offset: 0x40399, size: 0x8, addend: 0x0, symName: _ffi_rustrandomgenerator_rust_future_free_u32, symObjAddr: 0x494, symBinAddr: 0xABE8, symSize: 0x28 }
  - { offset: 0x403BF, size: 0x8, addend: 0x0, symName: _ffi_rustrandomgenerator_rust_future_poll_i32, symObjAddr: 0x4BC, symBinAddr: 0xAC10, symSize: 0x34 }
  - { offset: 0x40403, size: 0x8, addend: 0x0, symName: _ffi_rustrandomgenerator_rust_future_cancel_i32, symObjAddr: 0x4F0, symBinAddr: 0xAC44, symSize: 0x28 }
  - { offset: 0x40429, size: 0x8, addend: 0x0, symName: _ffi_rustrandomgenerator_rust_future_complete_i32, symObjAddr: 0x518, symBinAddr: 0xAC6C, symSize: 0x38 }
  - { offset: 0x40462, size: 0x8, addend: 0x0, symName: _ffi_rustrandomgenerator_rust_future_free_i32, symObjAddr: 0x550, symBinAddr: 0xACA4, symSize: 0x28 }
  - { offset: 0x40488, size: 0x8, addend: 0x0, symName: _ffi_rustrandomgenerator_rust_future_poll_u64, symObjAddr: 0x578, symBinAddr: 0xACCC, symSize: 0x34 }
  - { offset: 0x404CC, size: 0x8, addend: 0x0, symName: _ffi_rustrandomgenerator_rust_future_cancel_u64, symObjAddr: 0x5AC, symBinAddr: 0xAD00, symSize: 0x28 }
  - { offset: 0x404F2, size: 0x8, addend: 0x0, symName: _ffi_rustrandomgenerator_rust_future_complete_u64, symObjAddr: 0x5D4, symBinAddr: 0xAD28, symSize: 0x38 }
  - { offset: 0x4052B, size: 0x8, addend: 0x0, symName: _ffi_rustrandomgenerator_rust_future_free_u64, symObjAddr: 0x60C, symBinAddr: 0xAD60, symSize: 0x28 }
  - { offset: 0x40551, size: 0x8, addend: 0x0, symName: _ffi_rustrandomgenerator_rust_future_poll_i64, symObjAddr: 0x634, symBinAddr: 0xAD88, symSize: 0x34 }
  - { offset: 0x40595, size: 0x8, addend: 0x0, symName: _ffi_rustrandomgenerator_rust_future_cancel_i64, symObjAddr: 0x668, symBinAddr: 0xADBC, symSize: 0x28 }
  - { offset: 0x405BB, size: 0x8, addend: 0x0, symName: _ffi_rustrandomgenerator_rust_future_complete_i64, symObjAddr: 0x690, symBinAddr: 0xADE4, symSize: 0x38 }
  - { offset: 0x405F4, size: 0x8, addend: 0x0, symName: _ffi_rustrandomgenerator_rust_future_free_i64, symObjAddr: 0x6C8, symBinAddr: 0xAE1C, symSize: 0x28 }
  - { offset: 0x4061A, size: 0x8, addend: 0x0, symName: _ffi_rustrandomgenerator_rust_future_poll_f32, symObjAddr: 0x6F0, symBinAddr: 0xAE44, symSize: 0x34 }
  - { offset: 0x4065E, size: 0x8, addend: 0x0, symName: _ffi_rustrandomgenerator_rust_future_cancel_f32, symObjAddr: 0x724, symBinAddr: 0xAE78, symSize: 0x28 }
  - { offset: 0x40684, size: 0x8, addend: 0x0, symName: _ffi_rustrandomgenerator_rust_future_complete_f32, symObjAddr: 0x74C, symBinAddr: 0xAEA0, symSize: 0x38 }
  - { offset: 0x406BD, size: 0x8, addend: 0x0, symName: _ffi_rustrandomgenerator_rust_future_free_f32, symObjAddr: 0x784, symBinAddr: 0xAED8, symSize: 0x28 }
  - { offset: 0x406E3, size: 0x8, addend: 0x0, symName: _ffi_rustrandomgenerator_rust_future_poll_f64, symObjAddr: 0x7AC, symBinAddr: 0xAF00, symSize: 0x34 }
  - { offset: 0x40727, size: 0x8, addend: 0x0, symName: _ffi_rustrandomgenerator_rust_future_cancel_f64, symObjAddr: 0x7E0, symBinAddr: 0xAF34, symSize: 0x28 }
  - { offset: 0x4074D, size: 0x8, addend: 0x0, symName: _ffi_rustrandomgenerator_rust_future_complete_f64, symObjAddr: 0x808, symBinAddr: 0xAF5C, symSize: 0x38 }
  - { offset: 0x40786, size: 0x8, addend: 0x0, symName: _ffi_rustrandomgenerator_rust_future_free_f64, symObjAddr: 0x840, symBinAddr: 0xAF94, symSize: 0x28 }
  - { offset: 0x407AC, size: 0x8, addend: 0x0, symName: _ffi_rustrandomgenerator_rust_future_poll_pointer, symObjAddr: 0x868, symBinAddr: 0xAFBC, symSize: 0x34 }
  - { offset: 0x407F0, size: 0x8, addend: 0x0, symName: _ffi_rustrandomgenerator_rust_future_cancel_pointer, symObjAddr: 0x89C, symBinAddr: 0xAFF0, symSize: 0x28 }
  - { offset: 0x40816, size: 0x8, addend: 0x0, symName: _ffi_rustrandomgenerator_rust_future_complete_pointer, symObjAddr: 0x8C4, symBinAddr: 0xB018, symSize: 0x38 }
  - { offset: 0x4084F, size: 0x8, addend: 0x0, symName: _ffi_rustrandomgenerator_rust_future_free_pointer, symObjAddr: 0x8FC, symBinAddr: 0xB050, symSize: 0x28 }
  - { offset: 0x40875, size: 0x8, addend: 0x0, symName: _ffi_rustrandomgenerator_rust_future_poll_rust_buffer, symObjAddr: 0x924, symBinAddr: 0xB078, symSize: 0x34 }
  - { offset: 0x408B9, size: 0x8, addend: 0x0, symName: _ffi_rustrandomgenerator_rust_future_cancel_rust_buffer, symObjAddr: 0x958, symBinAddr: 0xB0AC, symSize: 0x28 }
  - { offset: 0x408DF, size: 0x8, addend: 0x0, symName: _ffi_rustrandomgenerator_rust_future_complete_rust_buffer, symObjAddr: 0x980, symBinAddr: 0xB0D4, symSize: 0x30 }
  - { offset: 0x40918, size: 0x8, addend: 0x0, symName: _ffi_rustrandomgenerator_rust_future_free_rust_buffer, symObjAddr: 0x9B0, symBinAddr: 0xB104, symSize: 0x28 }
  - { offset: 0x4093E, size: 0x8, addend: 0x0, symName: _ffi_rustrandomgenerator_rust_future_poll_void, symObjAddr: 0x9D8, symBinAddr: 0xB12C, symSize: 0x34 }
  - { offset: 0x40982, size: 0x8, addend: 0x0, symName: _ffi_rustrandomgenerator_rust_future_cancel_void, symObjAddr: 0xA0C, symBinAddr: 0xB160, symSize: 0x28 }
  - { offset: 0x409A8, size: 0x8, addend: 0x0, symName: _ffi_rustrandomgenerator_rust_future_complete_void, symObjAddr: 0xA34, symBinAddr: 0xB188, symSize: 0x30 }
  - { offset: 0x409DD, size: 0x8, addend: 0x0, symName: _ffi_rustrandomgenerator_rust_future_free_void, symObjAddr: 0xA64, symBinAddr: 0xB1B8, symSize: 0x28 }
  - { offset: 0x40A03, size: 0x8, addend: 0x0, symName: _uniffi_rustrandomgenerator_fn_func_get_random_number, symObjAddr: 0xA8C, symBinAddr: 0xB1E0, symSize: 0x118 }
  - { offset: 0x40D23, size: 0x8, addend: 0x0, symName: '__ZN48_$LT$$RF$A$u20$as$u20$core..alloc..Allocator$GT$10deallocate17h50b96870a96541eeE', symObjAddr: 0x0, symBinAddr: 0xB2F8, symSize: 0x38 }
  - { offset: 0x41022, size: 0x8, addend: 0x0, symName: '__ZN48_$LT$$RF$A$u20$as$u20$core..alloc..Allocator$GT$10deallocate17h50b96870a96541eeE', symObjAddr: 0x0, symBinAddr: 0xB2F8, symSize: 0x38 }
  - { offset: 0x4111A, size: 0x8, addend: 0x0, symName: '__ZN4core6option15Option$LT$T$GT$14unwrap_or_else17h0e66abbfd345d5b8E', symObjAddr: 0x0, symBinAddr: 0xB330, symSize: 0x4C }
  - { offset: 0x41276, size: 0x8, addend: 0x0, symName: '__ZN4core6option15Option$LT$T$GT$14unwrap_or_else17h0e66abbfd345d5b8E', symObjAddr: 0x0, symBinAddr: 0xB330, symSize: 0x4C }
  - { offset: 0x412FC, size: 0x8, addend: 0x0, symName: __ZN11uniffi_core3ffi10rustfuture16rust_future_free17h03e455074013f3b3E, symObjAddr: 0x0, symBinAddr: 0xB37C, symSize: 0x28 }
  - { offset: 0x41392, size: 0x8, addend: 0x0, symName: __ZN11uniffi_core3ffi10rustfuture16rust_future_free17h03e455074013f3b3E, symObjAddr: 0x0, symBinAddr: 0xB37C, symSize: 0x28 }
  - { offset: 0x413D0, size: 0x8, addend: 0x0, symName: __ZN11uniffi_core3ffi10rustfuture16rust_future_free17h1f7621a9199aa00bE, symObjAddr: 0x28, symBinAddr: 0xB3A4, symSize: 0x28 }
  - { offset: 0x4140E, size: 0x8, addend: 0x0, symName: __ZN11uniffi_core3ffi10rustfuture16rust_future_free17h49fd45aaaa3fddb3E, symObjAddr: 0x50, symBinAddr: 0xB3CC, symSize: 0x28 }
  - { offset: 0x4144C, size: 0x8, addend: 0x0, symName: __ZN11uniffi_core3ffi10rustfuture16rust_future_free17h4c9cc14fcd15b63cE, symObjAddr: 0x78, symBinAddr: 0xB3F4, symSize: 0x28 }
  - { offset: 0x4148A, size: 0x8, addend: 0x0, symName: __ZN11uniffi_core3ffi10rustfuture16rust_future_free17h4f93359058d33efbE, symObjAddr: 0xA0, symBinAddr: 0xB41C, symSize: 0x28 }
  - { offset: 0x414C8, size: 0x8, addend: 0x0, symName: __ZN11uniffi_core3ffi10rustfuture16rust_future_free17h539c17aea2d00770E, symObjAddr: 0xC8, symBinAddr: 0xB444, symSize: 0x28 }
  - { offset: 0x41506, size: 0x8, addend: 0x0, symName: __ZN11uniffi_core3ffi10rustfuture16rust_future_free17h79f7bff2eaf3afebE, symObjAddr: 0xF0, symBinAddr: 0xB46C, symSize: 0x28 }
  - { offset: 0x41544, size: 0x8, addend: 0x0, symName: __ZN11uniffi_core3ffi10rustfuture16rust_future_free17h9a03a126491ea115E, symObjAddr: 0x118, symBinAddr: 0xB494, symSize: 0x28 }
  - { offset: 0x41582, size: 0x8, addend: 0x0, symName: __ZN11uniffi_core3ffi10rustfuture16rust_future_free17hadd24a6ef3b5e1c3E, symObjAddr: 0x140, symBinAddr: 0xB4BC, symSize: 0x28 }
  - { offset: 0x415C0, size: 0x8, addend: 0x0, symName: __ZN11uniffi_core3ffi10rustfuture16rust_future_free17hc92bfd13ab3b3a03E, symObjAddr: 0x168, symBinAddr: 0xB4E4, symSize: 0x28 }
  - { offset: 0x415FE, size: 0x8, addend: 0x0, symName: __ZN11uniffi_core3ffi10rustfuture16rust_future_free17hcaa4ff28a252a903E, symObjAddr: 0x190, symBinAddr: 0xB50C, symSize: 0x28 }
  - { offset: 0x4163C, size: 0x8, addend: 0x0, symName: __ZN11uniffi_core3ffi10rustfuture16rust_future_free17hf577ce54b77213d4E, symObjAddr: 0x1B8, symBinAddr: 0xB534, symSize: 0x28 }
  - { offset: 0x4167A, size: 0x8, addend: 0x0, symName: __ZN11uniffi_core3ffi10rustfuture16rust_future_free17hf776d75b2e60a4feE, symObjAddr: 0x1E0, symBinAddr: 0xB55C, symSize: 0x28 }
  - { offset: 0x416B8, size: 0x8, addend: 0x0, symName: __ZN11uniffi_core3ffi10rustfuture16rust_future_poll17h00f9666fca016194E, symObjAddr: 0x208, symBinAddr: 0xB584, symSize: 0x44 }
  - { offset: 0x41714, size: 0x8, addend: 0x0, symName: __ZN11uniffi_core3ffi10rustfuture16rust_future_poll17h079dec7e9707f204E, symObjAddr: 0x24C, symBinAddr: 0xB5C8, symSize: 0x44 }
  - { offset: 0x41770, size: 0x8, addend: 0x0, symName: __ZN11uniffi_core3ffi10rustfuture16rust_future_poll17h0f5409bf53d2e57bE, symObjAddr: 0x290, symBinAddr: 0xB60C, symSize: 0x44 }
  - { offset: 0x417CC, size: 0x8, addend: 0x0, symName: __ZN11uniffi_core3ffi10rustfuture16rust_future_poll17h1428a0d8535df08eE, symObjAddr: 0x2D4, symBinAddr: 0xB650, symSize: 0x44 }
  - { offset: 0x41828, size: 0x8, addend: 0x0, symName: __ZN11uniffi_core3ffi10rustfuture16rust_future_poll17h2d1feeac2d3b8ba6E, symObjAddr: 0x318, symBinAddr: 0xB694, symSize: 0x44 }
  - { offset: 0x41884, size: 0x8, addend: 0x0, symName: __ZN11uniffi_core3ffi10rustfuture16rust_future_poll17h2d84e2bcd032ca8fE, symObjAddr: 0x35C, symBinAddr: 0xB6D8, symSize: 0x44 }
  - { offset: 0x418E0, size: 0x8, addend: 0x0, symName: __ZN11uniffi_core3ffi10rustfuture16rust_future_poll17h2dc53348d7345e6eE, symObjAddr: 0x3A0, symBinAddr: 0xB71C, symSize: 0x44 }
  - { offset: 0x4193C, size: 0x8, addend: 0x0, symName: __ZN11uniffi_core3ffi10rustfuture16rust_future_poll17h3a5c8df6f48b4301E, symObjAddr: 0x3E4, symBinAddr: 0xB760, symSize: 0x44 }
  - { offset: 0x41998, size: 0x8, addend: 0x0, symName: __ZN11uniffi_core3ffi10rustfuture16rust_future_poll17h813d7776ef3eae1aE, symObjAddr: 0x428, symBinAddr: 0xB7A4, symSize: 0x44 }
  - { offset: 0x419F4, size: 0x8, addend: 0x0, symName: __ZN11uniffi_core3ffi10rustfuture16rust_future_poll17haede6c8f2607036dE, symObjAddr: 0x46C, symBinAddr: 0xB7E8, symSize: 0x44 }
  - { offset: 0x41A50, size: 0x8, addend: 0x0, symName: __ZN11uniffi_core3ffi10rustfuture16rust_future_poll17hbff9a3333830763aE, symObjAddr: 0x4B0, symBinAddr: 0xB82C, symSize: 0x44 }
  - { offset: 0x41AAC, size: 0x8, addend: 0x0, symName: __ZN11uniffi_core3ffi10rustfuture16rust_future_poll17hc8c64b1c486b20a2E, symObjAddr: 0x4F4, symBinAddr: 0xB870, symSize: 0x44 }
  - { offset: 0x41B08, size: 0x8, addend: 0x0, symName: __ZN11uniffi_core3ffi10rustfuture16rust_future_poll17hcea997d05d09bb1dE, symObjAddr: 0x538, symBinAddr: 0xB8B4, symSize: 0x44 }
  - { offset: 0x41B64, size: 0x8, addend: 0x0, symName: __ZN11uniffi_core3ffi10rustfuture18rust_future_cancel17h280c300529cff817E, symObjAddr: 0x57C, symBinAddr: 0xB8F8, symSize: 0x84 }
  - { offset: 0x41BA2, size: 0x8, addend: 0x0, symName: __ZN11uniffi_core3ffi10rustfuture18rust_future_cancel17h32c68bb5929cc044E, symObjAddr: 0x600, symBinAddr: 0xB97C, symSize: 0x84 }
  - { offset: 0x41BE0, size: 0x8, addend: 0x0, symName: __ZN11uniffi_core3ffi10rustfuture18rust_future_cancel17h58c734e3e3093b8eE, symObjAddr: 0x684, symBinAddr: 0xBA00, symSize: 0x84 }
  - { offset: 0x41C1E, size: 0x8, addend: 0x0, symName: __ZN11uniffi_core3ffi10rustfuture18rust_future_cancel17h65b710456e7a54b1E, symObjAddr: 0x708, symBinAddr: 0xBA84, symSize: 0x84 }
  - { offset: 0x41C5C, size: 0x8, addend: 0x0, symName: __ZN11uniffi_core3ffi10rustfuture18rust_future_cancel17h6ce126cca78c3e5dE, symObjAddr: 0x78C, symBinAddr: 0xBB08, symSize: 0x84 }
  - { offset: 0x41C9A, size: 0x8, addend: 0x0, symName: __ZN11uniffi_core3ffi10rustfuture18rust_future_cancel17h6cf68d4492c68e25E, symObjAddr: 0x810, symBinAddr: 0xBB8C, symSize: 0x84 }
  - { offset: 0x41CD8, size: 0x8, addend: 0x0, symName: __ZN11uniffi_core3ffi10rustfuture18rust_future_cancel17h77f2b5a5f6055dc4E, symObjAddr: 0x894, symBinAddr: 0xBC10, symSize: 0x84 }
  - { offset: 0x41D16, size: 0x8, addend: 0x0, symName: __ZN11uniffi_core3ffi10rustfuture18rust_future_cancel17h7eb93b1751a2979dE, symObjAddr: 0x918, symBinAddr: 0xBC94, symSize: 0x84 }
  - { offset: 0x41D54, size: 0x8, addend: 0x0, symName: __ZN11uniffi_core3ffi10rustfuture18rust_future_cancel17h8c1e9072aed8252eE, symObjAddr: 0x99C, symBinAddr: 0xBD18, symSize: 0x84 }
  - { offset: 0x41D92, size: 0x8, addend: 0x0, symName: __ZN11uniffi_core3ffi10rustfuture18rust_future_cancel17haba5b340f9993ff9E, symObjAddr: 0xA20, symBinAddr: 0xBD9C, symSize: 0x84 }
  - { offset: 0x41DD0, size: 0x8, addend: 0x0, symName: __ZN11uniffi_core3ffi10rustfuture18rust_future_cancel17hb3168ab07745bd04E, symObjAddr: 0xAA4, symBinAddr: 0xBE20, symSize: 0x84 }
  - { offset: 0x41E0E, size: 0x8, addend: 0x0, symName: __ZN11uniffi_core3ffi10rustfuture18rust_future_cancel17hdaa49e8bf87409e2E, symObjAddr: 0xB28, symBinAddr: 0xBEA4, symSize: 0x84 }
  - { offset: 0x41E4C, size: 0x8, addend: 0x0, symName: __ZN11uniffi_core3ffi10rustfuture18rust_future_cancel17hef12886419ce350cE, symObjAddr: 0xBAC, symBinAddr: 0xBF28, symSize: 0x84 }
  - { offset: 0x41E8A, size: 0x8, addend: 0x0, symName: __ZN11uniffi_core3ffi10rustfuture20rust_future_complete17h0bb925a70307e92fE, symObjAddr: 0xC30, symBinAddr: 0xBFAC, symSize: 0x98 }
  - { offset: 0x41EDB, size: 0x8, addend: 0x0, symName: __ZN11uniffi_core3ffi10rustfuture20rust_future_complete17h13f242d9e4b45755E, symObjAddr: 0xCC8, symBinAddr: 0xC044, symSize: 0x98 }
  - { offset: 0x41F2C, size: 0x8, addend: 0x0, symName: __ZN11uniffi_core3ffi10rustfuture20rust_future_complete17h19dc0a6ac5d9a9f3E, symObjAddr: 0xD60, symBinAddr: 0xC0DC, symSize: 0x98 }
  - { offset: 0x41F7D, size: 0x8, addend: 0x0, symName: __ZN11uniffi_core3ffi10rustfuture20rust_future_complete17h4fc6b7baa6e2540bE, symObjAddr: 0xDF8, symBinAddr: 0xC174, symSize: 0x98 }
  - { offset: 0x41FCE, size: 0x8, addend: 0x0, symName: __ZN11uniffi_core3ffi10rustfuture20rust_future_complete17h6688147f10fa6ac4E, symObjAddr: 0xE90, symBinAddr: 0xC20C, symSize: 0x98 }
  - { offset: 0x4201F, size: 0x8, addend: 0x0, symName: __ZN11uniffi_core3ffi10rustfuture20rust_future_complete17h7776dfb9fc559334E, symObjAddr: 0xF28, symBinAddr: 0xC2A4, symSize: 0x90 }
  - { offset: 0x4206C, size: 0x8, addend: 0x0, symName: __ZN11uniffi_core3ffi10rustfuture20rust_future_complete17h8062b5eb6791a042E, symObjAddr: 0xFB8, symBinAddr: 0xC334, symSize: 0x98 }
  - { offset: 0x420BD, size: 0x8, addend: 0x0, symName: __ZN11uniffi_core3ffi10rustfuture20rust_future_complete17hafe0b324e4e12945E, symObjAddr: 0x1050, symBinAddr: 0xC3CC, symSize: 0x98 }
  - { offset: 0x4210E, size: 0x8, addend: 0x0, symName: __ZN11uniffi_core3ffi10rustfuture20rust_future_complete17hb694586534cb2892E, symObjAddr: 0x10E8, symBinAddr: 0xC464, symSize: 0x98 }
  - { offset: 0x4215F, size: 0x8, addend: 0x0, symName: __ZN11uniffi_core3ffi10rustfuture20rust_future_complete17hc2a8aa4848bba221E, symObjAddr: 0x1180, symBinAddr: 0xC4FC, symSize: 0x98 }
  - { offset: 0x421B0, size: 0x8, addend: 0x0, symName: __ZN11uniffi_core3ffi10rustfuture20rust_future_complete17hc6573cfc02854e95E, symObjAddr: 0x1218, symBinAddr: 0xC594, symSize: 0x98 }
  - { offset: 0x42201, size: 0x8, addend: 0x0, symName: __ZN11uniffi_core3ffi10rustfuture20rust_future_complete17hda12606f5193389aE, symObjAddr: 0x12B0, symBinAddr: 0xC62C, symSize: 0x98 }
  - { offset: 0x42252, size: 0x8, addend: 0x0, symName: __ZN11uniffi_core3ffi10rustfuture20rust_future_complete17heb9acb8d2fa2e155E, symObjAddr: 0x1348, symBinAddr: 0xC6C4, symSize: 0x98 }
  - { offset: 0x42405, size: 0x8, addend: 0x0, symName: __ZN4rand3rng3Rng3gen17h5ccbb1de06d60aebE, symObjAddr: 0x0, symBinAddr: 0xC75C, symSize: 0x30 }
  - { offset: 0x42425, size: 0x8, addend: 0x0, symName: __ZN4rand3rng3Rng3gen17h5ccbb1de06d60aebE, symObjAddr: 0x0, symBinAddr: 0xC75C, symSize: 0x30 }
  - { offset: 0x42812, size: 0x8, addend: 0x0, symName: __ZN11uniffi_core3ffi9rustcalls25rust_call_with_out_status17h204594901adc952dE, symObjAddr: 0x0, symBinAddr: 0xC78C, symSize: 0x220 }
  - { offset: 0x42857, size: 0x8, addend: 0x0, symName: __ZN11uniffi_core3ffi9rustcalls25rust_call_with_out_status17h204594901adc952dE, symObjAddr: 0x0, symBinAddr: 0xC78C, symSize: 0x220 }
  - { offset: 0x4298D, size: 0x8, addend: 0x0, symName: '__ZN11uniffi_core3ffi9rustcalls25rust_call_with_out_status28_$u7b$$u7b$closure$u7d$$u7d$17hdaaef0ed38f484b0E', symObjAddr: 0x220, symBinAddr: 0xC9AC, symSize: 0x270 }
  - { offset: 0x42AD3, size: 0x8, addend: 0x0, symName: __ZN11uniffi_core3ffi9rustcalls9rust_call17h9e1ba1a09d81240fE, symObjAddr: 0x490, symBinAddr: 0xCC1C, symSize: 0x38 }
  - { offset: 0x4359A, size: 0x8, addend: 0x0, symName: __ZN4core5slice3raw14from_raw_parts18precondition_check17h66d459cb43d32602E, symObjAddr: 0x0, symBinAddr: 0xCC54, symSize: 0x164 }
  - { offset: 0x43B2F, size: 0x8, addend: 0x0, symName: __ZN4core5slice3raw14from_raw_parts18precondition_check17h66d459cb43d32602E, symObjAddr: 0x0, symBinAddr: 0xCC54, symSize: 0x164 }
  - { offset: 0x43ECB, size: 0x8, addend: 0x0, symName: '__ZN5alloc4sync12Arc$LT$T$GT$22increment_strong_count17h35b8290f29cba248E', symObjAddr: 0x0, symBinAddr: 0xCDB8, symSize: 0x24 }
  - { offset: 0x45DDF, size: 0x8, addend: 0x0, symName: '__ZN68_$LT$alloc..sync..Arc$LT$T$C$A$GT$$u20$as$u20$core..clone..Clone$GT$5clone17h073bd336786f379eE', symObjAddr: 0x2A40, symBinAddr: 0xD0F8, symSize: 0x110 }
  - { offset: 0x45FD6, size: 0x8, addend: 0x0, symName: '__ZN73_$LT$alloc..sync..Arc$LT$T$C$A$GT$$u20$as$u20$core..ops..deref..Deref$GT$5deref17h01eba2e6abb62bc0E', symObjAddr: 0x3810, symBinAddr: 0xD208, symSize: 0x2C }
  - { offset: 0x460A7, size: 0x8, addend: 0x0, symName: '__ZN73_$LT$alloc..sync..Arc$LT$T$C$A$GT$$u20$as$u20$core..ops..deref..Deref$GT$5deref17h05a6416a6d5e1d1fE', symObjAddr: 0x383C, symBinAddr: 0xD234, symSize: 0x54 }
  - { offset: 0x46202, size: 0x8, addend: 0x0, symName: '__ZN5alloc4sync12Arc$LT$T$GT$22increment_strong_count17h35b8290f29cba248E', symObjAddr: 0x0, symBinAddr: 0xCDB8, symSize: 0x24 }
  - { offset: 0x463C7, size: 0x8, addend: 0x0, symName: '__ZN5alloc4sync12Arc$LT$T$GT$8from_raw17h1968712716475214E', symObjAddr: 0x1D4, symBinAddr: 0xCDDC, symSize: 0x24 }
  - { offset: 0x46549, size: 0x8, addend: 0x0, symName: '__ZN5alloc4sync16Arc$LT$T$C$A$GT$11from_raw_in17h084d64fd5713c14fE', symObjAddr: 0x3A8, symBinAddr: 0xCE00, symSize: 0x11C }
  - { offset: 0x46B39, size: 0x8, addend: 0x0, symName: '__ZN5alloc4sync16Arc$LT$T$C$A$GT$25increment_strong_count_in17h08a7f8a36827fe89E', symObjAddr: 0x1214, symBinAddr: 0xCF1C, symSize: 0x114 }
  - { offset: 0x46E3B, size: 0x8, addend: 0x0, symName: '__ZN5alloc4sync16Arc$LT$T$C$A$GT$9drop_slow17h0135037154476cddE', symObjAddr: 0x2018, symBinAddr: 0xD030, symSize: 0x50 }
  - { offset: 0x46F27, size: 0x8, addend: 0x0, symName: '__ZN5alloc4sync16Arc$LT$T$C$A$GT$9drop_slow17h0280188056ed851bE', symObjAddr: 0x2068, symBinAddr: 0xD080, symSize: 0x78 }
  - { offset: 0x47598, size: 0x8, addend: 0x0, symName: '__ZN115_$LT$core..panic..unwind_safe..AssertUnwindSafe$LT$F$GT$$u20$as$u20$core..ops..function..FnOnce$LT$$LP$$RP$$GT$$GT$9call_once17hf3f77b2e2202e605E', symObjAddr: 0x0, symBinAddr: 0xD288, symSize: 0x2C }
  - { offset: 0x475BE, size: 0x8, addend: 0x0, symName: '__ZN115_$LT$core..panic..unwind_safe..AssertUnwindSafe$LT$F$GT$$u20$as$u20$core..ops..function..FnOnce$LT$$LP$$RP$$GT$$GT$9call_once17hf3f77b2e2202e605E', symObjAddr: 0x0, symBinAddr: 0xD288, symSize: 0x2C }
  - { offset: 0x47747, size: 0x8, addend: 0x0, symName: __ZN11uniffi_core3ffi6handle6Handle10as_pointer17h09db7c132edfc688E, symObjAddr: 0x0, symBinAddr: 0xD2B4, symSize: 0x18 }
  - { offset: 0x48357, size: 0x8, addend: 0x0, symName: __ZN11uniffi_core3ffi6handle6Handle10as_pointer17h09db7c132edfc688E, symObjAddr: 0x0, symBinAddr: 0xD2B4, symSize: 0x18 }
  - { offset: 0x48697, size: 0x8, addend: 0x0, symName: '__ZN74_$LT$rand_core..block..BlockRng$LT$R$GT$$u20$as$u20$rand_core..RngCore$GT$8next_u3217hd97578f0292de461E', symObjAddr: 0x0, symBinAddr: 0xD2CC, symSize: 0xD8 }
  - { offset: 0x486B7, size: 0x8, addend: 0x0, symName: '__ZN74_$LT$rand_core..block..BlockRng$LT$R$GT$$u20$as$u20$rand_core..RngCore$GT$8next_u3217hd97578f0292de461E', symObjAddr: 0x0, symBinAddr: 0xD2CC, symSize: 0xD8 }
  - { offset: 0x488F6, size: 0x8, addend: 0x0, symName: '__ZN4core3num23_$LT$impl$u20$isize$GT$13unchecked_neg18precondition_check17h88db2260eafcc819E', symObjAddr: 0x0, symBinAddr: 0xD3A4, symSize: 0x4C }
  - { offset: 0x4893F, size: 0x8, addend: 0x0, symName: '__ZN4core3num23_$LT$impl$u20$isize$GT$13unchecked_neg18precondition_check17h88db2260eafcc819E', symObjAddr: 0x0, symBinAddr: 0xD3A4, symSize: 0x4C }
  - { offset: 0x489E7, size: 0x8, addend: 0x0, symName: __ZN4core4sync6atomic11AtomicUsize4load17h831e26e891210b40E, symObjAddr: 0x0, symBinAddr: 0xD3F0, symSize: 0x30 }
  - { offset: 0x48AAC, size: 0x8, addend: 0x0, symName: __ZN4core4sync6atomic11AtomicUsize4load17h831e26e891210b40E, symObjAddr: 0x0, symBinAddr: 0xD3F0, symSize: 0x30 }
  - { offset: 0x48AFF, size: 0x8, addend: 0x0, symName: __ZN4rand6random17h66bb6e6e88aa1b43E, symObjAddr: 0x0, symBinAddr: 0xD420, symSize: 0x68 }
  - { offset: 0x48B13, size: 0x8, addend: 0x0, symName: __ZN4rand6random17h66bb6e6e88aa1b43E, symObjAddr: 0x0, symBinAddr: 0xD420, symSize: 0x68 }
  - { offset: 0x48B62, size: 0x8, addend: 0x0, symName: '__ZN115_$LT$core..panic..unwind_safe..AssertUnwindSafe$LT$F$GT$$u20$as$u20$core..ops..function..FnOnce$LT$$LP$$RP$$GT$$GT$9call_once17h1096ec660f66eeeeE', symObjAddr: 0x0, symBinAddr: 0xD49C, symSize: 0x2C }
  - { offset: 0x48BBB, size: 0x8, addend: 0x0, symName: '__ZN70_$LT$core..num..error..TryFromIntError$u20$as$u20$core..fmt..Debug$GT$3fmt17h52aa4f16f2c9fb03E', symObjAddr: 0x2168, symBinAddr: 0xF394, symSize: 0x54 }
  - { offset: 0x48C23, size: 0x8, addend: 0x0, symName: '__ZN4core3num21_$LT$impl$u20$u16$GT$11to_le_bytes17h62904fdb533ba689E', symObjAddr: 0x1470, symBinAddr: 0xE8BC, symSize: 0x18 }
  - { offset: 0x490FA, size: 0x8, addend: 0x0, symName: '__ZN4core3cmp5impls54_$LT$impl$u20$core..cmp..PartialEq$u20$for$u20$u64$GT$2eq17h0a7a12d3ca1f5094E', symObjAddr: 0x11F8, symBinAddr: 0xE644, symSize: 0x2C }
  - { offset: 0x49141, size: 0x8, addend: 0x0, symName: '__ZN4core3cmp5impls50_$LT$impl$u20$core..cmp..Ord$u20$for$u20$usize$GT$3cmp17h9bb8ea6a4733d60cE', symObjAddr: 0x11C0, symBinAddr: 0xE60C, symSize: 0x38 }
  - { offset: 0x49189, size: 0x8, addend: 0x0, symName: __ZN4core3cmp10PartialOrd2le17hbe1bcfec4820e90fE, symObjAddr: 0x1144, symBinAddr: 0xE590, symSize: 0x7C }
  - { offset: 0x49A3B, size: 0x8, addend: 0x0, symName: '__ZN4core3ptr162drop_in_place$LT$core..result..Result$LT$uniffi_core..ffi..rustbuffer..RustBuffer$C$alloc..boxed..Box$LT$dyn$u20$core..any..Any$u2b$core..marker..Send$GT$$GT$$GT$17hfc7b47544fb80eedE', symObjAddr: 0x166C, symBinAddr: 0xEAB8, symSize: 0x40 }
  - { offset: 0x49A6D, size: 0x8, addend: 0x0, symName: '__ZN4core3ptr204drop_in_place$LT$uniffi_core..ffi..rustcalls..rust_call_with_out_status$LT$uniffi_core..ffi..rustbuffer..uniffi_rustbuffer_free..$u7b$$u7b$closure$u7d$$u7d$$C$$LP$$RP$$GT$..$u7b$$u7b$closure$u7d$$u7d$$GT$17h82e2f98c5e603a4aE', symObjAddr: 0x16AC, symBinAddr: 0xEAF8, symSize: 0x24 }
  - { offset: 0x49A9F, size: 0x8, addend: 0x0, symName: '__ZN4core3ptr237drop_in_place$LT$uniffi_core..ffi..rustcalls..rust_call_with_out_status$LT$uniffi_core..ffi..rustbuffer..uniffi_rustbuffer_alloc..$u7b$$u7b$closure$u7d$$u7d$$C$uniffi_core..ffi..rustbuffer..RustBuffer$GT$..$u7b$$u7b$closure$u7d$$u7d$$GT$17h7cba9c83ceda6b07E', symObjAddr: 0x16D0, symBinAddr: 0xEB1C, symSize: 0x24 }
  - { offset: 0x49AD1, size: 0x8, addend: 0x0, symName: '__ZN4core3ptr239drop_in_place$LT$uniffi_core..ffi..rustcalls..rust_call_with_out_status$LT$uniffi_core..ffi..rustbuffer..uniffi_rustbuffer_reserve..$u7b$$u7b$closure$u7d$$u7d$$C$uniffi_core..ffi..rustbuffer..RustBuffer$GT$..$u7b$$u7b$closure$u7d$$u7d$$GT$17h7420d0106382c42fE', symObjAddr: 0x16F4, symBinAddr: 0xEB40, symSize: 0x24 }
  - { offset: 0x49B03, size: 0x8, addend: 0x0, symName: '__ZN4core3ptr242drop_in_place$LT$uniffi_core..ffi..rustcalls..rust_call_with_out_status$LT$uniffi_core..ffi..rustbuffer..uniffi_rustbuffer_from_bytes..$u7b$$u7b$closure$u7d$$u7d$$C$uniffi_core..ffi..rustbuffer..RustBuffer$GT$..$u7b$$u7b$closure$u7d$$u7d$$GT$17hace0010b4f9bd217E', symObjAddr: 0x1718, symBinAddr: 0xEB64, symSize: 0x24 }
  - { offset: 0x49B35, size: 0x8, addend: 0x0, symName: '__ZN4core3ptr66drop_in_place$LT$dyn$u20$core..any..Any$u2b$core..marker..Send$GT$17h781f2399858163f4E', symObjAddr: 0x175C, symBinAddr: 0xEB88, symSize: 0x48 }
  - { offset: 0x49B9B, size: 0x8, addend: 0x0, symName: '__ZN4core3ptr7mut_ptr31_$LT$impl$u20$$BP$mut$u20$T$GT$7is_null17hcd5e324a87bfad06E', symObjAddr: 0x17A4, symBinAddr: 0xEBD0, symSize: 0x1C }
  - { offset: 0x49C03, size: 0x8, addend: 0x0, symName: '__ZN4core3ptr91drop_in_place$LT$alloc..boxed..Box$LT$dyn$u20$core..any..Any$u2b$core..marker..Send$GT$$GT$17h60ef4c2279cc58b5E', symObjAddr: 0x17C0, symBinAddr: 0xEBEC, symSize: 0x80 }
  - { offset: 0x49E8E, size: 0x8, addend: 0x0, symName: '__ZN115_$LT$core..panic..unwind_safe..AssertUnwindSafe$LT$F$GT$$u20$as$u20$core..ops..function..FnOnce$LT$$LP$$RP$$GT$$GT$9call_once17h1096ec660f66eeeeE', symObjAddr: 0x0, symBinAddr: 0xD49C, symSize: 0x2C }
  - { offset: 0x49EEE, size: 0x8, addend: 0x0, symName: '__ZN115_$LT$core..panic..unwind_safe..AssertUnwindSafe$LT$F$GT$$u20$as$u20$core..ops..function..FnOnce$LT$$LP$$RP$$GT$$GT$9call_once17h5a20919676831524E', symObjAddr: 0x2C, symBinAddr: 0xD4C8, symSize: 0x2C }
  - { offset: 0x49F4E, size: 0x8, addend: 0x0, symName: '__ZN115_$LT$core..panic..unwind_safe..AssertUnwindSafe$LT$F$GT$$u20$as$u20$core..ops..function..FnOnce$LT$$LP$$RP$$GT$$GT$9call_once17hddf090e9e63498d9E', symObjAddr: 0x58, symBinAddr: 0xD4F4, symSize: 0x2C }
  - { offset: 0x49FAE, size: 0x8, addend: 0x0, symName: '__ZN115_$LT$core..panic..unwind_safe..AssertUnwindSafe$LT$F$GT$$u20$as$u20$core..ops..function..FnOnce$LT$$LP$$RP$$GT$$GT$9call_once17hf769c7f4f885bb41E', symObjAddr: 0x84, symBinAddr: 0xD520, symSize: 0x2C }
  - { offset: 0x4A18F, size: 0x8, addend: 0x0, symName: '__ZN31_$LT$dyn$u20$core..any..Any$GT$2is17h22e374eb44cfc39aE', symObjAddr: 0xB0, symBinAddr: 0xD54C, symSize: 0x10C }
  - { offset: 0x4A30B, size: 0x8, addend: 0x0, symName: '__ZN31_$LT$dyn$u20$core..any..Any$GT$2is17h6c857f6ba0eb593cE', symObjAddr: 0x1BC, symBinAddr: 0xD658, symSize: 0x10C }
  - { offset: 0x4A4E4, size: 0x8, addend: 0x0, symName: '__ZN54_$LT$dyn$u20$core..any..Any$u2b$core..marker..Send$GT$12downcast_ref17h4cec26d14673bc60E', symObjAddr: 0x1DF4, symBinAddr: 0xF1D0, symSize: 0x60 }
  - { offset: 0x4A54D, size: 0x8, addend: 0x0, symName: '__ZN54_$LT$dyn$u20$core..any..Any$u2b$core..marker..Send$GT$12downcast_ref17h86dad8788d15fee9E', symObjAddr: 0x1E54, symBinAddr: 0xF230, symSize: 0x60 }
  - { offset: 0x4AA8D, size: 0x8, addend: 0x0, symName: '__ZN90_$LT$core..mem..manually_drop..ManuallyDrop$LT$T$GT$$u20$as$u20$core..default..Default$GT$7default17hb4cfcd1a29b1f7fcE', symObjAddr: 0x22B8, symBinAddr: 0xF4E4, symSize: 0x38 }
  - { offset: 0x4AB92, size: 0x8, addend: 0x0, symName: __ZN4core3mem4drop17h5edb076c6c0bdc50E, symObjAddr: 0x1424, symBinAddr: 0xE870, symSize: 0x14 }
  - { offset: 0x4ABC9, size: 0x8, addend: 0x0, symName: __ZN4core3mem7replace17h35fa007a65155cbdE, symObjAddr: 0x1438, symBinAddr: 0xE884, symSize: 0x38 }
  - { offset: 0x4B2EF, size: 0x8, addend: 0x0, symName: '__ZN4core3str21_$LT$impl$u20$str$GT$3len17hac67a3daeaf4e715E', symObjAddr: 0x1840, symBinAddr: 0xEC6C, symSize: 0x1C }
  - { offset: 0x4B325, size: 0x8, addend: 0x0, symName: __ZN4core10intrinsics11size_of_val17h9b70ce6e64cfceb5E, symObjAddr: 0x1124, symBinAddr: 0xE570, symSize: 0x10 }
  - { offset: 0x4B35F, size: 0x8, addend: 0x0, symName: __ZN4core10intrinsics16min_align_of_val17he9d020f7d1300165E, symObjAddr: 0x1134, symBinAddr: 0xE580, symSize: 0x10 }
  - { offset: 0x4BB3F, size: 0x8, addend: 0x0, symName: __ZN4core3ops8function6FnOnce9call_once17h07852ca5771874faE, symObjAddr: 0x1488, symBinAddr: 0xE8D4, symSize: 0x2C }
  - { offset: 0x4BB88, size: 0x8, addend: 0x0, symName: __ZN4core3ops8function6FnOnce9call_once17h4070b2a460e35b42E, symObjAddr: 0x14B4, symBinAddr: 0xE900, symSize: 0x1C }
  - { offset: 0x4BBCD, size: 0x8, addend: 0x0, symName: __ZN4core3ops8function6FnOnce9call_once17h59a471aed3b150feE, symObjAddr: 0x14D0, symBinAddr: 0xE91C, symSize: 0x60 }
  - { offset: 0x4BC16, size: 0x8, addend: 0x0, symName: __ZN4core3ops8function6FnOnce9call_once17h950875a3df90523eE, symObjAddr: 0x1530, symBinAddr: 0xE97C, symSize: 0x60 }
  - { offset: 0x4BC5F, size: 0x8, addend: 0x0, symName: __ZN4core3ops8function6FnOnce9call_once17hb02a6e65532a8635E, symObjAddr: 0x1590, symBinAddr: 0xE9DC, symSize: 0x60 }
  - { offset: 0x4BCA8, size: 0x8, addend: 0x0, symName: __ZN4core3ops8function6FnOnce9call_once17hd1a05bba559dacccE, symObjAddr: 0x15F0, symBinAddr: 0xEA3C, symSize: 0x1C }
  - { offset: 0x4BCF1, size: 0x8, addend: 0x0, symName: __ZN4core3ops8function6FnOnce9call_once17hfb3cda30e1f1ba37E, symObjAddr: 0x160C, symBinAddr: 0xEA58, symSize: 0x60 }
  - { offset: 0x4BF61, size: 0x8, addend: 0x0, symName: __ZN4core5slice3raw14from_raw_parts18precondition_check17h5d36bf0920af1de2E, symObjAddr: 0x1948, symBinAddr: 0xED44, symSize: 0x164 }
  - { offset: 0x4C16D, size: 0x8, addend: 0x0, symName: '__ZN4core5array85_$LT$impl$u20$core..ops..index..Index$LT$I$GT$$u20$for$u20$$u5b$T$u3b$$u20$N$u5d$$GT$5index17hbb8e70957b768a9cE', symObjAddr: 0x188C, symBinAddr: 0xEC88, symSize: 0xBC }
  - { offset: 0x4C3AA, size: 0x8, addend: 0x0, symName: '__ZN4core7convert3num18ptr_try_from_impls69_$LT$impl$u20$core..convert..TryFrom$LT$i32$GT$$u20$for$u20$usize$GT$8try_from17hdeec86ff8f9eb401E', symObjAddr: 0x1D18, symBinAddr: 0xF114, symSize: 0x5C }
  - { offset: 0x4C3DF, size: 0x8, addend: 0x0, symName: '__ZN4core7convert3num18ptr_try_from_impls69_$LT$impl$u20$core..convert..TryFrom$LT$u64$GT$$u20$for$u20$usize$GT$8try_from17ha30e2490641db648E', symObjAddr: 0x1D74, symBinAddr: 0xF170, symSize: 0x20 }
  - { offset: 0x4C416, size: 0x8, addend: 0x0, symName: '__ZN53_$LT$T$u20$as$u20$core..convert..TryInto$LT$U$GT$$GT$8try_into17h8d0a2d5bd19f3afbE', symObjAddr: 0x1DB4, symBinAddr: 0xF190, symSize: 0x20 }
  - { offset: 0x4C45A, size: 0x8, addend: 0x0, symName: '__ZN53_$LT$T$u20$as$u20$core..convert..TryInto$LT$U$GT$$GT$8try_into17hb4972bf071c70c99E', symObjAddr: 0x1DD4, symBinAddr: 0xF1B0, symSize: 0x20 }
  - { offset: 0x4C5E8, size: 0x8, addend: 0x0, symName: __ZN3log13__private_api3log17h51953cf630608909E, symObjAddr: 0x2C8, symBinAddr: 0xD764, symSize: 0x6C }
  - { offset: 0x4C651, size: 0x8, addend: 0x0, symName: '__ZN3log13__private_api70_$LT$impl$u20$log..__private_api..sealed..KVs$u20$for$u20$$LP$$RP$$GT$8into_kvs17hbfcdc4eb333fc205E', symObjAddr: 0x334, symBinAddr: 0xD7D0, symSize: 0x18 }
  - { offset: 0x4C692, size: 0x8, addend: 0x0, symName: '__ZN76_$LT$log..Level$u20$as$u20$core..cmp..PartialOrd$LT$log..LevelFilter$GT$$GT$11partial_cmp17h5a9a0a37fe64507cE', symObjAddr: 0x225C, symBinAddr: 0xF488, symSize: 0x5C }
  - { offset: 0x4C907, size: 0x8, addend: 0x0, symName: '__ZN11uniffi_core3ffi9rustcalls25rust_call_with_out_status28_$u7b$$u7b$closure$u7d$$u7d$17h04416cfb6e2b15f1E', symObjAddr: 0x3830, symBinAddr: 0x10A5C, symSize: 0x270 }
  - { offset: 0x4CA4C, size: 0x8, addend: 0x0, symName: '__ZN11uniffi_core3ffi9rustcalls25rust_call_with_out_status28_$u7b$$u7b$closure$u7d$$u7d$17h0f997b47c3b288c9E', symObjAddr: 0x3AA0, symBinAddr: 0x10CCC, symSize: 0x270 }
  - { offset: 0x4CB91, size: 0x8, addend: 0x0, symName: '__ZN11uniffi_core3ffi9rustcalls25rust_call_with_out_status28_$u7b$$u7b$closure$u7d$$u7d$17h47f6de1cefad6aadE', symObjAddr: 0x3D10, symBinAddr: 0x10F3C, symSize: 0x270 }
  - { offset: 0x4CCD6, size: 0x8, addend: 0x0, symName: '__ZN11uniffi_core3ffi9rustcalls25rust_call_with_out_status28_$u7b$$u7b$closure$u7d$$u7d$17h7fd5d0f046d5b0b1E', symObjAddr: 0x3F80, symBinAddr: 0x111AC, symSize: 0x270 }
  - { offset: 0x4CE22, size: 0x8, addend: 0x0, symName: '__ZN86_$LT$uniffi_core..ffi..rustcalls..RustCallStatus$u20$as$u20$core..default..Default$GT$7default17hefb707ffc38916b9E', symObjAddr: 0x2D10, symBinAddr: 0xFF3C, symSize: 0x44 }
  - { offset: 0x4CE7B, size: 0x8, addend: 0x0, symName: '__ZN100_$LT$uniffi_core..ffi..rustcalls..RustCallStatusCode$u20$as$u20$core..convert..TryFrom$LT$i8$GT$$GT$8try_from17h4def953a52fd62f9E', symObjAddr: 0x2D9C, symBinAddr: 0xFFC8, symSize: 0xD8 }
  - { offset: 0x4CEC8, size: 0x8, addend: 0x0, symName: __ZN11uniffi_core3ffi9rustcalls9rust_call17h5a93d192c34e05f6E, symObjAddr: 0x2E74, symBinAddr: 0x100A0, symSize: 0x4C }
  - { offset: 0x4CF19, size: 0x8, addend: 0x0, symName: __ZN11uniffi_core3ffi9rustcalls9rust_call17h6c7b83a3a1fecad4E, symObjAddr: 0x2EC0, symBinAddr: 0x100EC, symSize: 0x44 }
  - { offset: 0x4CF6B, size: 0x8, addend: 0x0, symName: __ZN11uniffi_core3ffi9rustcalls9rust_call17hb8e45b780ff00524E, symObjAddr: 0x2F04, symBinAddr: 0x10130, symSize: 0x30 }
  - { offset: 0x4CFB9, size: 0x8, addend: 0x0, symName: __ZN11uniffi_core3ffi9rustcalls9rust_call17hd4caec5c220e10c2E, symObjAddr: 0x2F34, symBinAddr: 0x10160, symSize: 0x4C }
  - { offset: 0x4D00A, size: 0x8, addend: 0x0, symName: __ZN11uniffi_core3ffi9rustcalls25rust_call_with_out_status17h449404add5a4ba47E, symObjAddr: 0x2F80, symBinAddr: 0x101AC, symSize: 0x21C }
  - { offset: 0x4D13A, size: 0x8, addend: 0x0, symName: __ZN11uniffi_core3ffi9rustcalls25rust_call_with_out_status17h90cddb32337d85a1E, symObjAddr: 0x319C, symBinAddr: 0x103C8, symSize: 0x22C }
  - { offset: 0x4D26A, size: 0x8, addend: 0x0, symName: __ZN11uniffi_core3ffi9rustcalls25rust_call_with_out_status17h978f86fd08241cfcE, symObjAddr: 0x33C8, symBinAddr: 0x105F4, symSize: 0x234 }
  - { offset: 0x4D39A, size: 0x8, addend: 0x0, symName: __ZN11uniffi_core3ffi9rustcalls25rust_call_with_out_status17hdd7f8d7aba797a5bE, symObjAddr: 0x35FC, symBinAddr: 0x10828, symSize: 0x234 }
  - { offset: 0x4D4F6, size: 0x8, addend: 0x0, symName: '__ZN11uniffi_core3ffi10rustbuffer25uniffi_rustbuffer_reserve28_$u7b$$u7b$closure$u7d$$u7d$17hb4fd304700f28fe9E', symObjAddr: 0x2C08, symBinAddr: 0xFE34, symSize: 0x108 }
  - { offset: 0x4D692, size: 0x8, addend: 0x0, symName: '__ZN11uniffi_core3ffi10rustbuffer23uniffi_rustbuffer_alloc28_$u7b$$u7b$closure$u7d$$u7d$17h7e0c41d6bf4cf721E', symObjAddr: 0x2A48, symBinAddr: 0xFC74, symSize: 0x4C }
  - { offset: 0x4D6DD, size: 0x8, addend: 0x0, symName: '__ZN11uniffi_core3ffi10rustbuffer22uniffi_rustbuffer_free28_$u7b$$u7b$closure$u7d$$u7d$17hfda452089730278bE', symObjAddr: 0x2B78, symBinAddr: 0xFDA4, symSize: 0x44 }
  - { offset: 0x4D728, size: 0x8, addend: 0x0, symName: '__ZN11uniffi_core3ffi10rustbuffer28uniffi_rustbuffer_from_bytes28_$u7b$$u7b$closure$u7d$$u7d$17ha776a2b550a25f49E', symObjAddr: 0x2AD0, symBinAddr: 0xFCFC, symSize: 0x68 }
  - { offset: 0x4D77E, size: 0x8, addend: 0x0, symName: '__ZN83_$LT$uniffi_core..ffi..rustbuffer..RustBuffer$u20$as$u20$core..default..Default$GT$7default17h35ca762ec27a83eaE', symObjAddr: 0x2A00, symBinAddr: 0xFC2C, symSize: 0x14 }
  - { offset: 0x4D79D, size: 0x8, addend: 0x0, symName: __ZN11uniffi_core3ffi10rustbuffer23uniffi_rustbuffer_alloc17h2a36123bbfdf212dE, symObjAddr: 0x2A14, symBinAddr: 0xFC40, symSize: 0x34 }
  - { offset: 0x4D7DA, size: 0x8, addend: 0x0, symName: __ZN11uniffi_core3ffi10rustbuffer28uniffi_rustbuffer_from_bytes17h1da2854771028d65E, symObjAddr: 0x2A94, symBinAddr: 0xFCC0, symSize: 0x3C }
  - { offset: 0x4D817, size: 0x8, addend: 0x0, symName: __ZN11uniffi_core3ffi10rustbuffer22uniffi_rustbuffer_free17hcdb102f57498152cE, symObjAddr: 0x2B38, symBinAddr: 0xFD64, symSize: 0x40 }
  - { offset: 0x4D851, size: 0x8, addend: 0x0, symName: __ZN11uniffi_core3ffi10rustbuffer25uniffi_rustbuffer_reserve17h61cf47bf970e16beE, symObjAddr: 0x2BBC, symBinAddr: 0xFDE8, symSize: 0x4C }
  - { offset: 0x4D937, size: 0x8, addend: 0x0, symName: '__ZN105_$LT$uniffi_core..ffi..callbackinterface..UnexpectedUniFFICallbackError$u20$as$u20$core..fmt..Display$GT$3fmt17hed2fdad324e6350cE', symObjAddr: 0x22F0, symBinAddr: 0xF51C, symSize: 0x84 }
  - { offset: 0x4DA1D, size: 0x8, addend: 0x0, symName: '__ZN69_$LT$$LP$$RP$$u20$as$u20$uniffi_core..ffi..ffidefault..FfiDefault$GT$11ffi_default17h9c757bc4027b9ed4E', symObjAddr: 0x2374, symBinAddr: 0xF5A0, symSize: 0x4 }
  - { offset: 0x4DA3E, size: 0x8, addend: 0x0, symName: '__ZN93_$LT$uniffi_core..ffi..handle..Handle$u20$as$u20$uniffi_core..ffi..ffidefault..FfiDefault$GT$11ffi_default17h0c9635ec9eaf794aE', symObjAddr: 0x2378, symBinAddr: 0xF5A4, symSize: 0x14 }
  - { offset: 0x4DA63, size: 0x8, addend: 0x0, symName: '__ZN92_$LT$$BP$const$u20$core..ffi..c_void$u20$as$u20$uniffi_core..ffi..ffidefault..FfiDefault$GT$11ffi_default17h13ad9c112bf0c544E', symObjAddr: 0x238C, symBinAddr: 0xF5B8, symSize: 0x18 }
  - { offset: 0x4DAFD, size: 0x8, addend: 0x0, symName: '__ZN101_$LT$uniffi_core..ffi..rustbuffer..RustBuffer$u20$as$u20$uniffi_core..ffi..ffidefault..FfiDefault$GT$11ffi_default17h26615cd804a9dc3bE', symObjAddr: 0x23A4, symBinAddr: 0xF5D0, symSize: 0x30 }
  - { offset: 0x4DB97, size: 0x8, addend: 0x0, symName: '__ZN107_$LT$uniffi_core..ffi..foreignfuture..ForeignFuture$u20$as$u20$uniffi_core..ffi..ffidefault..FfiDefault$GT$11ffi_default17ha8258516d69041e1E', symObjAddr: 0x23D4, symBinAddr: 0xF600, symSize: 0x10 }
  - { offset: 0x4DBBB, size: 0x8, addend: 0x0, symName: '__ZN107_$LT$uniffi_core..ffi..foreignfuture..ForeignFuture$u20$as$u20$uniffi_core..ffi..ffidefault..FfiDefault$GT$11ffi_default4free17h08d36c798ad0f6f7E', symObjAddr: 0x23E4, symBinAddr: 0xF610, symSize: 0x10 }
  - { offset: 0x4DBED, size: 0x8, addend: 0x0, symName: '__ZN65_$LT$bool$u20$as$u20$uniffi_core..ffi..ffidefault..FfiDefault$GT$11ffi_default17h3d687813eab73c86E', symObjAddr: 0x5954, symBinAddr: 0x12B80, symSize: 0xC }
  - { offset: 0x4DC12, size: 0x8, addend: 0x0, symName: '__ZN63_$LT$i8$u20$as$u20$uniffi_core..ffi..ffidefault..FfiDefault$GT$11ffi_default17h29c2751d6f3a9b02E', symObjAddr: 0x5960, symBinAddr: 0x12B8C, symSize: 0x8 }
  - { offset: 0x4DC37, size: 0x8, addend: 0x0, symName: '__ZN63_$LT$u8$u20$as$u20$uniffi_core..ffi..ffidefault..FfiDefault$GT$11ffi_default17h33b29a65c8d14488E', symObjAddr: 0x5968, symBinAddr: 0x12B94, symSize: 0x8 }
  - { offset: 0x4DC5C, size: 0x8, addend: 0x0, symName: '__ZN64_$LT$i16$u20$as$u20$uniffi_core..ffi..ffidefault..FfiDefault$GT$11ffi_default17h8dc3561d6a074619E', symObjAddr: 0x5970, symBinAddr: 0x12B9C, symSize: 0x8 }
  - { offset: 0x4DC81, size: 0x8, addend: 0x0, symName: '__ZN64_$LT$u16$u20$as$u20$uniffi_core..ffi..ffidefault..FfiDefault$GT$11ffi_default17h537b94147a75e6e9E', symObjAddr: 0x5978, symBinAddr: 0x12BA4, symSize: 0x8 }
  - { offset: 0x4DCA6, size: 0x8, addend: 0x0, symName: '__ZN64_$LT$i32$u20$as$u20$uniffi_core..ffi..ffidefault..FfiDefault$GT$11ffi_default17h07c8a00665606537E', symObjAddr: 0x5980, symBinAddr: 0x12BAC, symSize: 0x8 }
  - { offset: 0x4DCCB, size: 0x8, addend: 0x0, symName: '__ZN64_$LT$u32$u20$as$u20$uniffi_core..ffi..ffidefault..FfiDefault$GT$11ffi_default17h296a8774262eb2d4E', symObjAddr: 0x5988, symBinAddr: 0x12BB4, symSize: 0x8 }
  - { offset: 0x4DCF0, size: 0x8, addend: 0x0, symName: '__ZN64_$LT$i64$u20$as$u20$uniffi_core..ffi..ffidefault..FfiDefault$GT$11ffi_default17hcd5ed9288c430c1eE', symObjAddr: 0x5990, symBinAddr: 0x12BBC, symSize: 0x8 }
  - { offset: 0x4DD15, size: 0x8, addend: 0x0, symName: '__ZN64_$LT$u64$u20$as$u20$uniffi_core..ffi..ffidefault..FfiDefault$GT$11ffi_default17h5e050b911ae98227E', symObjAddr: 0x5998, symBinAddr: 0x12BC4, symSize: 0x8 }
  - { offset: 0x4DD3A, size: 0x8, addend: 0x0, symName: '__ZN64_$LT$f32$u20$as$u20$uniffi_core..ffi..ffidefault..FfiDefault$GT$11ffi_default17h75fbb24901e1c6cdE', symObjAddr: 0x59A0, symBinAddr: 0x12BCC, symSize: 0x8 }
  - { offset: 0x4DD5F, size: 0x8, addend: 0x0, symName: '__ZN64_$LT$f64$u20$as$u20$uniffi_core..ffi..ffidefault..FfiDefault$GT$11ffi_default17h0a48570fca4304bdE', symObjAddr: 0x59A8, symBinAddr: 0x12BD4, symSize: 0x8 }
  - { offset: 0x4DD8B, size: 0x8, addend: 0x0, symName: '__ZN88_$LT$uniffi_core..ffi..foreignfuture..ForeignFuture$u20$as$u20$core..ops..drop..Drop$GT$4drop17he357e49f8a2c2f47E', symObjAddr: 0x2524, symBinAddr: 0xF750, symSize: 0x2C }
  - { offset: 0x4DE40, size: 0x8, addend: 0x0, symName: '__ZN75_$LT$uniffi_core..ffi..handle..Handle$u20$as$u20$core..default..Default$GT$7default17h53a96dd07fe624bdE', symObjAddr: 0x59B0, symBinAddr: 0x12BDC, symSize: 0x8 }
  - { offset: 0x4DE6D, size: 0x8, addend: 0x0, symName: '__ZN11uniffi_core19ffi_converter_impls109_$LT$impl$u20$uniffi_core..ffi_converter_traits..FfiConverter$LT$UT$GT$$u20$for$u20$alloc..string..String$GT$5lower17hf523423b6b8420adE', symObjAddr: 0x451C, symBinAddr: 0x11748, symSize: 0x34 }
  - { offset: 0x4DEAD, size: 0x8, addend: 0x0, symName: '__ZN11uniffi_core19ffi_converter_impls102_$LT$impl$u20$uniffi_core..ffi_converter_traits..Lower$LT$UT$GT$$u20$for$u20$alloc..string..String$GT$5lower17hb6fa2728da4e49f6E', symObjAddr: 0x59B8, symBinAddr: 0x12BE4, symSize: 0x14 }
  - { offset: 0x4DFFA, size: 0x8, addend: 0x0, symName: '__ZN98_$LT$uniffi_core..metadata..MetadataBuffer$u20$as$u20$core..convert..AsRef$LT$$u5b$u8$u5d$$GT$$GT$6as_ref17he96a8a6c51c8ef15E', symObjAddr: 0x50A8, symBinAddr: 0x122D4, symSize: 0x30 }
  - { offset: 0x4E029, size: 0x8, addend: 0x0, symName: __ZN11uniffi_core8metadata17checksum_metadata17hc7f62cda5e83c330E, symObjAddr: 0x50D8, symBinAddr: 0x12304, symSize: 0x30 }
  - { offset: 0x4E057, size: 0x8, addend: 0x0, symName: __ZN11uniffi_core8metadata13calc_checksum17h71998caaf3451ed2E, symObjAddr: 0x5108, symBinAddr: 0x12334, symSize: 0x118 }
  - { offset: 0x4E0F1, size: 0x8, addend: 0x0, symName: __ZN11uniffi_core24check_compatible_version17h22969d59e2ceac11E, symObjAddr: 0x5220, symBinAddr: 0x1244C, symSize: 0x61C }
  - { offset: 0x4E15E, size: 0x8, addend: 0x0, symName: __ZN11uniffi_core15check_remaining17hb2a0613f25f6994dE, symObjAddr: 0x583C, symBinAddr: 0x12A68, symSize: 0x118 }
  - { offset: 0x4E371, size: 0x8, addend: 0x0, symName: '__ZN58_$LT$alloc..string..String$u20$as$u20$core..fmt..Debug$GT$3fmt17hefbc11cff58bc1ceE', symObjAddr: 0x1EB4, symBinAddr: 0xF290, symSize: 0x8C }
  - { offset: 0x4E850, size: 0x8, addend: 0x0, symName: '__ZN5alloc3fmt6format28_$u7b$$u7b$closure$u7d$$u7d$17h7260e649c7d0ccfbE', symObjAddr: 0x2014, symBinAddr: 0xF31C, symSize: 0x48 }
  - { offset: 0x4E890, size: 0x8, addend: 0x0, symName: '__ZN72_$LT$alloc..boxed..Box$LT$T$C$A$GT$$u20$as$u20$core..ops..drop..Drop$GT$4drop17h6814fbff70a10e5eE', symObjAddr: 0x21BC, symBinAddr: 0xF3E8, symSize: 0xA0 }
  - { offset: 0x4EE26, size: 0x8, addend: 0x0, symName: __ZN3std9panicking3try7do_call17h18dd9b9c1b7d67a7E, symObjAddr: 0x984, symBinAddr: 0xDE20, symSize: 0x7C }
  - { offset: 0x4EF52, size: 0x8, addend: 0x0, symName: __ZN3std9panicking3try7do_call17h2cd1d98a072bcf2eE, symObjAddr: 0xA00, symBinAddr: 0xDE9C, symSize: 0x70 }
  - { offset: 0x4F07E, size: 0x8, addend: 0x0, symName: __ZN3std9panicking3try7do_call17h2d8b70661e43a3c6E, symObjAddr: 0xA70, symBinAddr: 0xDF0C, symSize: 0x80 }
  - { offset: 0x4F1AA, size: 0x8, addend: 0x0, symName: __ZN3std9panicking3try7do_call17h714655351cbb1667E, symObjAddr: 0xAF0, symBinAddr: 0xDF8C, symSize: 0x7C }
  - { offset: 0x4F2D6, size: 0x8, addend: 0x0, symName: __ZN3std9panicking3try7do_call17h856b64b5e306b57eE, symObjAddr: 0xB6C, symBinAddr: 0xE008, symSize: 0x80 }
  - { offset: 0x4F402, size: 0x8, addend: 0x0, symName: __ZN3std9panicking3try7do_call17hd39eea3bea33313aE, symObjAddr: 0xBEC, symBinAddr: 0xE088, symSize: 0x7C }
  - { offset: 0x4F52E, size: 0x8, addend: 0x0, symName: __ZN3std9panicking3try7do_call17hd71557492fe4b48fE, symObjAddr: 0xC68, symBinAddr: 0xE104, symSize: 0x7C }
  - { offset: 0x4F65A, size: 0x8, addend: 0x0, symName: __ZN3std9panicking3try7do_call17hf99cc4ab659494f7E, symObjAddr: 0xCE4, symBinAddr: 0xE180, symSize: 0x70 }
  - { offset: 0x4F786, size: 0x8, addend: 0x0, symName: __ZN3std9panicking3try8do_catch17h0d45d5ce3b7c9820E, symObjAddr: 0xD54, symBinAddr: 0xE1F0, symSize: 0x70 }
  - { offset: 0x4F826, size: 0x8, addend: 0x0, symName: __ZN3std9panicking3try8do_catch17h41fa694f4cd3f219E, symObjAddr: 0xDC4, symBinAddr: 0xE260, symSize: 0x70 }
  - { offset: 0x4F8C6, size: 0x8, addend: 0x0, symName: __ZN3std9panicking3try8do_catch17h5c476d890bb21d12E, symObjAddr: 0xE34, symBinAddr: 0xE2D0, symSize: 0x70 }
  - { offset: 0x4F966, size: 0x8, addend: 0x0, symName: __ZN3std9panicking3try8do_catch17h81d990f4a05332f4E, symObjAddr: 0xEA4, symBinAddr: 0xE340, symSize: 0x70 }
  - { offset: 0x4FA06, size: 0x8, addend: 0x0, symName: __ZN3std9panicking3try8do_catch17had3eecdfea53eb49E, symObjAddr: 0xF14, symBinAddr: 0xE3B0, symSize: 0x70 }
  - { offset: 0x4FAA6, size: 0x8, addend: 0x0, symName: __ZN3std9panicking3try8do_catch17hc2917b32f5599327E, symObjAddr: 0xF84, symBinAddr: 0xE420, symSize: 0x70 }
  - { offset: 0x4FB46, size: 0x8, addend: 0x0, symName: __ZN3std9panicking3try8do_catch17he2a2d6871c1e11f9E, symObjAddr: 0xFF4, symBinAddr: 0xE490, symSize: 0x70 }
  - { offset: 0x4FBE6, size: 0x8, addend: 0x0, symName: __ZN3std9panicking3try8do_catch17hfe694e9281154df4E, symObjAddr: 0x1064, symBinAddr: 0xE500, symSize: 0x70 }
  - { offset: 0x4FEFD, size: 0x8, addend: 0x0, symName: __ZN3std5panic12catch_unwind17h0198dc06c7ce9096E, symObjAddr: 0x34C, symBinAddr: 0xD7E8, symSize: 0xCC }
  - { offset: 0x50000, size: 0x8, addend: 0x0, symName: __ZN3std5panic12catch_unwind17h2eae45eef9a64ebeE, symObjAddr: 0x418, symBinAddr: 0xD8B4, symSize: 0xCC }
  - { offset: 0x500D3, size: 0x8, addend: 0x0, symName: __ZN3std5panic12catch_unwind17h435efb48718b7bd1E, symObjAddr: 0x4E4, symBinAddr: 0xD980, symSize: 0xCC }
  - { offset: 0x501A6, size: 0x8, addend: 0x0, symName: __ZN3std5panic12catch_unwind17h79384ff51b30551eE, symObjAddr: 0x5B0, symBinAddr: 0xDA4C, symSize: 0xB8 }
  - { offset: 0x50279, size: 0x8, addend: 0x0, symName: __ZN3std5panic12catch_unwind17hb1f8b87dc3577c9eE, symObjAddr: 0x668, symBinAddr: 0xDB04, symSize: 0xCC }
  - { offset: 0x5037C, size: 0x8, addend: 0x0, symName: __ZN3std5panic12catch_unwind17hcb843dc61a2a3411E, symObjAddr: 0x734, symBinAddr: 0xDBD0, symSize: 0xCC }
  - { offset: 0x5044F, size: 0x8, addend: 0x0, symName: __ZN3std5panic12catch_unwind17hf11ee77fb888da56E, symObjAddr: 0x800, symBinAddr: 0xDC9C, symSize: 0xCC }
  - { offset: 0x50522, size: 0x8, addend: 0x0, symName: __ZN3std5panic12catch_unwind17hf581089fb5ec91ccE, symObjAddr: 0x8CC, symBinAddr: 0xDD68, symSize: 0xB8 }
  - { offset: 0x50F26, size: 0x8, addend: 0x0, symName: __ZN4core3fmt9Arguments6new_v117hd358bbd8fcb36ab3E, symObjAddr: 0x1224, symBinAddr: 0xE670, symSize: 0x54 }
  - { offset: 0x50FF9, size: 0x8, addend: 0x0, symName: __ZN4core3fmt9Formatter9write_fmt17hb1b0a59cb7b97a95E, symObjAddr: 0x1278, symBinAddr: 0xE6C4, symSize: 0x1AC }
  - { offset: 0x5117D, size: 0x8, addend: 0x0, symName: '__ZN4core6option15Option$LT$T$GT$11map_or_else17he75f5bb9e5ded1f5E', symObjAddr: 0x1AAC, symBinAddr: 0xEEA8, symSize: 0xCC }
  - { offset: 0x51228, size: 0x8, addend: 0x0, symName: '__ZN4core6option15Option$LT$T$GT$14unwrap_or_else17h9769359d3082fe83E', symObjAddr: 0x1B78, symBinAddr: 0xEF74, symSize: 0x34 }
  - { offset: 0x51285, size: 0x8, addend: 0x0, symName: '__ZN4core6option15Option$LT$T$GT$14unwrap_or_else17hd5aaea694d53c1a0E', symObjAddr: 0x1BAC, symBinAddr: 0xEFA8, symSize: 0x64 }
  - { offset: 0x512EF, size: 0x8, addend: 0x0, symName: '__ZN4core6result19Result$LT$T$C$E$GT$6expect17h829264160fa6d755E', symObjAddr: 0x1C10, symBinAddr: 0xF00C, symSize: 0x84 }
  - { offset: 0x51357, size: 0x8, addend: 0x0, symName: '__ZN4core6result19Result$LT$T$C$E$GT$6expect17h8e0d6cee4cc169aeE', symObjAddr: 0x1C94, symBinAddr: 0xF090, symSize: 0x84 }
  - { offset: 0x514B6, size: 0x8, addend: 0x0, symName: __ZN5alloc6string6String10into_bytes17h35952505ce7f2826E, symObjAddr: 0x20AC, symBinAddr: 0xF364, symSize: 0x18 }
  - { offset: 0x514F3, size: 0x8, addend: 0x0, symName: '__ZN62_$LT$$RF$$u5b$u8$u5d$$u20$as$u20$bytes..buf..buf_impl..Buf$GT$9remaining17h55999be34e8ea178E', symObjAddr: 0x20C4, symBinAddr: 0xF37C, symSize: 0x18 }
  - { offset: 0x51713, size: 0x8, addend: 0x0, symName: __ZN11uniffi_core3ffi12foreignbytes12ForeignBytes14from_raw_parts17hf68e9c71c98d8f13E, symObjAddr: 0x23F4, symBinAddr: 0xF620, symSize: 0x24 }
  - { offset: 0x51746, size: 0x8, addend: 0x0, symName: __ZN11uniffi_core3ffi12foreignbytes12ForeignBytes8as_slice17h0a49b0f03d3bda15E, symObjAddr: 0x2418, symBinAddr: 0xF644, symSize: 0xA8 }
  - { offset: 0x5176A, size: 0x8, addend: 0x0, symName: __ZN11uniffi_core3ffi12foreignbytes12ForeignBytes3len17hffaf44659e6551e0E, symObjAddr: 0x24C0, symBinAddr: 0xF6EC, symSize: 0x44 }
  - { offset: 0x5178E, size: 0x8, addend: 0x0, symName: __ZN11uniffi_core3ffi12foreignbytes12ForeignBytes8is_empty17h4ca90143a9e76aa5E, symObjAddr: 0x2504, symBinAddr: 0xF730, symSize: 0x20 }
  - { offset: 0x517B2, size: 0x8, addend: 0x0, symName: __ZN11uniffi_core3ffi6handle6Handle8from_raw17hc9335198fbbdd03bE, symObjAddr: 0x2550, symBinAddr: 0xF77C, symSize: 0x40 }
  - { offset: 0x517D6, size: 0x8, addend: 0x0, symName: __ZN11uniffi_core3ffi6handle6Handle18from_raw_unchecked17h6cd93f222a64ac33E, symObjAddr: 0x2590, symBinAddr: 0xF7BC, symSize: 0x10 }
  - { offset: 0x51808, size: 0x8, addend: 0x0, symName: __ZN11uniffi_core3ffi6handle6Handle6as_raw17hdd4146751300612eE, symObjAddr: 0x25A0, symBinAddr: 0xF7CC, symSize: 0x18 }
  - { offset: 0x5182C, size: 0x8, addend: 0x0, symName: __ZN11uniffi_core3ffi10rustbuffer10RustBuffer3new17hb10d5aa228c85f34E, symObjAddr: 0x25B8, symBinAddr: 0xF7E4, symSize: 0x34 }
  - { offset: 0x51840, size: 0x8, addend: 0x0, symName: __ZN11uniffi_core3ffi10rustbuffer10RustBuffer14from_raw_parts17h1c65c3ca4eb208caE, symObjAddr: 0x25EC, symBinAddr: 0xF818, symSize: 0x28 }
  - { offset: 0x51890, size: 0x8, addend: 0x0, symName: __ZN11uniffi_core3ffi10rustbuffer10RustBuffer3len17he33bd92accfb8366E, symObjAddr: 0x2614, symBinAddr: 0xF840, symSize: 0x44 }
  - { offset: 0x518B4, size: 0x8, addend: 0x0, symName: __ZN11uniffi_core3ffi10rustbuffer10RustBuffer8capacity17h42c20461a944cb2dE, symObjAddr: 0x2658, symBinAddr: 0xF884, symSize: 0x44 }
  - { offset: 0x518D8, size: 0x8, addend: 0x0, symName: __ZN11uniffi_core3ffi10rustbuffer10RustBuffer12data_pointer17h7bd16c1b7de220a0E, symObjAddr: 0x269C, symBinAddr: 0xF8C8, symSize: 0x18 }
  - { offset: 0x518FC, size: 0x8, addend: 0x0, symName: __ZN11uniffi_core3ffi10rustbuffer10RustBuffer8is_empty17ha694e0b6ebf59d22E, symObjAddr: 0x26B4, symBinAddr: 0xF8E0, symSize: 0x20 }
  - { offset: 0x51920, size: 0x8, addend: 0x0, symName: __ZN11uniffi_core3ffi10rustbuffer10RustBuffer13new_with_size17h10c924619afecfb0E, symObjAddr: 0x26D4, symBinAddr: 0xF900, symSize: 0x40 }
  - { offset: 0x5197E, size: 0x8, addend: 0x0, symName: __ZN11uniffi_core3ffi10rustbuffer10RustBuffer8from_vec17he3863fa6935a7d5bE, symObjAddr: 0x2714, symBinAddr: 0xF940, symSize: 0x16C }
  - { offset: 0x51A40, size: 0x8, addend: 0x0, symName: __ZN11uniffi_core3ffi10rustbuffer10RustBuffer16destroy_into_vec17h44064695f1931702E, symObjAddr: 0x2880, symBinAddr: 0xFAAC, symSize: 0x154 }
  - { offset: 0x51A93, size: 0x8, addend: 0x0, symName: __ZN11uniffi_core3ffi10rustbuffer10RustBuffer7destroy17h4f077bfeb91aef7fE, symObjAddr: 0x29D4, symBinAddr: 0xFC00, symSize: 0x2C }
  - { offset: 0x51AB8, size: 0x8, addend: 0x0, symName: __ZN11uniffi_core3ffi9rustcalls14RustCallStatus9cancelled17hf2ba4558dd36956bE, symObjAddr: 0x2D54, symBinAddr: 0xFF80, symSize: 0x48 }
  - { offset: 0x51AE8, size: 0x8, addend: 0x0, symName: __ZN11uniffi_core3ffi10rustfuture9scheduler9Scheduler3new17hb4e889c1ac7f7c78E, symObjAddr: 0x41F0, symBinAddr: 0x1141C, symSize: 0x8 }
  - { offset: 0x51AFC, size: 0x8, addend: 0x0, symName: __ZN11uniffi_core3ffi10rustfuture9scheduler9Scheduler5store17ha21da7dddbcfde8eE, symObjAddr: 0x41F8, symBinAddr: 0x11424, symSize: 0x1F0 }
  - { offset: 0x51B92, size: 0x8, addend: 0x0, symName: __ZN11uniffi_core3ffi10rustfuture9scheduler9Scheduler4wake17hd57bed081713b884E, symObjAddr: 0x43E8, symBinAddr: 0x11614, symSize: 0xB0 }
  - { offset: 0x51C23, size: 0x8, addend: 0x0, symName: __ZN11uniffi_core3ffi10rustfuture9scheduler9Scheduler6cancel17h6fa9d3cd10799af7E, symObjAddr: 0x4498, symBinAddr: 0x116C4, symSize: 0x64 }
  - { offset: 0x51C84, size: 0x8, addend: 0x0, symName: __ZN11uniffi_core3ffi10rustfuture9scheduler9Scheduler12is_cancelled17h7550b10c6f77aafaE, symObjAddr: 0x44FC, symBinAddr: 0x11728, symSize: 0x20 }
  - { offset: 0x51CB7, size: 0x8, addend: 0x0, symName: __ZN11uniffi_core8metadata14MetadataBuffer3new17he4770600106787d9E, symObjAddr: 0x4550, symBinAddr: 0x1177C, symSize: 0x78 }
  - { offset: 0x51CCB, size: 0x8, addend: 0x0, symName: __ZN11uniffi_core8metadata14MetadataBuffer9from_code17hfdb7aa706b372e61E, symObjAddr: 0x45C8, symBinAddr: 0x117F4, symSize: 0x6C }
  - { offset: 0x51CEF, size: 0x8, addend: 0x0, symName: __ZN11uniffi_core8metadata14MetadataBuffer6concat17h9fda012422f31fe8E, symObjAddr: 0x4634, symBinAddr: 0x11860, symSize: 0x19C }
  - { offset: 0x51D3B, size: 0x8, addend: 0x0, symName: __ZN11uniffi_core8metadata14MetadataBuffer12concat_value17hecdec520c53a16edE, symObjAddr: 0x47D0, symBinAddr: 0x119FC, symSize: 0xD4 }
  - { offset: 0x51D6F, size: 0x8, addend: 0x0, symName: __ZN11uniffi_core8metadata14MetadataBuffer10concat_u3217hd26dd33c94a12bf7E, symObjAddr: 0x48A4, symBinAddr: 0x11AD0, symSize: 0x22C }
  - { offset: 0x51DA3, size: 0x8, addend: 0x0, symName: __ZN11uniffi_core8metadata14MetadataBuffer11concat_bool17h5bb14924f44d9050E, symObjAddr: 0x4AD0, symBinAddr: 0x11CFC, symSize: 0x20 }
  - { offset: 0x51DD7, size: 0x8, addend: 0x0, symName: __ZN11uniffi_core8metadata14MetadataBuffer10concat_str17ha374b3c6baa1d6fdE, symObjAddr: 0x4AF0, symBinAddr: 0x11D1C, symSize: 0x284 }
  - { offset: 0x51E3A, size: 0x8, addend: 0x0, symName: __ZN11uniffi_core8metadata14MetadataBuffer15concat_long_str17h07813f6198fb0debE, symObjAddr: 0x4D74, symBinAddr: 0x11FA0, symSize: 0x304 }
  - { offset: 0x51ECF, size: 0x8, addend: 0x0, symName: __ZN11uniffi_core8metadata14MetadataBuffer8checksum17he3a14a6c7cecba9bE, symObjAddr: 0x5078, symBinAddr: 0x122A4, symSize: 0x30 }
  - { offset: 0x524E6, size: 0x8, addend: 0x0, symName: '__ZN102_$LT$core..iter..adapters..map..Map$LT$I$C$F$GT$$u20$as$u20$core..iter..traits..iterator..Iterator$GT$4next17h82161abf1c1fcd0eE', symObjAddr: 0x0, symBinAddr: 0x12C4C, symSize: 0x70 }
  - { offset: 0x52508, size: 0x8, addend: 0x0, symName: __ZN3log6LOGGER17h070f069815397c1aE, symObjAddr: 0x39D0, symBinAddr: 0x158088, symSize: 0x0 }
  - { offset: 0x52524, size: 0x8, addend: 0x0, symName: __ZN3log5STATE17hcb081461532170d9E, symObjAddr: 0x16FA0, symBinAddr: 0x158470, symSize: 0x0 }
  - { offset: 0x52540, size: 0x8, addend: 0x0, symName: __ZN3log20MAX_LOG_LEVEL_FILTER17h63ec583f5427a258E, symObjAddr: 0x16FA8, symBinAddr: 0x158568, symSize: 0x0 }
  - { offset: 0x5255C, size: 0x8, addend: 0x0, symName: __ZN3log15LOG_LEVEL_NAMES17h5fde5ed239baaf65E, symObjAddr: 0x38A0, symBinAddr: 0x14D380, symSize: 0x0 }
  - { offset: 0x52578, size: 0x8, addend: 0x0, symName: __ZN3log16SET_LOGGER_ERROR17h62c7946370650852E, symObjAddr: 0x3900, symBinAddr: 0x14D3E0, symSize: 0x0 }
  - { offset: 0x52594, size: 0x8, addend: 0x0, symName: __ZN3log17LEVEL_PARSE_ERROR17haba253e2f7b0e60aE, symObjAddr: 0x3910, symBinAddr: 0x14D3F0, symSize: 0x0 }
  - { offset: 0x525BF, size: 0x8, addend: 0x0, symName: __ZN3log6logger3NOP17h5a34d2378d53dbd9E, symObjAddr: 0x3698, symBinAddr: 0xEF742, symSize: 0x0 }
  - { offset: 0x526BC, size: 0x8, addend: 0x0, symName: '__ZN57_$LT$log..Level$u20$as$u20$core..str..traits..FromStr$GT$8from_str28_$u7b$$u7b$closure$u7d$$u7d$17hd840407d2e0aff39E', symObjAddr: 0x210C, symBinAddr: 0x14D10, symSize: 0x48 }
  - { offset: 0x5271A, size: 0x8, addend: 0x0, symName: '__ZN57_$LT$log..Level$u20$as$u20$core..str..traits..FromStr$GT$8from_str28_$u7b$$u7b$closure$u7d$$u7d$17hd7c81c015a098df1E', symObjAddr: 0x2154, symBinAddr: 0x14D58, symSize: 0x28 }
  - { offset: 0x52772, size: 0x8, addend: 0x0, symName: '__ZN57_$LT$log..Level$u20$as$u20$core..str..traits..FromStr$GT$8from_str28_$u7b$$u7b$closure$u7d$$u7d$17hfa045b8d2189f5d1E', symObjAddr: 0x217C, symBinAddr: 0x14D80, symSize: 0x50 }
  - { offset: 0x527EB, size: 0x8, addend: 0x0, symName: '__ZN57_$LT$log..Level$u20$as$u20$core..str..traits..FromStr$GT$8from_str17h6f149dc8f0daa641E', symObjAddr: 0x208C, symBinAddr: 0x14C90, symSize: 0x80 }
  - { offset: 0x52830, size: 0x8, addend: 0x0, symName: '__ZN63_$LT$log..LevelFilter$u20$as$u20$core..str..traits..FromStr$GT$8from_str28_$u7b$$u7b$closure$u7d$$u7d$17hba8be87b72f5d3b3E', symObjAddr: 0x241C, symBinAddr: 0x14FD8, symSize: 0x48 }
  - { offset: 0x528A1, size: 0x8, addend: 0x0, symName: '__ZN63_$LT$log..LevelFilter$u20$as$u20$core..str..traits..FromStr$GT$8from_str17h8c4a9894b17c3927E', symObjAddr: 0x2370, symBinAddr: 0x14F74, symSize: 0x64 }
  - { offset: 0x52954, size: 0x8, addend: 0x0, symName: '__ZN49_$LT$log..Level$u20$as$u20$core..fmt..Display$GT$3fmt17h0e7856991ce58a90E', symObjAddr: 0x21CC, symBinAddr: 0x14DD0, symSize: 0x44 }
  - { offset: 0x529B1, size: 0x8, addend: 0x0, symName: '__ZN55_$LT$log..LevelFilter$u20$as$u20$core..fmt..Display$GT$3fmt17h87353d7d36ea52cdE', symObjAddr: 0x2464, symBinAddr: 0x15020, symSize: 0x44 }
  - { offset: 0x52B86, size: 0x8, addend: 0x0, symName: '__ZN61_$LT$log..RecordBuilder$u20$as$u20$core..default..Default$GT$7default17h5cd24dfffc4e58a7E', symObjAddr: 0x2880, symBinAddr: 0x1543C, symSize: 0x14 }
  - { offset: 0x52C23, size: 0x8, addend: 0x0, symName: '__ZN63_$LT$log..MetadataBuilder$u20$as$u20$core..default..Default$GT$7default17h1d9ec4fa702fc44eE', symObjAddr: 0x294C, symBinAddr: 0x15508, symSize: 0x14 }
  - { offset: 0x52C49, size: 0x8, addend: 0x0, symName: '__ZN43_$LT$log..NopLogger$u20$as$u20$log..Log$GT$7enabled17h10a76187ea40b96fE', symObjAddr: 0x2960, symBinAddr: 0x1551C, symSize: 0x1C }
  - { offset: 0x52C85, size: 0x8, addend: 0x0, symName: '__ZN43_$LT$log..NopLogger$u20$as$u20$log..Log$GT$3log17h6a6bd2e21f405224E', symObjAddr: 0x297C, symBinAddr: 0x15538, symSize: 0x14 }
  - { offset: 0x52CBD, size: 0x8, addend: 0x0, symName: '__ZN43_$LT$log..NopLogger$u20$as$u20$log..Log$GT$5flush17he7f70dd183116ddcE', symObjAddr: 0x2990, symBinAddr: 0x1554C, symSize: 0x10 }
  - { offset: 0x52CEA, size: 0x8, addend: 0x0, symName: __ZN3log10set_logger17he52bf11e1904bc38E, symObjAddr: 0x29A0, symBinAddr: 0x1555C, symSize: 0x2C }
  - { offset: 0x52D20, size: 0x8, addend: 0x0, symName: '__ZN3log10set_logger28_$u7b$$u7b$closure$u7d$$u7d$17hd8d3ddcb554e6dfeE', symObjAddr: 0x29CC, symBinAddr: 0x15588, symSize: 0x1C }
  - { offset: 0x52D66, size: 0x8, addend: 0x0, symName: __ZN3log16set_logger_inner17h0ebd439dd4ea2943E, symObjAddr: 0x29E8, symBinAddr: 0x155A4, symSize: 0x1CC }
  - { offset: 0x52DF6, size: 0x8, addend: 0x0, symName: __ZN3log15set_logger_racy17h9af03b0900a63272E, symObjAddr: 0x2BB4, symBinAddr: 0x15770, symSize: 0xDC }
  - { offset: 0x52E2C, size: 0x8, addend: 0x0, symName: '__ZN58_$LT$log..SetLoggerError$u20$as$u20$core..fmt..Display$GT$3fmt17hbf794eb38c7cfc71E', symObjAddr: 0x2C90, symBinAddr: 0x1584C, symSize: 0x44 }
  - { offset: 0x52E73, size: 0x8, addend: 0x0, symName: '__ZN59_$LT$log..ParseLevelError$u20$as$u20$core..fmt..Display$GT$3fmt17hcf147e2775bd6d95E', symObjAddr: 0x2CD4, symBinAddr: 0x15890, symSize: 0x44 }
  - { offset: 0x52EB4, size: 0x8, addend: 0x0, symName: __ZN3log6logger17hba595005c4cd224aE, symObjAddr: 0x2D18, symBinAddr: 0x158D4, symSize: 0x80 }
  - { offset: 0x52ED9, size: 0x8, addend: 0x0, symName: __ZN3log13__private_api8log_impl17had5e90fd7b21bb79E, symObjAddr: 0x2D98, symBinAddr: 0x15954, symSize: 0x19C }
  - { offset: 0x52F8A, size: 0x8, addend: 0x0, symName: __ZN3log13__private_api7enabled17h044d298e8fe8374fE, symObjAddr: 0x2F34, symBinAddr: 0x15AF0, symSize: 0x80 }
  - { offset: 0x52FC7, size: 0x8, addend: 0x0, symName: __ZN3log13__private_api3loc17h6817b47c2c182271E, symObjAddr: 0x2FB4, symBinAddr: 0x15B70, symSize: 0x14 }
  - { offset: 0x52FF2, size: 0x8, addend: 0x0, symName: __ZN3log14MaybeStaticStr6Static17h073962aa91abde21E, symObjAddr: 0x2FE0, symBinAddr: 0x15B84, symSize: 0x24 }
  - { offset: 0x53026, size: 0x8, addend: 0x0, symName: '__ZN58_$LT$log..MaybeStaticStr$u20$as$u20$core..clone..Clone$GT$5clone17h4ff9dc570a9fb149E', symObjAddr: 0x3004, symBinAddr: 0x15BA8, symSize: 0x28 }
  - { offset: 0x5305D, size: 0x8, addend: 0x0, symName: '__ZN50_$LT$log..Record$u20$as$u20$core..clone..Clone$GT$5clone17h9bde05d08568aaa6E', symObjAddr: 0x302C, symBinAddr: 0x15BD0, symSize: 0xD4 }
  - { offset: 0x53094, size: 0x8, addend: 0x0, symName: '__ZN52_$LT$log..Metadata$u20$as$u20$core..clone..Clone$GT$5clone17h5b7800d73f667ea0E', symObjAddr: 0x3100, symBinAddr: 0x15CA4, symSize: 0x50 }
  - { offset: 0x53210, size: 0x8, addend: 0x0, symName: __ZN4core4sync6atomic11atomic_load17h04deb24adedeaa29E, symObjAddr: 0xBEC, symBinAddr: 0x137F0, symSize: 0x14C }
  - { offset: 0x53288, size: 0x8, addend: 0x0, symName: __ZN4core4sync6atomic12atomic_store17h23c4145736561c74E, symObjAddr: 0xD38, symBinAddr: 0x1393C, symSize: 0x150 }
  - { offset: 0x5330C, size: 0x8, addend: 0x0, symName: __ZN4core4sync6atomic23atomic_compare_exchange17h2f5954fbf7dbdaa4E, symObjAddr: 0xE88, symBinAddr: 0x13A8C, symSize: 0x590 }
  - { offset: 0x534B6, size: 0x8, addend: 0x0, symName: '__ZN4core3cmp5impls59_$LT$impl$u20$core..cmp..PartialEq$u20$for$u20$$LP$$RP$$GT$2eq17hd3b62499c60cd241E', symObjAddr: 0x2BC, symBinAddr: 0x12ED0, symSize: 0x1C }
  - { offset: 0x53560, size: 0x8, addend: 0x0, symName: __ZN4core3cmp6min_by17h76d73fbf73cb6803E, symObjAddr: 0x2D8, symBinAddr: 0x12EEC, symSize: 0xC8 }
  - { offset: 0x53843, size: 0x8, addend: 0x0, symName: '__ZN59_$LT$core..fmt..Arguments$u20$as$u20$core..clone..Clone$GT$5clone17heb81b8a05c9f94b2E', symObjAddr: 0x1830, symBinAddr: 0x14434, symSize: 0x38 }
  - { offset: 0x53D0B, size: 0x8, addend: 0x0, symName: '__ZN68_$LT$core..option..Option$LT$T$GT$$u20$as$u20$core..clone..Clone$GT$5clone17h20da5db5d30731f7E', symObjAddr: 0x1868, symBinAddr: 0x1446C, symSize: 0x78 }
  - { offset: 0x53D65, size: 0x8, addend: 0x0, symName: '__ZN68_$LT$core..option..Option$LT$T$GT$$u20$as$u20$core..clone..Clone$GT$5clone17hd6cba52f19fca7f1E', symObjAddr: 0x18E0, symBinAddr: 0x144E4, symSize: 0x5C }
  - { offset: 0x53E3B, size: 0x8, addend: 0x0, symName: '__ZN90_$LT$core..option..IntoIter$LT$A$GT$$u20$as$u20$core..iter..traits..iterator..Iterator$GT$4next17h9c4614045d7a6b74E', symObjAddr: 0x1A28, symBinAddr: 0x1462C, symSize: 0x4C }
  - { offset: 0x53F91, size: 0x8, addend: 0x0, symName: '__ZN91_$LT$core..option..Option$LT$T$GT$$u20$as$u20$core..iter..traits..collect..IntoIterator$GT$9into_iter17hf9269ee9e6764689E', symObjAddr: 0x1A74, symBinAddr: 0x14678, symSize: 0x14 }
  - { offset: 0x54148, size: 0x8, addend: 0x0, symName: '__ZN102_$LT$core..iter..adapters..map..Map$LT$I$C$F$GT$$u20$as$u20$core..iter..traits..iterator..Iterator$GT$4next17h82161abf1c1fcd0eE', symObjAddr: 0x0, symBinAddr: 0x12C4C, symSize: 0x70 }
  - { offset: 0x54289, size: 0x8, addend: 0x0, symName: '__ZN102_$LT$core..iter..adapters..zip..Zip$LT$A$C$B$GT$$u20$as$u20$core..iter..traits..iterator..Iterator$GT$4next17h7e83ff4233965d3cE', symObjAddr: 0x70, symBinAddr: 0x12CBC, symSize: 0x24 }
  - { offset: 0x542D2, size: 0x8, addend: 0x0, symName: '__ZN111_$LT$core..iter..adapters..zip..Zip$LT$A$C$B$GT$$u20$as$u20$core..iter..adapters..zip..ZipImpl$LT$A$C$B$GT$$GT$3new17h6ef6b39cb10574bfE', symObjAddr: 0x108, symBinAddr: 0x12D54, symSize: 0xC4 }
  - { offset: 0x543D6, size: 0x8, addend: 0x0, symName: '__ZN111_$LT$core..iter..adapters..zip..Zip$LT$A$C$B$GT$$u20$as$u20$core..iter..adapters..zip..ZipImpl$LT$A$C$B$GT$$GT$4next17h8f042f0778ee7ef5E', symObjAddr: 0x1CC, symBinAddr: 0x12E18, symSize: 0xB8 }
  - { offset: 0x54439, size: 0x8, addend: 0x0, symName: __ZN4core4iter8adapters3zip27TrustedRandomAccessNoCoerce4size17h64fb7ace7969f3b5E, symObjAddr: 0xA44, symBinAddr: 0x13648, symSize: 0x2C }
  - { offset: 0x54474, size: 0x8, addend: 0x0, symName: __ZN4core4iter8adapters3zip3zip17he2cb8cf2f3045f5aE, symObjAddr: 0xA70, symBinAddr: 0x13674, symSize: 0xDC }
  - { offset: 0x54531, size: 0x8, addend: 0x0, symName: '__ZN108_$LT$core..iter..adapters..filter..Filter$LT$I$C$P$GT$$u20$as$u20$core..iter..traits..iterator..Iterator$GT$4next17ha6f95e057eeed182E', symObjAddr: 0xDC, symBinAddr: 0x12D28, symSize: 0x2C }
  - { offset: 0x545CC, size: 0x8, addend: 0x0, symName: '__ZN4core4iter6traits8iterator8Iterator3all5check28_$u7b$$u7b$closure$u7d$$u7d$17h622c5934dc1f2329E', symObjAddr: 0x5E8, symBinAddr: 0x131EC, symSize: 0x58 }
  - { offset: 0x54676, size: 0x8, addend: 0x0, symName: __ZN4core4iter6traits8iterator8Iterator3map17h0057b6e7a5ec21ffE, symObjAddr: 0x640, symBinAddr: 0x13244, symSize: 0x14 }
  - { offset: 0x546D4, size: 0x8, addend: 0x0, symName: __ZN4core4iter6traits8iterator8Iterator3map17h10c74772be9b90b7E, symObjAddr: 0x654, symBinAddr: 0x13258, symSize: 0x14 }
  - { offset: 0x54732, size: 0x8, addend: 0x0, symName: __ZN4core4iter6traits8iterator8Iterator3map17h6e3247b45b290e29E, symObjAddr: 0x668, symBinAddr: 0x1326C, symSize: 0x14 }
  - { offset: 0x54790, size: 0x8, addend: 0x0, symName: __ZN4core4iter6traits8iterator8Iterator4find17he6b431df32150d36E, symObjAddr: 0x67C, symBinAddr: 0x13280, symSize: 0x7C }
  - { offset: 0x54827, size: 0x8, addend: 0x0, symName: '__ZN4core4iter6traits8iterator8Iterator4find5check28_$u7b$$u7b$closure$u7d$$u7d$17h7a92813a10a00308E', symObjAddr: 0x6F8, symBinAddr: 0x132FC, symSize: 0x80 }
  - { offset: 0x5489F, size: 0x8, addend: 0x0, symName: __ZN4core4iter6traits8iterator8Iterator6filter17h8de3257c48474be2E, symObjAddr: 0x778, symBinAddr: 0x1337C, symSize: 0x14 }
  - { offset: 0x548F3, size: 0x8, addend: 0x0, symName: __ZN4core4iter6traits8iterator8Iterator8try_fold17h04bec6920a15472cE, symObjAddr: 0x78C, symBinAddr: 0x13390, symSize: 0x170 }
  - { offset: 0x549BB, size: 0x8, addend: 0x0, symName: __ZN4core4iter6traits8iterator8Iterator8try_fold17h717f2da78fb2067fE, symObjAddr: 0x8FC, symBinAddr: 0x13500, symSize: 0x148 }
  - { offset: 0x54ADC, size: 0x8, addend: 0x0, symName: '__ZN104_$LT$core..ops..control_flow..ControlFlow$LT$B$C$C$GT$$u20$as$u20$core..ops..try_trait..FromResidual$GT$13from_residual17habae6698bc37b0fbE', symObjAddr: 0x94, symBinAddr: 0x12CE0, symSize: 0x1C }
  - { offset: 0x54B3C, size: 0x8, addend: 0x0, symName: '__ZN104_$LT$core..ops..control_flow..ControlFlow$LT$B$C$C$GT$$u20$as$u20$core..ops..try_trait..FromResidual$GT$13from_residual17hb80833b53514fa1bE', symObjAddr: 0xB0, symBinAddr: 0x12CFC, symSize: 0x2C }
  - { offset: 0x54C5B, size: 0x8, addend: 0x0, symName: '__ZN90_$LT$core..ops..control_flow..ControlFlow$LT$B$C$C$GT$$u20$as$u20$core..cmp..PartialEq$GT$2eq17he5081dfc5548aab6E', symObjAddr: 0x193C, symBinAddr: 0x14540, symSize: 0xEC }
  - { offset: 0x54DAE, size: 0x8, addend: 0x0, symName: '__ZN95_$LT$core..ops..control_flow..ControlFlow$LT$B$C$C$GT$$u20$as$u20$core..ops..try_trait..Try$GT$11from_output17h7c9ce7d56c7de135E', symObjAddr: 0x1FD4, symBinAddr: 0x14BD8, symSize: 0x18 }
  - { offset: 0x54DF0, size: 0x8, addend: 0x0, symName: '__ZN95_$LT$core..ops..control_flow..ControlFlow$LT$B$C$C$GT$$u20$as$u20$core..ops..try_trait..Try$GT$11from_output17h938b3201613dc430E', symObjAddr: 0x1FEC, symBinAddr: 0x14BF0, symSize: 0x18 }
  - { offset: 0x54E32, size: 0x8, addend: 0x0, symName: '__ZN95_$LT$core..ops..control_flow..ControlFlow$LT$B$C$C$GT$$u20$as$u20$core..ops..try_trait..Try$GT$6branch17h7ff9f94a84be639cE', symObjAddr: 0x2004, symBinAddr: 0x14C08, symSize: 0x50 }
  - { offset: 0x54EB1, size: 0x8, addend: 0x0, symName: '__ZN95_$LT$core..ops..control_flow..ControlFlow$LT$B$C$C$GT$$u20$as$u20$core..ops..try_trait..Try$GT$6branch17h80b64ab78b4c0f6bE', symObjAddr: 0x2054, symBinAddr: 0x14C58, symSize: 0x38 }
  - { offset: 0x551E8, size: 0x8, addend: 0x0, symName: '__ZN4core3ops8function5impls79_$LT$impl$u20$core..ops..function..FnMut$LT$A$GT$$u20$for$u20$$RF$mut$u20$F$GT$8call_mut17h8c5e5383faffb550E', symObjAddr: 0x478, symBinAddr: 0x1308C, symSize: 0x30 }
  - { offset: 0x55243, size: 0x8, addend: 0x0, symName: '__ZN4core3ops8function5impls80_$LT$impl$u20$core..ops..function..FnOnce$LT$A$GT$$u20$for$u20$$RF$mut$u20$F$GT$9call_once17hde2875d6236f43a8E', symObjAddr: 0x4A8, symBinAddr: 0x130BC, symSize: 0x2C }
  - { offset: 0x5529F, size: 0x8, addend: 0x0, symName: __ZN4core3ops8function6FnOnce9call_once17h6f4be2411a94073cE, symObjAddr: 0x4D4, symBinAddr: 0x130E8, symSize: 0x2C }
  - { offset: 0x552E8, size: 0x8, addend: 0x0, symName: __ZN4core3ops8function6FnOnce9call_once17habea4232662144a6E, symObjAddr: 0x500, symBinAddr: 0x13114, symSize: 0x2C }
  - { offset: 0x555FA, size: 0x8, addend: 0x0, symName: '__ZN4core3ptr9const_ptr33_$LT$impl$u20$$BP$const$u20$T$GT$7sub_ptr18precondition_check17he03c4aa60d3c654cE', symObjAddr: 0x53C, symBinAddr: 0x13140, symSize: 0x40 }
  - { offset: 0x55B81, size: 0x8, addend: 0x0, symName: '__ZN4core3str21_$LT$impl$u20$str$GT$20eq_ignore_ascii_case17h968903add8366024E', symObjAddr: 0x57C, symBinAddr: 0x13180, symSize: 0x34 }
  - { offset: 0x55BCF, size: 0x8, addend: 0x0, symName: __ZN4core4hint16assert_unchecked18precondition_check17h77c311ecabd74c72E, symObjAddr: 0x5B0, symBinAddr: 0x131B4, symSize: 0x38 }
  - { offset: 0x55CD0, size: 0x8, addend: 0x0, symName: '__ZN4core5slice29_$LT$impl$u20$$u5b$T$u5d$$GT$4iter17h967387384d293047E', symObjAddr: 0x1464, symBinAddr: 0x14068, symSize: 0x28 }
  - { offset: 0x55E1F, size: 0x8, addend: 0x0, symName: '__ZN4core5slice4iter87_$LT$impl$u20$core..iter..traits..collect..IntoIterator$u20$for$u20$$RF$$u5b$T$u5d$$GT$9into_iter17hb57a3a0f5f007a8bE', symObjAddr: 0x14DC, symBinAddr: 0x140E0, symSize: 0x50 }
  - { offset: 0x55FC7, size: 0x8, addend: 0x0, symName: '__ZN91_$LT$core..slice..iter..Iter$LT$T$GT$$u20$as$u20$core..iter..traits..iterator..Iterator$GT$24__iterator_get_unchecked17hf1ec6626a5870398E', symObjAddr: 0x1A88, symBinAddr: 0x1468C, symSize: 0x28 }
  - { offset: 0x56078, size: 0x8, addend: 0x0, symName: '__ZN91_$LT$core..slice..iter..Iter$LT$T$GT$$u20$as$u20$core..iter..traits..iterator..Iterator$GT$4next17h2423eec0ad0dcdc5E', symObjAddr: 0x1AB0, symBinAddr: 0x146B4, symSize: 0xCC }
  - { offset: 0x56257, size: 0x8, addend: 0x0, symName: '__ZN91_$LT$core..slice..iter..Iter$LT$T$GT$$u20$as$u20$core..iter..traits..iterator..Iterator$GT$8position17hf298e805c372fc83E', symObjAddr: 0x1B7C, symBinAddr: 0x14780, symSize: 0x1CC }
  - { offset: 0x563D4, size: 0x8, addend: 0x0, symName: '__ZN91_$LT$core..slice..iter..Iter$LT$T$GT$$u20$as$u20$core..iter..traits..iterator..Iterator$GT$8position17hfedfbe9bde5a4600E', symObjAddr: 0x1D48, symBinAddr: 0x1494C, symSize: 0x1CC }
  - { offset: 0x56551, size: 0x8, addend: 0x0, symName: '__ZN91_$LT$core..slice..iter..Iter$LT$T$GT$$u20$as$u20$core..iter..traits..iterator..Iterator$GT$9size_hint17h58d7988940b1d9fcE', symObjAddr: 0x1F14, symBinAddr: 0x14B18, symSize: 0xC0 }
  - { offset: 0x566B4, size: 0x8, addend: 0x0, symName: '__ZN4core5slice5ascii30_$LT$impl$u20$$u5b$u8$u5d$$GT$20eq_ignore_ascii_case28_$u7b$$u7b$closure$u7d$$u7d$17h1fb3386cc4165fbeE', symObjAddr: 0x15CC, symBinAddr: 0x141D0, symSize: 0xD0 }
  - { offset: 0x5680C, size: 0x8, addend: 0x0, symName: '__ZN4core5slice5ascii30_$LT$impl$u20$$u5b$u8$u5d$$GT$20eq_ignore_ascii_case17h7ac96ad02d6708cdE', symObjAddr: 0x152C, symBinAddr: 0x14130, symSize: 0xA0 }
  - { offset: 0x56CC2, size: 0x8, addend: 0x0, symName: __ZN4core3fmt9Arguments6new_v117h68fe0d3a3b5d0fbcE, symObjAddr: 0x3A0, symBinAddr: 0x12FB4, symSize: 0x4C }
  - { offset: 0x56CF7, size: 0x8, addend: 0x0, symName: __ZN4core3fmt9Arguments9new_const17h5ee8a9c3afd39b80E, symObjAddr: 0x3EC, symBinAddr: 0x13000, symSize: 0x48 }
  - { offset: 0x56D38, size: 0x8, addend: 0x0, symName: __ZN4core3fmt9Arguments9new_const17h71d71835097c9620E, symObjAddr: 0x434, symBinAddr: 0x13048, symSize: 0x44 }
  - { offset: 0x56DA6, size: 0x8, addend: 0x0, symName: __ZN4core4sync6atomic11AtomicUsize16compare_exchange17h0fa0e1b629991868E, symObjAddr: 0xB4C, symBinAddr: 0x13750, symSize: 0x3C }
  - { offset: 0x56E0B, size: 0x8, addend: 0x0, symName: __ZN4core4sync6atomic11AtomicUsize4load17h6eaf0d4ea5d9a83cE, symObjAddr: 0xB88, symBinAddr: 0x1378C, symSize: 0x30 }
  - { offset: 0x56E40, size: 0x8, addend: 0x0, symName: __ZN4core4sync6atomic11AtomicUsize5store17hc9f7433def727ff0E, symObjAddr: 0xBB8, symBinAddr: 0x137BC, symSize: 0x34 }
  - { offset: 0x56F11, size: 0x8, addend: 0x0, symName: __ZN4core5panic8location8Location4file17hf169d20018791ee1E, symObjAddr: 0x1418, symBinAddr: 0x1401C, symSize: 0x20 }
  - { offset: 0x56F35, size: 0x8, addend: 0x0, symName: __ZN4core5panic8location8Location4line17h90e20c30d513427dE, symObjAddr: 0x1438, symBinAddr: 0x1403C, symSize: 0x18 }
  - { offset: 0x56F59, size: 0x8, addend: 0x0, symName: __ZN4core5panic8location8Location6caller17hf89916f499f70669E, symObjAddr: 0x1450, symBinAddr: 0x14054, symSize: 0x14 }
  - { offset: 0x57004, size: 0x8, addend: 0x0, symName: '__ZN4core5slice4iter13Iter$LT$T$GT$3new17h4a2ac741574cbaeeE', symObjAddr: 0x148C, symBinAddr: 0x14090, symSize: 0x50 }
  - { offset: 0x5728E, size: 0x8, addend: 0x0, symName: '__ZN4core6option15Option$LT$T$GT$3map17h19860770962fe135E', symObjAddr: 0x169C, symBinAddr: 0x142A0, symSize: 0x50 }
  - { offset: 0x5731A, size: 0x8, addend: 0x0, symName: '__ZN4core6option15Option$LT$T$GT$3map17h1e4fee0df897b3abE', symObjAddr: 0x16EC, symBinAddr: 0x142F0, symSize: 0x78 }
  - { offset: 0x5738D, size: 0x8, addend: 0x0, symName: '__ZN4core6option15Option$LT$T$GT$5ok_or17h3af8901cead6f4aeE', symObjAddr: 0x1764, symBinAddr: 0x14368, symSize: 0x40 }
  - { offset: 0x573F6, size: 0x8, addend: 0x0, symName: '__ZN4core6option15Option$LT$T$GT$5ok_or17hc0eed80c65824af0E', symObjAddr: 0x17A4, symBinAddr: 0x143A8, symSize: 0x44 }
  - { offset: 0x574B5, size: 0x8, addend: 0x0, symName: '__ZN4core6option15Option$LT$T$GT$7is_some17hedab8c2476bed073E', symObjAddr: 0x17E8, symBinAddr: 0x143EC, symSize: 0x48 }
  - { offset: 0x57755, size: 0x8, addend: 0x0, symName: __ZN3log5Level10from_usize17hb72de04256536da6E, symObjAddr: 0x2210, symBinAddr: 0x14E14, symSize: 0xD0 }
  - { offset: 0x57788, size: 0x8, addend: 0x0, symName: __ZN3log5Level6as_str17h3423626a0e573d07E, symObjAddr: 0x22E0, symBinAddr: 0x14EE4, symSize: 0x6C }
  - { offset: 0x577AD, size: 0x8, addend: 0x0, symName: __ZN3log5Level4iter17h567d10fd0e32e136E, symObjAddr: 0x234C, symBinAddr: 0x14F50, symSize: 0x24 }
  - { offset: 0x577F1, size: 0x8, addend: 0x0, symName: __ZN3log11LevelFilter10from_usize17h85323ecfec641f8bE, symObjAddr: 0x24A8, symBinAddr: 0x15064, symSize: 0xF0 }
  - { offset: 0x57825, size: 0x8, addend: 0x0, symName: __ZN3log11LevelFilter6as_str17hef731131c4f24bfcE, symObjAddr: 0x2598, symBinAddr: 0x15154, symSize: 0x6C }
  - { offset: 0x5784A, size: 0x8, addend: 0x0, symName: __ZN3log11LevelFilter4iter17h1118b32f5943a353E, symObjAddr: 0x2604, symBinAddr: 0x151C0, symSize: 0x20 }
  - { offset: 0x5785E, size: 0x8, addend: 0x0, symName: __ZN3log6Record7builder17h49c73ba1945e159eE, symObjAddr: 0x2624, symBinAddr: 0x151E0, symSize: 0x14 }
  - { offset: 0x57872, size: 0x8, addend: 0x0, symName: __ZN3log13RecordBuilder3new17h68bfd37f9fcd6b72E, symObjAddr: 0x2638, symBinAddr: 0x151F4, symSize: 0xE0 }
  - { offset: 0x57894, size: 0x8, addend: 0x0, symName: __ZN3log13RecordBuilder4args17h28f44a697d8c5a55E, symObjAddr: 0x2718, symBinAddr: 0x152D4, symSize: 0x34 }
  - { offset: 0x578CA, size: 0x8, addend: 0x0, symName: __ZN3log13RecordBuilder5level17hed2eec56b56f5134E, symObjAddr: 0x274C, symBinAddr: 0x15308, symSize: 0x1C }
  - { offset: 0x578FF, size: 0x8, addend: 0x0, symName: __ZN3log13RecordBuilder6target17h58cc9c9e6d82e951E, symObjAddr: 0x2768, symBinAddr: 0x15324, symSize: 0x28 }
  - { offset: 0x57934, size: 0x8, addend: 0x0, symName: __ZN3log13RecordBuilder18module_path_static17hd0cf48ba6d79f3e2E, symObjAddr: 0x2790, symBinAddr: 0x1534C, symSize: 0x54 }
  - { offset: 0x57969, size: 0x8, addend: 0x0, symName: __ZN3log13RecordBuilder11file_static17h1b95f2f17d20076eE, symObjAddr: 0x27E4, symBinAddr: 0x153A0, symSize: 0x54 }
  - { offset: 0x5799E, size: 0x8, addend: 0x0, symName: __ZN3log13RecordBuilder4line17hf079eabe1578fdadE, symObjAddr: 0x2838, symBinAddr: 0x153F4, symSize: 0x24 }
  - { offset: 0x579E1, size: 0x8, addend: 0x0, symName: __ZN3log13RecordBuilder5build17h23c2fa29d7130e74E, symObjAddr: 0x285C, symBinAddr: 0x15418, symSize: 0x24 }
  - { offset: 0x57A06, size: 0x8, addend: 0x0, symName: __ZN3log8Metadata7builder17hd75227c238c2f648E, symObjAddr: 0x2894, symBinAddr: 0x15450, symSize: 0x14 }
  - { offset: 0x57A1A, size: 0x8, addend: 0x0, symName: __ZN3log15MetadataBuilder3new17h7f0a3472ba93fab6E, symObjAddr: 0x28A8, symBinAddr: 0x15464, symSize: 0x3C }
  - { offset: 0x57A3C, size: 0x8, addend: 0x0, symName: __ZN3log15MetadataBuilder5level17hc4c65036465fe1c6E, symObjAddr: 0x28E4, symBinAddr: 0x154A0, symSize: 0x1C }
  - { offset: 0x57A71, size: 0x8, addend: 0x0, symName: __ZN3log15MetadataBuilder6target17hdee061df1f05d543E, symObjAddr: 0x2900, symBinAddr: 0x154BC, symSize: 0x28 }
  - { offset: 0x57AB4, size: 0x8, addend: 0x0, symName: __ZN3log15MetadataBuilder5build17h97901daef860853aE, symObjAddr: 0x2928, symBinAddr: 0x154E4, symSize: 0x24 }
  - { offset: 0x57CF4, size: 0x8, addend: 0x0, symName: '__ZN169_$LT$$LT$alloc..collections..vec_deque..drain..Drain$LT$T$C$A$GT$$u20$as$u20$core..ops..drop..Drop$GT$..drop..DropGuard$LT$T$C$A$GT$$u20$as$u20$core..ops..drop..Drop$GT$4drop17h0a5ba35aece547f1E', symObjAddr: 0x0, symBinAddr: 0x15CF4, symSize: 0x1DC }
  - { offset: 0x57F9D, size: 0x8, addend: 0x0, symName: __ZN4core9panicking13assert_failed17h15c02adc54ca3fd4E, symObjAddr: 0x16C8, symBinAddr: 0xE9E1C, symSize: 0x3C }
  - { offset: 0x589B5, size: 0x8, addend: 0x0, symName: '__ZN4core3ptr168drop_in_place$LT$$LT$alloc..collections..vec_deque..drain..Drain$LT$T$C$A$GT$$u20$as$u20$core..ops..drop..Drop$GT$..drop..DropGuard$LT$u8$C$alloc..alloc..Global$GT$$GT$17h4291e8573a66c8f4E', symObjAddr: 0xA7C, symBinAddr: 0x16544, symSize: 0x24 }
  - { offset: 0x589E7, size: 0x8, addend: 0x0, symName: '__ZN4core3ptr40drop_in_place$LT$bytes..bytes..Bytes$GT$17h53e74b1bc7552bf9E', symObjAddr: 0xAB0, symBinAddr: 0x16568, symSize: 0x24 }
  - { offset: 0x58A19, size: 0x8, addend: 0x0, symName: '__ZN4core3ptr41drop_in_place$LT$bytes..bytes..Shared$GT$17hcd8b869c0ce47f2eE', symObjAddr: 0xAD4, symBinAddr: 0x1658C, symSize: 0x24 }
  - { offset: 0x58A4B, size: 0x8, addend: 0x0, symName: '__ZN4core3ptr45drop_in_place$LT$bytes..bytes_mut..Shared$GT$17h26bf93f95ff9bf81E', symObjAddr: 0xB08, symBinAddr: 0x165B0, symSize: 0x24 }
  - { offset: 0x58A7D, size: 0x8, addend: 0x0, symName: '__ZN4core3ptr46drop_in_place$LT$alloc..vec..Vec$LT$u8$GT$$GT$17h268fdf9384ee4b37E', symObjAddr: 0xB2C, symBinAddr: 0x165D4, symSize: 0x5C }
  - { offset: 0x58AAF, size: 0x8, addend: 0x0, symName: '__ZN4core3ptr47drop_in_place$LT$bytes..bytes_mut..BytesMut$GT$17hf71b4832f579341cE', symObjAddr: 0xB88, symBinAddr: 0x16630, symSize: 0x24 }
  - { offset: 0x58AE1, size: 0x8, addend: 0x0, symName: '__ZN4core3ptr53drop_in_place$LT$alloc..raw_vec..RawVec$LT$u8$GT$$GT$17h5fd73d5cc0b39a73E', symObjAddr: 0xBAC, symBinAddr: 0x16654, symSize: 0x24 }
  - { offset: 0x58B13, size: 0x8, addend: 0x0, symName: '__ZN4core3ptr58drop_in_place$LT$alloc..boxed..Box$LT$$u5b$u8$u5d$$GT$$GT$17h9d81113de3dc156eE', symObjAddr: 0xBE0, symBinAddr: 0x16678, symSize: 0x2C }
  - { offset: 0x58B45, size: 0x8, addend: 0x0, symName: '__ZN4core3ptr66drop_in_place$LT$alloc..boxed..Box$LT$bytes..bytes..Shared$GT$$GT$17h6cd5b116f2b19c70E', symObjAddr: 0xC0C, symBinAddr: 0x166A4, symSize: 0x60 }
  - { offset: 0x58B77, size: 0x8, addend: 0x0, symName: '__ZN4core3ptr70drop_in_place$LT$alloc..boxed..Box$LT$bytes..bytes_mut..Shared$GT$$GT$17h3e4856d4c730f4baE', symObjAddr: 0xC6C, symBinAddr: 0x16704, symSize: 0x60 }
  - { offset: 0x58BA9, size: 0x8, addend: 0x0, symName: '__ZN4core3ptr74drop_in_place$LT$alloc..collections..vec_deque..drain..Drain$LT$u8$GT$$GT$17h17428a2720e26defE', symObjAddr: 0xCCC, symBinAddr: 0x16764, symSize: 0x24 }
  - { offset: 0x59550, size: 0x8, addend: 0x0, symName: '__ZN4core3num23_$LT$impl$u20$usize$GT$11checked_add17hb547516c6e8e3de9E', symObjAddr: 0x4F4, symBinAddr: 0x15FE8, symSize: 0x78 }
  - { offset: 0x595C0, size: 0x8, addend: 0x0, symName: '__ZN4core3num23_$LT$impl$u20$usize$GT$11checked_shl17h93c198d43b223fc2E', symObjAddr: 0x56C, symBinAddr: 0x16060, symSize: 0x88 }
  - { offset: 0x59628, size: 0x8, addend: 0x0, symName: '__ZN4core3num23_$LT$impl$u20$usize$GT$11checked_sub17h628f68e84261bf75E', symObjAddr: 0x5F4, symBinAddr: 0x160E8, symSize: 0x6C }
  - { offset: 0x596BC, size: 0x8, addend: 0x0, symName: '__ZN4core3num23_$LT$impl$u20$usize$GT$13unchecked_mul18precondition_check17h9485d623095bb4f3E', symObjAddr: 0x660, symBinAddr: 0x16154, symSize: 0x54 }
  - { offset: 0x59734, size: 0x8, addend: 0x0, symName: '__ZN4core3num23_$LT$impl$u20$usize$GT$13unchecked_shl18precondition_check17h3634eabc7259abcdE', symObjAddr: 0x6B4, symBinAddr: 0x161A8, symSize: 0x3C }
  - { offset: 0x5990C, size: 0x8, addend: 0x0, symName: '__ZN4core3num23_$LT$impl$u20$isize$GT$13unchecked_neg18precondition_check17h59c286b2a631c187E', symObjAddr: 0x4A8, symBinAddr: 0x15F9C, symSize: 0x4C }
  - { offset: 0x5997A, size: 0x8, addend: 0x0, symName: '__ZN49_$LT$u8$u20$as$u20$core..slice..cmp..SliceOrd$GT$7compare17h8eb7802615f6753eE', symObjAddr: 0x3DC, symBinAddr: 0x15ED0, symSize: 0xCC }
  - { offset: 0x59A2B, size: 0x8, addend: 0x0, symName: '__ZN4core5slice3cmp56_$LT$impl$u20$core..cmp..Ord$u20$for$u20$$u5b$T$u5d$$GT$3cmp17h12cb909c2b5369a7E', symObjAddr: 0xD08, symBinAddr: 0x167A0, symSize: 0x34 }
  - { offset: 0x59A79, size: 0x8, addend: 0x0, symName: '__ZN4core5slice3cmp63_$LT$impl$u20$core..cmp..PartialOrd$u20$for$u20$$u5b$T$u5d$$GT$11partial_cmp17h5c0e949d6a5adc8eE', symObjAddr: 0xD3C, symBinAddr: 0x167D4, symSize: 0x34 }
  - { offset: 0x59AC7, size: 0x8, addend: 0x0, symName: '__ZN4core5slice3cmp81_$LT$impl$u20$core..cmp..PartialEq$LT$$u5b$U$u5d$$GT$$u20$for$u20$$u5b$T$u5d$$GT$2eq17hca44ed5e772788b8E', symObjAddr: 0xD70, symBinAddr: 0x16808, symSize: 0x34 }
  - { offset: 0x59B1F, size: 0x8, addend: 0x0, symName: '__ZN55_$LT$A$u20$as$u20$core..slice..cmp..SlicePartialOrd$GT$15partial_compare17h3db5920ff6c5df4bE', symObjAddr: 0x1704, symBinAddr: 0x17160, symSize: 0x3C }
  - { offset: 0x59B6D, size: 0x8, addend: 0x0, symName: '__ZN73_$LT$$u5b$A$u5d$$u20$as$u20$core..slice..cmp..SlicePartialEq$LT$B$GT$$GT$5equal17h97acf77137a416daE', symObjAddr: 0x3618, symBinAddr: 0x18F6C, symSize: 0x88 }
  - { offset: 0x59C99, size: 0x8, addend: 0x0, symName: '__ZN4core5slice4iter87_$LT$impl$u20$core..iter..traits..collect..IntoIterator$u20$for$u20$$RF$$u5b$T$u5d$$GT$9into_iter17h0530d0bc045629c5E', symObjAddr: 0xDF4, symBinAddr: 0x1688C, symSize: 0x50 }
  - { offset: 0x59E75, size: 0x8, addend: 0x0, symName: '__ZN91_$LT$core..slice..iter..Iter$LT$T$GT$$u20$as$u20$core..iter..traits..iterator..Iterator$GT$4next17h1e2f40829d2ffcb4E', symObjAddr: 0x38A8, symBinAddr: 0x191FC, symSize: 0xCC }
  - { offset: 0x5A175, size: 0x8, addend: 0x0, symName: __ZN4core5slice5index5range17h45d8c5d3884fd9fbE, symObjAddr: 0xE44, symBinAddr: 0x168DC, symSize: 0x284 }
  - { offset: 0x5A381, size: 0x8, addend: 0x0, symName: __ZN4core5slice5index5range17h50dcb9c2dfb84d60E, symObjAddr: 0x10C8, symBinAddr: 0x16B60, symSize: 0x288 }
  - { offset: 0x5A58D, size: 0x8, addend: 0x0, symName: __ZN4core5slice5index5range17h860f5f52e36fb09dE, symObjAddr: 0x1350, symBinAddr: 0x16DE8, symSize: 0x27C }
  - { offset: 0x5A79F, size: 0x8, addend: 0x0, symName: '__ZN97_$LT$core..ops..range..RangeFull$u20$as$u20$core..slice..index..SliceIndex$LT$$u5b$T$u5d$$GT$$GT$5index17hcfe8f541381b3260E', symObjAddr: 0x39C0, symBinAddr: 0x19314, symSize: 0x18 }
  - { offset: 0x5A848, size: 0x8, addend: 0x0, symName: __ZN4core3ops5range11RangeBounds8contains17had4d53f81f04957eE, symObjAddr: 0x6F0, symBinAddr: 0x161E4, symSize: 0x204 }
  - { offset: 0x5AB74, size: 0x8, addend: 0x0, symName: '__ZN73_$LT$core..ops..range..Range$LT$Idx$GT$$u20$as$u20$core..clone..Clone$GT$5clone17hc466c1554d38d1b0E', symObjAddr: 0x36A0, symBinAddr: 0x18FF4, symSize: 0x40 }
  - { offset: 0x5ABF1, size: 0x8, addend: 0x0, symName: '__ZN86_$LT$core..ops..range..RangeFull$u20$as$u20$core..ops..range..RangeBounds$LT$T$GT$$GT$11start_bound17h8a18c892c18d93a4E', symObjAddr: 0x37D0, symBinAddr: 0x19124, symSize: 0x20 }
  - { offset: 0x5AC2B, size: 0x8, addend: 0x0, symName: '__ZN86_$LT$core..ops..range..RangeFull$u20$as$u20$core..ops..range..RangeBounds$LT$T$GT$$GT$9end_bound17h6922f21287f13e48E', symObjAddr: 0x37F0, symBinAddr: 0x19144, symSize: 0x20 }
  - { offset: 0x5AC6C, size: 0x8, addend: 0x0, symName: '__ZN91_$LT$core..ops..range..Range$LT$T$GT$$u20$as$u20$core..ops..range..RangeBounds$LT$T$GT$$GT$11start_bound17h3e6fb2e5edef0fe9E', symObjAddr: 0x3810, symBinAddr: 0x19164, symSize: 0x24 }
  - { offset: 0x5ACA6, size: 0x8, addend: 0x0, symName: '__ZN91_$LT$core..ops..range..Range$LT$T$GT$$u20$as$u20$core..ops..range..RangeBounds$LT$T$GT$$GT$11start_bound17hbe5e816c6e9d4276E', symObjAddr: 0x3834, symBinAddr: 0x19188, symSize: 0x24 }
  - { offset: 0x5ACE0, size: 0x8, addend: 0x0, symName: '__ZN91_$LT$core..ops..range..Range$LT$T$GT$$u20$as$u20$core..ops..range..RangeBounds$LT$T$GT$$GT$9end_bound17h6519caef1418cf74E', symObjAddr: 0x3858, symBinAddr: 0x191AC, symSize: 0x28 }
  - { offset: 0x5AD1A, size: 0x8, addend: 0x0, symName: '__ZN91_$LT$core..ops..range..Range$LT$T$GT$$u20$as$u20$core..ops..range..RangeBounds$LT$T$GT$$GT$9end_bound17hf88136b8d47f364aE', symObjAddr: 0x3880, symBinAddr: 0x191D4, symSize: 0x28 }
  - { offset: 0x5AD5B, size: 0x8, addend: 0x0, symName: '__ZN93_$LT$core..ops..range..RangeTo$LT$T$GT$$u20$as$u20$core..ops..range..RangeBounds$LT$T$GT$$GT$11start_bound17h8d19cbc24ff7b634E', symObjAddr: 0x3974, symBinAddr: 0x192C8, symSize: 0x24 }
  - { offset: 0x5AD95, size: 0x8, addend: 0x0, symName: '__ZN93_$LT$core..ops..range..RangeTo$LT$T$GT$$u20$as$u20$core..ops..range..RangeBounds$LT$T$GT$$GT$9end_bound17h1622baffafc7157dE', symObjAddr: 0x3998, symBinAddr: 0x192EC, symSize: 0x28 }
  - { offset: 0x5AF15, size: 0x8, addend: 0x0, symName: __ZN4core3ops8function6FnOnce9call_once17h492504078051dc00E, symObjAddr: 0x920, symBinAddr: 0x16414, symSize: 0x4C }
  - { offset: 0x5AF5E, size: 0x8, addend: 0x0, symName: __ZN4core3ops8function6FnOnce9call_once17h637d899bfb0c64eaE, symObjAddr: 0x96C, symBinAddr: 0x16460, symSize: 0x4C }
  - { offset: 0x5AFA7, size: 0x8, addend: 0x0, symName: __ZN4core3ops8function6FnOnce9call_once17ha0f860399166aae5E, symObjAddr: 0x9B8, symBinAddr: 0x164AC, symSize: 0x4C }
  - { offset: 0x5AFF0, size: 0x8, addend: 0x0, symName: __ZN4core3ops8function6FnOnce9call_once17hdf67d8b7e1c427bdE, symObjAddr: 0xA30, symBinAddr: 0x164F8, symSize: 0x4C }
  - { offset: 0x5B43A, size: 0x8, addend: 0x0, symName: '__ZN4core3str6traits99_$LT$impl$u20$core..slice..index..SliceIndex$LT$str$GT$$u20$for$u20$core..ops..range..RangeFull$GT$5index17h3a61c19934b9c7eeE', symObjAddr: 0xCF0, symBinAddr: 0x16788, symSize: 0x18 }
  - { offset: 0x5CF64, size: 0x8, addend: 0x0, symName: __ZN5alloc7raw_vec11finish_grow17hea79b1003dff6674E, symObjAddr: 0x2100, symBinAddr: 0x17B44, symSize: 0x320 }
  - { offset: 0x5D505, size: 0x8, addend: 0x0, symName: '__ZN5alloc7raw_vec19RawVec$LT$T$C$A$GT$7reserve21do_reserve_and_handle17hc145121d93ab11b5E', symObjAddr: 0x2E8C, symBinAddr: 0xE9E58, symSize: 0x64 }
  - { offset: 0x5D58D, size: 0x8, addend: 0x0, symName: '__ZN77_$LT$alloc..raw_vec..RawVec$LT$T$C$A$GT$$u20$as$u20$core..ops..drop..Drop$GT$4drop17h50e46cd2d34d18a6E', symObjAddr: 0x3768, symBinAddr: 0x190BC, symSize: 0x68 }
  - { offset: 0x5D780, size: 0x8, addend: 0x0, symName: '__ZN169_$LT$$LT$alloc..collections..vec_deque..drain..Drain$LT$T$C$A$GT$$u20$as$u20$core..ops..drop..Drop$GT$..drop..DropGuard$LT$T$C$A$GT$$u20$as$u20$core..ops..drop..Drop$GT$4drop17h0a5ba35aece547f1E', symObjAddr: 0x0, symBinAddr: 0x15CF4, symSize: 0x1DC }
  - { offset: 0x5DA28, size: 0x8, addend: 0x0, symName: '__ZN169_$LT$$LT$alloc..collections..vec_deque..drain..Drain$LT$T$C$A$GT$$u20$as$u20$core..ops..drop..Drop$GT$..drop..DropGuard$LT$T$C$A$GT$$u20$as$u20$core..ops..drop..Drop$GT$4drop27join_head_and_tail_wrapping17h86c2a1cbb1f07dccE', symObjAddr: 0x1DC, symBinAddr: 0xE9C1C, symSize: 0x200 }
  - { offset: 0x5DE7D, size: 0x8, addend: 0x0, symName: '__ZN98_$LT$alloc..collections..vec_deque..drain..Drain$LT$T$C$A$GT$$u20$as$u20$core..ops..drop..Drop$GT$4drop17hf48b6dd4538f8b93E', symObjAddr: 0x39D8, symBinAddr: 0x1932C, symSize: 0xEC }
  - { offset: 0x5E23E, size: 0x8, addend: 0x0, symName: '__ZN63_$LT$alloc..alloc..Global$u20$as$u20$core..alloc..Allocator$GT$15allocate_zeroed17ha6a41371cfd0ea68E', symObjAddr: 0x3010, symBinAddr: 0x18964, symSize: 0x34 }
  - { offset: 0x5E27B, size: 0x8, addend: 0x0, symName: '__ZN63_$LT$alloc..alloc..Global$u20$as$u20$core..alloc..Allocator$GT$4grow17h4f70572b8e76e45dE', symObjAddr: 0x3044, symBinAddr: 0x18998, symSize: 0x44 }
  - { offset: 0x5E364, size: 0x8, addend: 0x0, symName: '__ZN63_$LT$alloc..alloc..Global$u20$as$u20$core..alloc..Allocator$GT$6shrink17h40186a9cd8c0500cE', symObjAddr: 0x3088, symBinAddr: 0x189DC, symSize: 0x55C }
  - { offset: 0x5EEC2, size: 0x8, addend: 0x0, symName: '__ZN63_$LT$alloc..alloc..Global$u20$as$u20$core..alloc..Allocator$GT$8allocate17h323bd6fe712dacf9E', symObjAddr: 0x35E4, symBinAddr: 0x18F38, symSize: 0x34 }
  - { offset: 0x5EF00, size: 0x8, addend: 0x0, symName: __ZN5alloc5alloc15exchange_malloc17h43325f64da3edbf2E, symObjAddr: 0x1850, symBinAddr: 0x172AC, symSize: 0x90 }
  - { offset: 0x5F065, size: 0x8, addend: 0x0, symName: __ZN5alloc5alloc5alloc17h47c1458e706472adE, symObjAddr: 0x18E0, symBinAddr: 0x1733C, symSize: 0x80 }
  - { offset: 0x5F1CE, size: 0x8, addend: 0x0, symName: __ZN5alloc5alloc7dealloc17hb09972886f70185eE, symObjAddr: 0x2074, symBinAddr: 0x17AD0, symSize: 0x50 }
  - { offset: 0x5F3A1, size: 0x8, addend: 0x0, symName: '__ZN74_$LT$alloc..string..String$u20$as$u20$core..ops..index..Index$LT$I$GT$$GT$5index17h404792c188c48bb5E', symObjAddr: 0x36E0, symBinAddr: 0x19034, symSize: 0x88 }
  - { offset: 0x5FA70, size: 0x8, addend: 0x0, symName: '__ZN4core3ops5range16Range$LT$Idx$GT$8contains17h3f6102bc7662f038E', symObjAddr: 0x8F4, symBinAddr: 0x163E8, symSize: 0x2C }
  - { offset: 0x5FB5B, size: 0x8, addend: 0x0, symName: '__ZN4core5slice4iter13Iter$LT$T$GT$3new17h023e99cbac4fa59eE', symObjAddr: 0xDA4, symBinAddr: 0x1683C, symSize: 0x50 }
  - { offset: 0x5FF32, size: 0x8, addend: 0x0, symName: '__ZN4core6option15Option$LT$T$GT$6expect17h72df3015f9b1d826E', symObjAddr: 0x15CC, symBinAddr: 0x17064, symSize: 0x5C }
  - { offset: 0x5FF71, size: 0x8, addend: 0x0, symName: '__ZN4core6option15Option$LT$T$GT$6expect17hdbc918b883e691adE', symObjAddr: 0x1628, symBinAddr: 0x170C0, symSize: 0x58 }
  - { offset: 0x5FFB0, size: 0x8, addend: 0x0, symName: '__ZN4core6option15Option$LT$T$GT$9unwrap_or17hda94c8acffd514e9E', symObjAddr: 0x1680, symBinAddr: 0x17118, symSize: 0x48 }
  - { offset: 0x601DB, size: 0x8, addend: 0x0, symName: '__ZN5alloc11collections9vec_deque5drain18Drain$LT$T$C$A$GT$9as_slices17hef693a6c0eb0a7d6E', symObjAddr: 0x1740, symBinAddr: 0x1719C, symSize: 0x110 }
  - { offset: 0x60820, size: 0x8, addend: 0x0, symName: __ZN5alloc5alloc6Global10alloc_impl17hbeebb9f3e4bcf6bbE, symObjAddr: 0x1960, symBinAddr: 0x173BC, symSize: 0x20C }
  - { offset: 0x61166, size: 0x8, addend: 0x0, symName: __ZN5alloc5alloc6Global9grow_impl17hbd258e7579f47009E, symObjAddr: 0x1B6C, symBinAddr: 0x175C8, symSize: 0x508 }
  - { offset: 0x61A2F, size: 0x8, addend: 0x0, symName: __ZN5alloc6string6String8as_bytes17h3f505803dfd9795cE, symObjAddr: 0x20DC, symBinAddr: 0x17B20, symSize: 0x24 }
  - { offset: 0x61C5C, size: 0x8, addend: 0x0, symName: '__ZN5alloc7raw_vec19RawVec$LT$T$C$A$GT$13shrink_to_fit17h9147f82573b42910E', symObjAddr: 0x2420, symBinAddr: 0x17E64, symSize: 0xEC }
  - { offset: 0x61DE4, size: 0x8, addend: 0x0, symName: '__ZN5alloc7raw_vec19RawVec$LT$T$C$A$GT$14current_memory17h69cafdd3fc2c980fE', symObjAddr: 0x250C, symBinAddr: 0x17F50, symSize: 0xC8 }
  - { offset: 0x62051, size: 0x8, addend: 0x0, symName: '__ZN5alloc7raw_vec19RawVec$LT$T$C$A$GT$14grow_amortized17h13a3ad9b838355b5E', symObjAddr: 0x25D4, symBinAddr: 0x18018, symSize: 0x2C4 }
  - { offset: 0x62603, size: 0x8, addend: 0x0, symName: '__ZN5alloc7raw_vec19RawVec$LT$T$C$A$GT$15try_allocate_in17h68f0bb8e4ed6ef82E', symObjAddr: 0x2898, symBinAddr: 0x182DC, symSize: 0x284 }
  - { offset: 0x62B22, size: 0x8, addend: 0x0, symName: '__ZN5alloc7raw_vec19RawVec$LT$T$C$A$GT$16shrink_unchecked17h8f6ab0f36a5c3d0aE', symObjAddr: 0x2B1C, symBinAddr: 0x18560, symSize: 0x2C4 }
  - { offset: 0x62F47, size: 0x8, addend: 0x0, symName: '__ZN5alloc7raw_vec19RawVec$LT$T$C$A$GT$16with_capacity_in17h2e2d8faa9c0113f2E', symObjAddr: 0x2DE0, symBinAddr: 0x18824, symSize: 0x5C }
  - { offset: 0x62FEF, size: 0x8, addend: 0x0, symName: '__ZN5alloc7raw_vec19RawVec$LT$T$C$A$GT$17from_raw_parts_in17haaa30e91c998d5b7E', symObjAddr: 0x2E3C, symBinAddr: 0x18880, symSize: 0x50 }
  - { offset: 0x631E2, size: 0x8, addend: 0x0, symName: '__ZN5alloc7raw_vec19RawVec$LT$T$C$A$GT$8into_box17h77b02bc7e1ad66a0E', symObjAddr: 0x2EF0, symBinAddr: 0x188D0, symSize: 0x94 }
  - { offset: 0x639F0, size: 0x8, addend: 0x0, symName: '__ZN74_$LT$bytes..buf..uninit_slice..UninitSlice$u20$as$u20$core..fmt..Debug$GT$3fmt17ha0f9ef2c9e274675E', symObjAddr: 0x3B0C, symBinAddr: 0x19448, symSize: 0x54 }
  - { offset: 0x63A34, size: 0x8, addend: 0x0, symName: '__ZN121_$LT$$RF$mut$u20$bytes..buf..uninit_slice..UninitSlice$u20$as$u20$core..convert..From$LT$$RF$mut$u20$$u5b$u8$u5d$$GT$$GT$4from17h8e268c71da0ada94E', symObjAddr: 0x3B60, symBinAddr: 0x1949C, symSize: 0x28 }
  - { offset: 0x63A69, size: 0x8, addend: 0x0, symName: '__ZN165_$LT$$RF$mut$u20$bytes..buf..uninit_slice..UninitSlice$u20$as$u20$core..convert..From$LT$$RF$mut$u20$$u5b$core..mem..maybe_uninit..MaybeUninit$LT$u8$GT$$u5d$$GT$$GT$4from17h454f11a148d97444E', symObjAddr: 0x3B88, symBinAddr: 0x194C4, symSize: 0x28 }
  - { offset: 0x63AA6, size: 0x8, addend: 0x0, symName: '__ZN5bytes5bytes99_$LT$impl$u20$core..cmp..PartialEq$LT$bytes..bytes..Bytes$GT$$u20$for$u20$alloc..string..String$GT$2eq17hef1d4b4f9f1e4111E', symObjAddr: 0x3BB0, symBinAddr: 0x194EC, symSize: 0x38 }
  - { offset: 0x63AED, size: 0x8, addend: 0x0, symName: '__ZN5bytes5bytes100_$LT$impl$u20$core..cmp..PartialOrd$LT$bytes..bytes..Bytes$GT$$u20$for$u20$alloc..string..String$GT$11partial_cmp17h73b0133a67577444E', symObjAddr: 0x3BE8, symBinAddr: 0x19524, symSize: 0x54 }
  - { offset: 0x63C31, size: 0x8, addend: 0x0, symName: '__ZN5bytes9bytes_mut106_$LT$impl$u20$core..cmp..PartialEq$LT$bytes..bytes_mut..BytesMut$GT$$u20$for$u20$alloc..string..String$GT$2eq17h099f75b5fe2cbd39E', symObjAddr: 0x3C3C, symBinAddr: 0x19578, symSize: 0x38 }
  - { offset: 0x63C78, size: 0x8, addend: 0x0, symName: '__ZN5bytes9bytes_mut107_$LT$impl$u20$core..cmp..PartialOrd$LT$bytes..bytes_mut..BytesMut$GT$$u20$for$u20$alloc..string..String$GT$11partial_cmp17h0d82e2d9ba57a828E', symObjAddr: 0x3C74, symBinAddr: 0x195B0, symSize: 0x54 }
  - { offset: 0x63D72, size: 0x8, addend: 0x0, symName: __ZN5bytes3buf12uninit_slice11UninitSlice3new17h60ab24e7605744d3E, symObjAddr: 0x3AC4, symBinAddr: 0x19418, symSize: 0x18 }
  - { offset: 0x63DF3, size: 0x8, addend: 0x0, symName: __ZN5bytes3buf12uninit_slice11UninitSlice10uninit_ref17hda53c1dee71c754eE, symObjAddr: 0x3AF4, symBinAddr: 0x19430, symSize: 0x18 }
  - { offset: 0x64068, size: 0x8, addend: 0x0, symName: '__ZN153_$LT$core..result..Result$LT$T$C$F$GT$$u20$as$u20$core..ops..try_trait..FromResidual$LT$core..result..Result$LT$core..convert..Infallible$C$E$GT$$GT$$GT$13from_residual17haf30403b90badf88E', symObjAddr: 0x0, symBinAddr: 0x19604, symSize: 0x1C }
  - { offset: 0x64090, size: 0x8, addend: 0x0, symName: __ZN5bytes9bytes_mut13SHARED_VTABLE17h0d93a5c5b2ca45c1E, symObjAddr: 0x6140, symBinAddr: 0x14DAE8, symSize: 0x0 }
  - { offset: 0x643B6, size: 0x8, addend: 0x0, symName: '__ZN68_$LT$bytes..bytes_mut..BytesMut$u20$as$u20$core..ops..drop..Drop$GT$4drop17hafbe3c0e5a063a9dE', symObjAddr: 0x328C, symBinAddr: 0x1C830, symSize: 0x94 }
  - { offset: 0x64421, size: 0x8, addend: 0x0, symName: '__ZN72_$LT$bytes..bytes_mut..BytesMut$u20$as$u20$bytes..buf..buf_impl..Buf$GT$13copy_to_bytes17h3375fbefd74b297dE', symObjAddr: 0x3320, symBinAddr: 0x1C8C4, symSize: 0x40 }
  - { offset: 0x64468, size: 0x8, addend: 0x0, symName: '__ZN74_$LT$bytes..bytes_mut..BytesMut$u20$as$u20$bytes..buf..buf_mut..BufMut$GT$11advance_mut17h2ce4490c3a2d2c79E', symObjAddr: 0x3360, symBinAddr: 0x1C904, symSize: 0xB8 }
  - { offset: 0x644BC, size: 0x8, addend: 0x0, symName: '__ZN74_$LT$bytes..bytes_mut..BytesMut$u20$as$u20$bytes..buf..buf_mut..BufMut$GT$9put_slice17h558e062285d09690E', symObjAddr: 0x3418, symBinAddr: 0x1C9BC, symSize: 0x30 }
  - { offset: 0x644F8, size: 0x8, addend: 0x0, symName: '__ZN74_$LT$bytes..bytes_mut..BytesMut$u20$as$u20$bytes..buf..buf_mut..BufMut$GT$9put_bytes17h1d7cafe24402f6e0E', symObjAddr: 0x3448, symBinAddr: 0x1C9EC, symSize: 0xD8 }
  - { offset: 0x6459E, size: 0x8, addend: 0x0, symName: '__ZN87_$LT$bytes..bytes_mut..BytesMut$u20$as$u20$core..convert..AsRef$LT$$u5b$u8$u5d$$GT$$GT$6as_ref17ha05124c315f73621E', symObjAddr: 0x3520, symBinAddr: 0x1CAC4, symSize: 0x24 }
  - { offset: 0x645D5, size: 0x8, addend: 0x0, symName: '__ZN70_$LT$bytes..bytes_mut..BytesMut$u20$as$u20$core..ops..deref..Deref$GT$5deref17h3b204f92535ac207E', symObjAddr: 0x3544, symBinAddr: 0x1CAE8, symSize: 0x24 }
  - { offset: 0x6460C, size: 0x8, addend: 0x0, symName: '__ZN87_$LT$bytes..bytes_mut..BytesMut$u20$as$u20$core..convert..AsMut$LT$$u5b$u8$u5d$$GT$$GT$6as_mut17h64445c0658c0e12fE', symObjAddr: 0x3568, symBinAddr: 0x1CB0C, symSize: 0x24 }
  - { offset: 0x64643, size: 0x8, addend: 0x0, symName: '__ZN90_$LT$bytes..bytes_mut..BytesMut$u20$as$u20$core..convert..From$LT$$RF$$u5b$u8$u5d$$GT$$GT$4from17h561d1a99d3d46ec1E', symObjAddr: 0x358C, symBinAddr: 0x1CB30, symSize: 0x40 }
  - { offset: 0x6467A, size: 0x8, addend: 0x0, symName: '__ZN81_$LT$bytes..bytes_mut..BytesMut$u20$as$u20$core..convert..From$LT$$RF$str$GT$$GT$4from17hac27d2f7c085459bE', symObjAddr: 0x35CC, symBinAddr: 0x1CB70, symSize: 0x34 }
  - { offset: 0x646B1, size: 0x8, addend: 0x0, symName: '__ZN67_$LT$bytes..bytes_mut..BytesMut$u20$as$u20$core..cmp..PartialEq$GT$2eq17he48facb7cf707961E', symObjAddr: 0x3600, symBinAddr: 0x1CBA4, symSize: 0x64 }
  - { offset: 0x646F8, size: 0x8, addend: 0x0, symName: '__ZN68_$LT$bytes..bytes_mut..BytesMut$u20$as$u20$core..cmp..PartialOrd$GT$11partial_cmp17h418ece690ad9c432E', symObjAddr: 0x3664, symBinAddr: 0x1CC08, symSize: 0x54 }
  - { offset: 0x6473F, size: 0x8, addend: 0x0, symName: '__ZN61_$LT$bytes..bytes_mut..BytesMut$u20$as$u20$core..cmp..Ord$GT$3cmp17hb4de19a0dd2b98a3E', symObjAddr: 0x36B8, symBinAddr: 0x1CC5C, symSize: 0x54 }
  - { offset: 0x64786, size: 0x8, addend: 0x0, symName: '__ZN87_$LT$bytes..bytes_mut..BytesMut$u20$as$u20$core..borrow..Borrow$LT$$u5b$u8$u5d$$GT$$GT$6borrow17h4e784c8f280ec6f8E', symObjAddr: 0x370C, symBinAddr: 0x1CCB0, symSize: 0x24 }
  - { offset: 0x647BD, size: 0x8, addend: 0x0, symName: '__ZN90_$LT$bytes..bytes_mut..BytesMut$u20$as$u20$core..borrow..BorrowMut$LT$$u5b$u8$u5d$$GT$$GT$10borrow_mut17h105c4962ef0bb103E', symObjAddr: 0x3730, symBinAddr: 0x1CCD4, symSize: 0x24 }
  - { offset: 0x647F4, size: 0x8, addend: 0x0, symName: '__ZN65_$LT$bytes..bytes_mut..BytesMut$u20$as$u20$core..clone..Clone$GT$5clone17h1511f4d5c9a81f5eE', symObjAddr: 0x3754, symBinAddr: 0x1CCF8, symSize: 0x48 }
  - { offset: 0x6484B, size: 0x8, addend: 0x0, symName: '__ZN88_$LT$bytes..bytes_mut..BytesMut$u20$as$u20$core..iter..traits..collect..IntoIterator$GT$9into_iter17hca15888d97666ad8E', symObjAddr: 0x379C, symBinAddr: 0x1CD40, symSize: 0x14 }
  - { offset: 0x64883, size: 0x8, addend: 0x0, symName: '__ZN92_$LT$$RF$bytes..bytes_mut..BytesMut$u20$as$u20$core..iter..traits..collect..IntoIterator$GT$9into_iter17h475bfd111756c4bcE', symObjAddr: 0x37B0, symBinAddr: 0x1CD54, symSize: 0x28 }
  - { offset: 0x648B4, size: 0x8, addend: 0x0, symName: __ZN5bytes9bytes_mut16increment_shared17hc70f3605eed9661dE, symObjAddr: 0x37D8, symBinAddr: 0x1CD7C, symSize: 0x4C }
  - { offset: 0x648F8, size: 0x8, addend: 0x0, symName: __ZN5bytes9bytes_mut14release_shared17hd498779eb4bba1b1E, symObjAddr: 0x3824, symBinAddr: 0x1CDC8, symSize: 0x70 }
  - { offset: 0x64924, size: 0x8, addend: 0x0, symName: __ZN5bytes9bytes_mut25original_capacity_to_repr17h8e255d5023f3bff0E, symObjAddr: 0x38CC, symBinAddr: 0x1CE70, symSize: 0x6C }
  - { offset: 0x64994, size: 0x8, addend: 0x0, symName: __ZN5bytes9bytes_mut27original_capacity_from_repr17h2ad4ce6558fd6b38E, symObjAddr: 0x3938, symBinAddr: 0x1CEDC, symSize: 0x8C }
  - { offset: 0x649CA, size: 0x8, addend: 0x0, symName: '__ZN87_$LT$bytes..bytes_mut..BytesMut$u20$as$u20$core..cmp..PartialEq$LT$$u5b$u8$u5d$$GT$$GT$2eq17hb547888afb1f7487E', symObjAddr: 0x39C4, symBinAddr: 0x1CF68, symSize: 0x50 }
  - { offset: 0x64A11, size: 0x8, addend: 0x0, symName: '__ZN88_$LT$bytes..bytes_mut..BytesMut$u20$as$u20$core..cmp..PartialOrd$LT$$u5b$u8$u5d$$GT$$GT$11partial_cmp17hcc1cebf1b4effe4fE', symObjAddr: 0x3A14, symBinAddr: 0x1CFB8, symSize: 0x40 }
  - { offset: 0x64A58, size: 0x8, addend: 0x0, symName: '__ZN5bytes9bytes_mut97_$LT$impl$u20$core..cmp..PartialEq$LT$bytes..bytes_mut..BytesMut$GT$$u20$for$u20$$u5b$u8$u5d$$GT$2eq17he5ac6b2f8bd88650E', symObjAddr: 0x3A54, symBinAddr: 0x1CFF8, symSize: 0x48 }
  - { offset: 0x64A9F, size: 0x8, addend: 0x0, symName: '__ZN5bytes9bytes_mut98_$LT$impl$u20$core..cmp..PartialOrd$LT$bytes..bytes_mut..BytesMut$GT$$u20$for$u20$$u5b$u8$u5d$$GT$11partial_cmp17h8b3ddd50b41c92c0E', symObjAddr: 0x3A9C, symBinAddr: 0x1D040, symSize: 0x50 }
  - { offset: 0x64AE6, size: 0x8, addend: 0x0, symName: '__ZN78_$LT$bytes..bytes_mut..BytesMut$u20$as$u20$core..cmp..PartialEq$LT$str$GT$$GT$2eq17hee21d7f0195d6ac5E', symObjAddr: 0x3AEC, symBinAddr: 0x1D090, symSize: 0x68 }
  - { offset: 0x64B2D, size: 0x8, addend: 0x0, symName: '__ZN79_$LT$bytes..bytes_mut..BytesMut$u20$as$u20$core..cmp..PartialOrd$LT$str$GT$$GT$11partial_cmp17hae33c1a7119d53d7E', symObjAddr: 0x3B54, symBinAddr: 0x1D0F8, symSize: 0x4C }
  - { offset: 0x64B74, size: 0x8, addend: 0x0, symName: '__ZN5bytes9bytes_mut88_$LT$impl$u20$core..cmp..PartialEq$LT$bytes..bytes_mut..BytesMut$GT$$u20$for$u20$str$GT$2eq17he77ef21303ec6e80E', symObjAddr: 0x3BA0, symBinAddr: 0x1D144, symSize: 0x48 }
  - { offset: 0x64BBB, size: 0x8, addend: 0x0, symName: '__ZN5bytes9bytes_mut89_$LT$impl$u20$core..cmp..PartialOrd$LT$bytes..bytes_mut..BytesMut$GT$$u20$for$u20$str$GT$11partial_cmp17h84f062311d3ff85eE', symObjAddr: 0x3BE8, symBinAddr: 0x1D18C, symSize: 0x5C }
  - { offset: 0x64C02, size: 0x8, addend: 0x0, symName: '__ZN100_$LT$bytes..bytes_mut..BytesMut$u20$as$u20$core..cmp..PartialEq$LT$alloc..vec..Vec$LT$u8$GT$$GT$$GT$2eq17hd871b28941e90391E', symObjAddr: 0x3C44, symBinAddr: 0x1D1E8, symSize: 0x54 }
  - { offset: 0x64C49, size: 0x8, addend: 0x0, symName: '__ZN101_$LT$bytes..bytes_mut..BytesMut$u20$as$u20$core..cmp..PartialOrd$LT$alloc..vec..Vec$LT$u8$GT$$GT$$GT$11partial_cmp17hdac70fc8795f9217E', symObjAddr: 0x3C98, symBinAddr: 0x1D23C, symSize: 0x5C }
  - { offset: 0x64C90, size: 0x8, addend: 0x0, symName: '__ZN96_$LT$bytes..bytes_mut..BytesMut$u20$as$u20$core..cmp..PartialEq$LT$alloc..string..String$GT$$GT$2eq17h55d5635cf03247e3E', symObjAddr: 0x3CF4, symBinAddr: 0x1D298, symSize: 0x54 }
  - { offset: 0x64CD7, size: 0x8, addend: 0x0, symName: '__ZN97_$LT$bytes..bytes_mut..BytesMut$u20$as$u20$core..cmp..PartialOrd$LT$alloc..string..String$GT$$GT$11partial_cmp17h875a25f3f1429567E', symObjAddr: 0x3D48, symBinAddr: 0x1D2EC, symSize: 0x54 }
  - { offset: 0x64D1E, size: 0x8, addend: 0x0, symName: '__ZN80_$LT$bytes..bytes_mut..BytesMut$u20$as$u20$core..cmp..PartialEq$LT$$RF$T$GT$$GT$2eq17h4dcaee296221b92dE', symObjAddr: 0x3D9C, symBinAddr: 0x1D340, symSize: 0x38 }
  - { offset: 0x64D68, size: 0x8, addend: 0x0, symName: '__ZN80_$LT$bytes..bytes_mut..BytesMut$u20$as$u20$core..cmp..PartialEq$LT$$RF$T$GT$$GT$2eq17h83498c9bcdac4437E', symObjAddr: 0x3DD4, symBinAddr: 0x1D378, symSize: 0x38 }
  - { offset: 0x64DB9, size: 0x8, addend: 0x0, symName: '__ZN81_$LT$bytes..bytes_mut..BytesMut$u20$as$u20$core..cmp..PartialOrd$LT$$RF$T$GT$$GT$11partial_cmp17h47f39dd6834613e5E', symObjAddr: 0x3E0C, symBinAddr: 0x1D3B0, symSize: 0x38 }
  - { offset: 0x64E0A, size: 0x8, addend: 0x0, symName: '__ZN5bytes9bytes_mut101_$LT$impl$u20$core..cmp..PartialEq$LT$bytes..bytes_mut..BytesMut$GT$$u20$for$u20$$RF$$u5b$u8$u5d$$GT$2eq17h9f528fbc12b0bcabE', symObjAddr: 0x3E44, symBinAddr: 0x1D3E8, symSize: 0x38 }
  - { offset: 0x64E51, size: 0x8, addend: 0x0, symName: '__ZN5bytes9bytes_mut102_$LT$impl$u20$core..cmp..PartialOrd$LT$bytes..bytes_mut..BytesMut$GT$$u20$for$u20$$RF$$u5b$u8$u5d$$GT$11partial_cmp17ha716191312009f96E', symObjAddr: 0x3E7C, symBinAddr: 0x1D420, symSize: 0x58 }
  - { offset: 0x64E98, size: 0x8, addend: 0x0, symName: '__ZN5bytes9bytes_mut92_$LT$impl$u20$core..cmp..PartialEq$LT$bytes..bytes_mut..BytesMut$GT$$u20$for$u20$$RF$str$GT$2eq17h92874326de3fceb5E', symObjAddr: 0x3ED4, symBinAddr: 0x1D478, symSize: 0x38 }
  - { offset: 0x64EDF, size: 0x8, addend: 0x0, symName: '__ZN5bytes9bytes_mut93_$LT$impl$u20$core..cmp..PartialOrd$LT$bytes..bytes_mut..BytesMut$GT$$u20$for$u20$$RF$str$GT$11partial_cmp17h7bf87f6574642220E', symObjAddr: 0x3F0C, symBinAddr: 0x1D4B0, symSize: 0x38 }
  - { offset: 0x64F26, size: 0x8, addend: 0x0, symName: '__ZN94_$LT$bytes..bytes_mut..BytesMut$u20$as$u20$core..cmp..PartialEq$LT$bytes..bytes..Bytes$GT$$GT$2eq17h5825d72da2a1c472E', symObjAddr: 0x3F44, symBinAddr: 0x1D4E8, symSize: 0x8C }
  - { offset: 0x64FA7, size: 0x8, addend: 0x0, symName: __ZN5bytes9bytes_mut4vptr17hde09c0ff34227746E, symObjAddr: 0x3FD0, symBinAddr: 0x1D574, symSize: 0x40 }
  - { offset: 0x64FD7, size: 0x8, addend: 0x0, symName: __ZN5bytes9bytes_mut11invalid_ptr17hbc071f0d4cd3586fE, symObjAddr: 0x4010, symBinAddr: 0x1D5B4, symSize: 0x9C }
  - { offset: 0x65159, size: 0x8, addend: 0x0, symName: __ZN5bytes9bytes_mut11rebuild_vec17hc2bd316c27283401E, symObjAddr: 0x40AC, symBinAddr: 0x1D650, symSize: 0xE4 }
  - { offset: 0x65262, size: 0x8, addend: 0x0, symName: __ZN5bytes9bytes_mut14shared_v_clone17hb729da38a507edf2E, symObjAddr: 0x4190, symBinAddr: 0x1D734, symSize: 0x8C }
  - { offset: 0x652F2, size: 0x8, addend: 0x0, symName: __ZN5bytes9bytes_mut15shared_v_to_vec17h37583a24f224a5dbE, symObjAddr: 0x421C, symBinAddr: 0x1D7C0, symSize: 0x194 }
  - { offset: 0x653D9, size: 0x8, addend: 0x0, symName: __ZN5bytes9bytes_mut15shared_v_to_mut17hc353fe064fcfddd9E, symObjAddr: 0x43B0, symBinAddr: 0x1D954, symSize: 0x1B8 }
  - { offset: 0x65518, size: 0x8, addend: 0x0, symName: __ZN5bytes9bytes_mut18shared_v_is_unique17h91921b3eddfd608eE, symObjAddr: 0x4568, symBinAddr: 0x1DB0C, symSize: 0x54 }
  - { offset: 0x65588, size: 0x8, addend: 0x0, symName: __ZN5bytes9bytes_mut13shared_v_drop17h87877a316c47a8eeE, symObjAddr: 0x45BC, symBinAddr: 0x1DB60, symSize: 0x2C }
  - { offset: 0x655DA, size: 0x8, addend: 0x0, symName: '__ZN5bytes9bytes_mut13shared_v_drop28_$u7b$$u7b$closure$u7d$$u7d$17h2eb782544244d585E', symObjAddr: 0x45E8, symBinAddr: 0x1DB8C, symSize: 0x28 }
  - { offset: 0x656E2, size: 0x8, addend: 0x0, symName: '__ZN5bytes5bytes103_$LT$impl$u20$core..convert..From$LT$bytes..bytes..Bytes$GT$$u20$for$u20$bytes..bytes_mut..BytesMut$GT$4from17h2f09a312c379b050E', symObjAddr: 0x14FC, symBinAddr: 0x1AAB8, symSize: 0x64 }
  - { offset: 0x65761, size: 0x8, addend: 0x0, symName: __ZN5bytes3buf8buf_impl11sign_extend17hf35a84fda5186519E, symObjAddr: 0x1404, symBinAddr: 0x1A9C0, symSize: 0xD0 }
  - { offset: 0x65852, size: 0x8, addend: 0x0, symName: '__ZN5bytes3fmt5debug67_$LT$impl$u20$core..fmt..Debug$u20$for$u20$bytes..fmt..BytesRef$GT$3fmt17h0718567b8eb627d6E', symObjAddr: 0x4610, symBinAddr: 0x1DBB4, symSize: 0x52C }
  - { offset: 0x65BE3, size: 0x8, addend: 0x0, symName: '__ZN5bytes3fmt5debug73_$LT$impl$u20$core..fmt..Debug$u20$for$u20$bytes..bytes_mut..BytesMut$GT$3fmt17hccd45bd3632dc873E', symObjAddr: 0x5074, symBinAddr: 0x1E4AC, symSize: 0x48 }
  - { offset: 0x65C2E, size: 0x8, addend: 0x0, symName: '__ZN5bytes3fmt3hex70_$LT$impl$u20$core..fmt..LowerHex$u20$for$u20$bytes..fmt..BytesRef$GT$3fmt17h52d22bbf077980aaE', symObjAddr: 0x4B3C, symBinAddr: 0x1E0E0, symSize: 0x1C4 }
  - { offset: 0x65DB4, size: 0x8, addend: 0x0, symName: '__ZN5bytes3fmt3hex70_$LT$impl$u20$core..fmt..UpperHex$u20$for$u20$bytes..fmt..BytesRef$GT$3fmt17h1d5c46f62b8c9918E', symObjAddr: 0x4D00, symBinAddr: 0x1E2A4, symSize: 0x1C4 }
  - { offset: 0x65F3A, size: 0x8, addend: 0x0, symName: '__ZN5bytes3fmt3hex76_$LT$impl$u20$core..fmt..LowerHex$u20$for$u20$bytes..bytes_mut..BytesMut$GT$3fmt17h025e02dbcdcde107E', symObjAddr: 0x50BC, symBinAddr: 0x1E4F4, symSize: 0x48 }
  - { offset: 0x65F7E, size: 0x8, addend: 0x0, symName: '__ZN5bytes3fmt3hex76_$LT$impl$u20$core..fmt..UpperHex$u20$for$u20$bytes..bytes_mut..BytesMut$GT$3fmt17h2658ba1fa398339dE', symObjAddr: 0x5104, symBinAddr: 0x1E53C, symSize: 0x48 }
  - { offset: 0x65FD5, size: 0x8, addend: 0x0, symName: __ZN5bytes5abort17h68fac8fd01fa0455E, symObjAddr: 0x4EC4, symBinAddr: 0xE9EBC, symSize: 0xC }
  - { offset: 0x65FEF, size: 0x8, addend: 0x0, symName: __ZN5bytes13panic_advance17hf455f0c0e8fe1ae8E, symObjAddr: 0x4ED0, symBinAddr: 0xE9EC8, symSize: 0xB0 }
  - { offset: 0x66130, size: 0x8, addend: 0x0, symName: __ZN5bytes18panic_does_not_fit17he0c6ab985289328fE, symObjAddr: 0x4F80, symBinAddr: 0xE9F78, symSize: 0xB0 }
  - { offset: 0x66271, size: 0x8, addend: 0x0, symName: __ZN5bytes11offset_from17h5d4c7c5aadfa65c1E, symObjAddr: 0x5030, symBinAddr: 0x1E468, symSize: 0x44 }
  - { offset: 0x6663B, size: 0x8, addend: 0x0, symName: '__ZN4core3ptr8non_null16NonNull$LT$T$GT$13new_unchecked18precondition_check17h1691463b2ff49000E', symObjAddr: 0x838, symBinAddr: 0x19DF4, symSize: 0x3C }
  - { offset: 0x66EE3, size: 0x8, addend: 0x0, symName: '__ZN4core3ptr9const_ptr33_$LT$impl$u20$$BP$const$u20$T$GT$7is_null17h4abba03817689b03E', symObjAddr: 0x8C8, symBinAddr: 0x19E84, symSize: 0x1C }
  - { offset: 0x66F4F, size: 0x8, addend: 0x0, symName: '__ZN4core3ptr9const_ptr33_$LT$impl$u20$$BP$const$u20$T$GT$7sub_ptr18precondition_check17h8f145ecb0ae91e49E', symObjAddr: 0x8E4, symBinAddr: 0x19EA0, symSize: 0x40 }
  - { offset: 0x67720, size: 0x8, addend: 0x0, symName: '__ZN4core3fmt3num52_$LT$impl$u20$core..fmt..Debug$u20$for$u20$usize$GT$3fmt17hc07f0601818b2392E', symObjAddr: 0x7A8, symBinAddr: 0x19D64, symSize: 0x90 }
  - { offset: 0x677E7, size: 0x8, addend: 0x0, symName: __ZN4core3cmp3Ord3max17h8297b92854bb89bdE, symObjAddr: 0x514, symBinAddr: 0x19B08, symSize: 0x24 }
  - { offset: 0x67831, size: 0x8, addend: 0x0, symName: __ZN4core3cmp3Ord3min17h23b68bc217c223aaE, symObjAddr: 0x538, symBinAddr: 0x19B2C, symSize: 0x24 }
  - { offset: 0x6787C, size: 0x8, addend: 0x0, symName: __ZN4core3cmp3max17hced1bba9eed4e484E, symObjAddr: 0x55C, symBinAddr: 0x19B50, symSize: 0x24 }
  - { offset: 0x678C6, size: 0x8, addend: 0x0, symName: __ZN4core3cmp3min17h0e5d6adc778f3f08E, symObjAddr: 0x580, symBinAddr: 0x19B74, symSize: 0x24 }
  - { offset: 0x6791C, size: 0x8, addend: 0x0, symName: '__ZN4core3cmp5impls69_$LT$impl$u20$core..cmp..PartialEq$LT$$RF$B$GT$$u20$for$u20$$RF$A$GT$2eq17h58551347e7c1e4a7E', symObjAddr: 0x5DC, symBinAddr: 0x19B98, symSize: 0x44 }
  - { offset: 0x67972, size: 0x8, addend: 0x0, symName: __ZN4core3cmp6max_by17h232fd91d9e244753E, symObjAddr: 0x620, symBinAddr: 0x19BDC, symSize: 0xC0 }
  - { offset: 0x679D6, size: 0x8, addend: 0x0, symName: __ZN4core3cmp6min_by17h5aa18ade07119fdfE, symObjAddr: 0x6E0, symBinAddr: 0x19C9C, symSize: 0xC8 }
  - { offset: 0x67A6D, size: 0x8, addend: 0x0, symName: '__ZN153_$LT$core..result..Result$LT$T$C$F$GT$$u20$as$u20$core..ops..try_trait..FromResidual$LT$core..result..Result$LT$core..convert..Infallible$C$E$GT$$GT$$GT$13from_residual17haf30403b90badf88E', symObjAddr: 0x0, symBinAddr: 0x19604, symSize: 0x1C }
  - { offset: 0x67C26, size: 0x8, addend: 0x0, symName: '__ZN79_$LT$core..result..Result$LT$T$C$E$GT$$u20$as$u20$core..ops..try_trait..Try$GT$6branch17haabe4a27a0a62dd7E', symObjAddr: 0x13CC, symBinAddr: 0x1A988, symSize: 0x38 }
  - { offset: 0x67DBB, size: 0x8, addend: 0x0, symName: __ZN4core10intrinsics11size_of_val17h17604378e800d352E, symObjAddr: 0x1C, symBinAddr: 0x19620, symSize: 0x10 }
  - { offset: 0x67DF5, size: 0x8, addend: 0x0, symName: __ZN4core10intrinsics11size_of_val17h2edaf5985421ed87E, symObjAddr: 0x2C, symBinAddr: 0x19630, symSize: 0xC }
  - { offset: 0x67E2F, size: 0x8, addend: 0x0, symName: __ZN4core10intrinsics11size_of_val17hd1a49061603bd3c9E, symObjAddr: 0x38, symBinAddr: 0x1963C, symSize: 0xC }
  - { offset: 0x67E6F, size: 0x8, addend: 0x0, symName: __ZN4core10intrinsics11write_bytes18precondition_check17h5df01c069ac4a93cE, symObjAddr: 0x44, symBinAddr: 0x19648, symSize: 0xEC }
  - { offset: 0x67FDA, size: 0x8, addend: 0x0, symName: __ZN4core10intrinsics16min_align_of_val17h0b1b8ec18677f7a6E, symObjAddr: 0x130, symBinAddr: 0x19734, symSize: 0xC }
  - { offset: 0x68014, size: 0x8, addend: 0x0, symName: __ZN4core10intrinsics16min_align_of_val17h25a43c88283734e9E, symObjAddr: 0x13C, symBinAddr: 0x19740, symSize: 0x10 }
  - { offset: 0x6804E, size: 0x8, addend: 0x0, symName: __ZN4core10intrinsics16min_align_of_val17hf4db97eb1174c347E, symObjAddr: 0x14C, symBinAddr: 0x19750, symSize: 0xC }
  - { offset: 0x6808E, size: 0x8, addend: 0x0, symName: __ZN4core10intrinsics19copy_nonoverlapping18precondition_check17h42ea468253aea2efE, symObjAddr: 0x158, symBinAddr: 0x1975C, symSize: 0x1EC }
  - { offset: 0x683B5, size: 0x8, addend: 0x0, symName: __ZN4core10intrinsics23is_val_statically_known17h3da5a7a536475cf9E, symObjAddr: 0x344, symBinAddr: 0x19948, symSize: 0x18 }
  - { offset: 0x683F5, size: 0x8, addend: 0x0, symName: __ZN4core10intrinsics4copy18precondition_check17h477bffcc95756cceE, symObjAddr: 0x35C, symBinAddr: 0x19960, symSize: 0x1A8 }
  - { offset: 0x68B7D, size: 0x8, addend: 0x0, symName: __ZN4core9ub_checks17is_nonoverlapping7runtime17hf78a0d4723ca45abE, symObjAddr: 0xD50, symBinAddr: 0x1A30C, symSize: 0xE4 }
  - { offset: 0x69047, size: 0x8, addend: 0x0, symName: __ZN4core4hint16assert_unchecked18precondition_check17h7895e8387fddec6fE, symObjAddr: 0x924, symBinAddr: 0x19EE0, symSize: 0x38 }
  - { offset: 0x6907F, size: 0x8, addend: 0x0, symName: __ZN4core5slice3raw14from_raw_parts17h7852f2423dc940e1E, symObjAddr: 0x95C, symBinAddr: 0x19F18, symSize: 0x50 }
  - { offset: 0x690CC, size: 0x8, addend: 0x0, symName: __ZN4core5slice3raw14from_raw_parts18precondition_check17h7958e4eac40c5e4fE, symObjAddr: 0x9AC, symBinAddr: 0x19F68, symSize: 0x164 }
  - { offset: 0x69293, size: 0x8, addend: 0x0, symName: __ZN4core5slice3raw18from_raw_parts_mut17hbe29a9e63ecf3e8cE, symObjAddr: 0xB10, symBinAddr: 0x1A0CC, symSize: 0x50 }
  - { offset: 0x692DA, size: 0x8, addend: 0x0, symName: __ZN4core5slice3raw18from_raw_parts_mut17hceeb2148e9a180ffE, symObjAddr: 0xB60, symBinAddr: 0x1A11C, symSize: 0x50 }
  - { offset: 0x69327, size: 0x8, addend: 0x0, symName: __ZN4core5slice3raw18from_raw_parts_mut18precondition_check17h4b5a03f969f052feE, symObjAddr: 0xBB0, symBinAddr: 0x1A16C, symSize: 0x164 }
  - { offset: 0x6995E, size: 0x8, addend: 0x0, symName: '__ZN63_$LT$$RF$mut$u20$T$u20$as$u20$core..convert..AsRef$LT$U$GT$$GT$6as_ref17h0d761b6d16108924E', symObjAddr: 0x1090, symBinAddr: 0x1A64C, symSize: 0x28 }
  - { offset: 0x69B87, size: 0x8, addend: 0x0, symName: '__ZN63_$LT$u8$u20$as$u20$alloc..vec..spec_from_elem..SpecFromElem$GT$9from_elem17h5d093abc24cbceb2E', symObjAddr: 0x10B8, symBinAddr: 0x1A674, symSize: 0x164 }
  - { offset: 0x69F5B, size: 0x8, addend: 0x0, symName: '__ZN52_$LT$T$u20$as$u20$alloc..slice..hack..ConvertVec$GT$6to_vec17h47541a44ce7d4dc9E', symObjAddr: 0xE34, symBinAddr: 0x1A3F0, symSize: 0x108 }
  - { offset: 0x6A241, size: 0x8, addend: 0x0, symName: '__ZN5alloc5slice29_$LT$impl$u20$$u5b$T$u5d$$GT$6to_vec17h645850da61d8d840E', symObjAddr: 0x1068, symBinAddr: 0x1A624, symSize: 0x28 }
  - { offset: 0x6A3EA, size: 0x8, addend: 0x0, symName: '__ZN5alloc5boxed16Box$LT$T$C$A$GT$8into_raw17ha878d91be99f6197E', symObjAddr: 0xFA4, symBinAddr: 0x1A560, symSize: 0x3C }
  - { offset: 0x6A525, size: 0x8, addend: 0x0, symName: '__ZN5alloc5boxed16Box$LT$T$C$A$GT$8into_raw17hc13fbdad597990fdE', symObjAddr: 0xFE0, symBinAddr: 0x1A59C, symSize: 0x3C }
  - { offset: 0x6A660, size: 0x8, addend: 0x0, symName: '__ZN5alloc5boxed16Box$LT$T$C$A$GT$8into_raw17hed35dc3a55eb090dE', symObjAddr: 0x101C, symBinAddr: 0x1A5D8, symSize: 0x4C }
  - { offset: 0x6A739, size: 0x8, addend: 0x0, symName: '__ZN5alloc5boxed12Box$LT$T$GT$8from_raw17h64f7236d10e8a926E', symObjAddr: 0xF3C, symBinAddr: 0x1A4F8, symSize: 0x34 }
  - { offset: 0x6A808, size: 0x8, addend: 0x0, symName: '__ZN5alloc5boxed12Box$LT$T$GT$8from_raw17h8118da65497f9b20E', symObjAddr: 0xF70, symBinAddr: 0x1A52C, symSize: 0x34 }
  - { offset: 0x6A8DE, size: 0x8, addend: 0x0, symName: '__ZN72_$LT$alloc..boxed..Box$LT$T$C$A$GT$$u20$as$u20$core..ops..drop..Drop$GT$4drop17hb8fc3a2bd02ec900E', symObjAddr: 0x121C, symBinAddr: 0x1A7D8, symSize: 0x8C }
  - { offset: 0x6AAEB, size: 0x8, addend: 0x0, symName: '__ZN72_$LT$alloc..boxed..Box$LT$T$C$A$GT$$u20$as$u20$core..ops..drop..Drop$GT$4drop17hb9fcf3748dc1c4ebE', symObjAddr: 0x12A8, symBinAddr: 0x1A864, symSize: 0x8C }
  - { offset: 0x6ACF8, size: 0x8, addend: 0x0, symName: '__ZN72_$LT$alloc..boxed..Box$LT$T$C$A$GT$$u20$as$u20$core..ops..drop..Drop$GT$4drop17hd269463224d2c580E', symObjAddr: 0x1334, symBinAddr: 0x1A8F0, symSize: 0x98 }
  - { offset: 0x6B22B, size: 0x8, addend: 0x0, symName: '__ZN4core3ptr8non_null16NonNull$LT$T$GT$3new17h0f57a9e7d0ab8e97E', symObjAddr: 0x874, symBinAddr: 0x19E30, symSize: 0x54 }
  - { offset: 0x6B2E5, size: 0x8, addend: 0x0, symName: '__ZN4core6result19Result$LT$T$C$E$GT$5is_ok17hd0c47872d3b8e476E', symObjAddr: 0xD14, symBinAddr: 0x1A2D0, symSize: 0x3C }
  - { offset: 0x6BBA7, size: 0x8, addend: 0x0, symName: '__ZN5bytes3buf4iter17IntoIter$LT$T$GT$3new17ha1a79d4ca81911f6E', symObjAddr: 0x14D4, symBinAddr: 0x1AA90, symSize: 0x14 }
  - { offset: 0x6BBD5, size: 0x8, addend: 0x0, symName: '__ZN5bytes3buf4iter17IntoIter$LT$T$GT$3new17he24ece6b880c8d3eE', symObjAddr: 0x14E8, symBinAddr: 0x1AAA4, symSize: 0x14 }
  - { offset: 0x6BC2F, size: 0x8, addend: 0x0, symName: __ZN5bytes9bytes_mut8BytesMut8is_empty17h772dac698f4ee235E, symObjAddr: 0x1578, symBinAddr: 0x1AB1C, symSize: 0x20 }
  - { offset: 0x6BC53, size: 0x8, addend: 0x0, symName: __ZN5bytes9bytes_mut8BytesMut8capacity17h27020847b1b2aa29E, symObjAddr: 0x1598, symBinAddr: 0x1AB3C, symSize: 0x18 }
  - { offset: 0x6BC95, size: 0x8, addend: 0x0, symName: __ZN5bytes9bytes_mut8BytesMut6freeze17h58f7181b69a46278E, symObjAddr: 0x15B0, symBinAddr: 0x1AB54, symSize: 0x1F0 }
  - { offset: 0x6BDE8, size: 0x8, addend: 0x0, symName: __ZN5bytes9bytes_mut8BytesMut6zeroed17hd34eafde958cbe44E, symObjAddr: 0x17A0, symBinAddr: 0x1AD44, symSize: 0x40 }
  - { offset: 0x6BEA0, size: 0x8, addend: 0x0, symName: __ZN5bytes9bytes_mut8BytesMut9split_off17he9f7092d9ad548bcE, symObjAddr: 0x17E0, symBinAddr: 0x1AD84, symSize: 0x17C }
  - { offset: 0x6BFFD, size: 0x8, addend: 0x0, symName: __ZN5bytes9bytes_mut8BytesMut5split17heb212863511b9fa3E, symObjAddr: 0x195C, symBinAddr: 0x1AF00, symSize: 0x40 }
  - { offset: 0x6C042, size: 0x8, addend: 0x0, symName: __ZN5bytes9bytes_mut8BytesMut8split_to17hee1f55aa7aec8a55E, symObjAddr: 0x199C, symBinAddr: 0x1AF40, symSize: 0x15C }
  - { offset: 0x6C19F, size: 0x8, addend: 0x0, symName: __ZN5bytes9bytes_mut8BytesMut8truncate17he5f98316bb2e3fc4E, symObjAddr: 0x1AF8, symBinAddr: 0x1B09C, symSize: 0x50 }
  - { offset: 0x6C1D4, size: 0x8, addend: 0x0, symName: __ZN5bytes9bytes_mut8BytesMut5clear17h25e3beaa6423cef8E, symObjAddr: 0x1B48, symBinAddr: 0x1B0EC, symSize: 0x28 }
  - { offset: 0x6C207, size: 0x8, addend: 0x0, symName: __ZN5bytes9bytes_mut8BytesMut6resize17ha1802550ec0b8728E, symObjAddr: 0x1B70, symBinAddr: 0x1B114, symSize: 0xF0 }
  - { offset: 0x6C2D8, size: 0x8, addend: 0x0, symName: __ZN5bytes9bytes_mut8BytesMut7set_len17h25d703dd1ff404ecE, symObjAddr: 0x1C60, symBinAddr: 0x1B204, symSize: 0x64 }
  - { offset: 0x6C30D, size: 0x8, addend: 0x0, symName: __ZN5bytes9bytes_mut8BytesMut7reserve17h8950fd2936bca9ebE, symObjAddr: 0x1CC4, symBinAddr: 0x1B268, symSize: 0x98 }
  - { offset: 0x6C39F, size: 0x8, addend: 0x0, symName: __ZN5bytes9bytes_mut8BytesMut13reserve_inner17h6d25e40a03428143E, symObjAddr: 0x1D5C, symBinAddr: 0x1B300, symSize: 0x8FC }
  - { offset: 0x6C831, size: 0x8, addend: 0x0, symName: __ZN5bytes9bytes_mut8BytesMut17extend_from_slice17h5d9e271ca71c1f44E, symObjAddr: 0x2658, symBinAddr: 0x1BBFC, symSize: 0xF8 }
  - { offset: 0x6C8DA, size: 0x8, addend: 0x0, symName: __ZN5bytes9bytes_mut8BytesMut7unsplit17heafe6f96ba8d7e8dE, symObjAddr: 0x2750, symBinAddr: 0x1BCF4, symSize: 0x1D0 }
  - { offset: 0x6C928, size: 0x8, addend: 0x0, symName: __ZN5bytes9bytes_mut8BytesMut8from_vec17hfa53f1f350446e1aE, symObjAddr: 0x2920, symBinAddr: 0x1BEC4, symSize: 0xC0 }
  - { offset: 0x6CA2F, size: 0x8, addend: 0x0, symName: __ZN5bytes9bytes_mut8BytesMut8as_slice17h78cba39cdc074be9E, symObjAddr: 0x29E0, symBinAddr: 0x1BF84, symSize: 0x34 }
  - { offset: 0x6CA73, size: 0x8, addend: 0x0, symName: __ZN5bytes9bytes_mut8BytesMut12as_slice_mut17hc3e22f6d1f85d7cdE, symObjAddr: 0x2A14, symBinAddr: 0x1BFB8, symSize: 0x34 }
  - { offset: 0x6CA98, size: 0x8, addend: 0x0, symName: __ZN5bytes9bytes_mut8BytesMut17advance_unchecked17hb3b977f3e260d573E, symObjAddr: 0x2A48, symBinAddr: 0x1BFEC, symSize: 0x160 }
  - { offset: 0x6CB45, size: 0x8, addend: 0x0, symName: __ZN5bytes9bytes_mut8BytesMut11try_unsplit17h7922b3112800575fE, symObjAddr: 0x2BA8, symBinAddr: 0x1C14C, symSize: 0x21C }
  - { offset: 0x6CBFC, size: 0x8, addend: 0x0, symName: __ZN5bytes9bytes_mut8BytesMut4kind17h68467f01e9ce5f52E, symObjAddr: 0x2DC4, symBinAddr: 0x1C368, symSize: 0x1C }
  - { offset: 0x6CC21, size: 0x8, addend: 0x0, symName: __ZN5bytes9bytes_mut8BytesMut17promote_to_shared17h70c7a2376176ab77E, symObjAddr: 0x2DE0, symBinAddr: 0x1C384, symSize: 0x254 }
  - { offset: 0x6CD90, size: 0x8, addend: 0x0, symName: __ZN5bytes9bytes_mut8BytesMut13shallow_clone17h20b7747df867ca61E, symObjAddr: 0x3034, symBinAddr: 0x1C5D8, symSize: 0x70 }
  - { offset: 0x6CDB5, size: 0x8, addend: 0x0, symName: __ZN5bytes9bytes_mut8BytesMut11get_vec_pos17h24967f4f417e3861E, symObjAddr: 0x30A4, symBinAddr: 0x1C648, symSize: 0x8C }
  - { offset: 0x6CE2A, size: 0x8, addend: 0x0, symName: __ZN5bytes9bytes_mut8BytesMut11set_vec_pos17ha0b022fa84a3110aE, symObjAddr: 0x3130, symBinAddr: 0x1C6D4, symSize: 0xD4 }
  - { offset: 0x6CED8, size: 0x8, addend: 0x0, symName: __ZN5bytes9bytes_mut8BytesMut18spare_capacity_mut17h573a964a65540233E, symObjAddr: 0x3204, symBinAddr: 0x1C7A8, symSize: 0x88 }
  - { offset: 0x6CF64, size: 0x8, addend: 0x0, symName: __ZN5bytes9bytes_mut6Shared9is_unique17h951654c308601775E, symObjAddr: 0x3894, symBinAddr: 0x1CE38, symSize: 0x38 }
  - { offset: 0x6D256, size: 0x8, addend: 0x0, symName: '__ZN132_$LT$alloc..vec..Vec$LT$T$C$A$GT$$u20$as$u20$alloc..vec..spec_extend..SpecExtend$LT$$RF$T$C$core..slice..iter..Iter$LT$T$GT$$GT$$GT$11spec_extend17hb668de4d6afff2f7E', symObjAddr: 0x0, symBinAddr: 0x1E584, symSize: 0xA8 }
  - { offset: 0x6D317, size: 0x8, addend: 0x0, symName: __ZN4core5alloc6layout6Layout5array5inner17hf94c6f64326ed031E, symObjAddr: 0x1A4C, symBinAddr: 0x1FDF4, symSize: 0xF4 }
  - { offset: 0x6D443, size: 0x8, addend: 0x0, symName: '__ZN69_$LT$core..alloc..layout..LayoutError$u20$as$u20$core..fmt..Debug$GT$3fmt17hdab935ddf0921f85E', symObjAddr: 0x2114, symBinAddr: 0x204BC, symSize: 0x40 }
  - { offset: 0x6D6C0, size: 0x8, addend: 0x0, symName: __ZN4core4sync6atomic11atomic_load17h0d1140afd8480515E, symObjAddr: 0xB20, symBinAddr: 0x1EEC8, symSize: 0x14C }
  - { offset: 0x6D738, size: 0x8, addend: 0x0, symName: __ZN4core4sync6atomic11atomic_load17h59f50b5c78f2549eE, symObjAddr: 0xC6C, symBinAddr: 0x1F014, symSize: 0x14C }
  - { offset: 0x6D7B0, size: 0x8, addend: 0x0, symName: __ZN4core4sync6atomic23atomic_compare_exchange17h911fb6d2a1c8572bE, symObjAddr: 0xE64, symBinAddr: 0x1F20C, symSize: 0x590 }
  - { offset: 0x6D884, size: 0x8, addend: 0x0, symName: __ZN4core4sync6atomic23atomic_compare_exchange17h93f348133c9463aaE, symObjAddr: 0x13F4, symBinAddr: 0x1F79C, symSize: 0x590 }
  - { offset: 0x6E2F2, size: 0x8, addend: 0x0, symName: __ZN4core3ptr13read_volatile18precondition_check17hef388eef52b867dbE, symObjAddr: 0x52C, symBinAddr: 0x1E904, symSize: 0xEC }
  - { offset: 0x6E45D, size: 0x8, addend: 0x0, symName: __ZN4core3ptr4read17he2a5e084c2ce1326E, symObjAddr: 0x618, symBinAddr: 0x1E9F0, symSize: 0x24 }
  - { offset: 0x6E903, size: 0x8, addend: 0x0, symName: '__ZN42_$LT$$RF$T$u20$as$u20$core..fmt..Debug$GT$3fmt17h1a14e0e6f6547e77E', symObjAddr: 0xA8, symBinAddr: 0x1E62C, symSize: 0x30 }
  - { offset: 0x6EB17, size: 0x8, addend: 0x0, symName: '__ZN54_$LT$$BP$const$u20$T$u20$as$u20$core..fmt..Pointer$GT$3fmt17h53b1244109149d8fE', symObjAddr: 0x1BE0, symBinAddr: 0x1FF88, symSize: 0x34 }
  - { offset: 0x6EB68, size: 0x8, addend: 0x0, symName: '__ZN52_$LT$$BP$const$u20$T$u20$as$u20$core..fmt..Debug$GT$3fmt17hab19e289680fad17E', symObjAddr: 0x1BAC, symBinAddr: 0x1FF54, symSize: 0x34 }
  - { offset: 0x6ED92, size: 0x8, addend: 0x0, symName: '__ZN4core5slice29_$LT$impl$u20$$u5b$T$u5d$$GT$4iter17hab86b24d6d4cb25aE', symObjAddr: 0x1B40, symBinAddr: 0x1FEE8, symSize: 0x28 }
  - { offset: 0x6EDCC, size: 0x8, addend: 0x0, symName: '__ZN4core5slice29_$LT$impl$u20$$u5b$T$u5d$$GT$8is_empty17h266ccfa3da4222e4E', symObjAddr: 0x1B68, symBinAddr: 0x1FF10, symSize: 0x1C }
  - { offset: 0x6EEE3, size: 0x8, addend: 0x0, symName: __ZN4core3mem4drop17h3230cc4ce980e3f5E, symObjAddr: 0x46C, symBinAddr: 0x1E844, symSize: 0x28 }
  - { offset: 0x6EF19, size: 0x8, addend: 0x0, symName: __ZN4core3mem4drop17h9a7213070c2cdba3E, symObjAddr: 0x494, symBinAddr: 0x1E86C, symSize: 0x28 }
  - { offset: 0x6EF4F, size: 0x8, addend: 0x0, symName: __ZN4core3mem6forget17h4a86ac9815af47f2E, symObjAddr: 0x4BC, symBinAddr: 0x1E894, symSize: 0x4 }
  - { offset: 0x6EF80, size: 0x8, addend: 0x0, symName: __ZN4core3mem7replace17h1335045d060a8b44E, symObjAddr: 0x4C0, symBinAddr: 0x1E898, symSize: 0x34 }
  - { offset: 0x6F051, size: 0x8, addend: 0x0, symName: __ZN4core3mem7replace17h8fbf058630bbc12eE, symObjAddr: 0x4F4, symBinAddr: 0x1E8CC, symSize: 0x38 }
  - { offset: 0x6F989, size: 0x8, addend: 0x0, symName: '__ZN50_$LT$T$u20$as$u20$core..convert..Into$LT$U$GT$$GT$4into17h310f53d8f9bfc623E', symObjAddr: 0x1B84, symBinAddr: 0x1FF2C, symSize: 0x14 }
  - { offset: 0x6F9CE, size: 0x8, addend: 0x0, symName: '__ZN50_$LT$T$u20$as$u20$core..convert..Into$LT$U$GT$$GT$4into17h7f48c3178f9eee89E', symObjAddr: 0x1B98, symBinAddr: 0x1FF40, symSize: 0x14 }
  - { offset: 0x6FB3E, size: 0x8, addend: 0x0, symName: __ZN5bytes5bytes12OWNED_VTABLE17hcfef8f4abf9f2676E, symObjAddr: 0x6ED0, symBinAddr: 0x14E1C8, symSize: 0x0 }
  - { offset: 0x6FD4A, size: 0x8, addend: 0x0, symName: __ZN5bytes5bytes22PROMOTABLE_EVEN_VTABLE17hb9ccb08b068ac5b9E, symObjAddr: 0x6EF8, symBinAddr: 0x14E1F0, symSize: 0x0 }
  - { offset: 0x6FD66, size: 0x8, addend: 0x0, symName: __ZN5bytes5bytes21PROMOTABLE_ODD_VTABLE17hd21e1875937fca9dE, symObjAddr: 0x6F20, symBinAddr: 0x14E218, symSize: 0x0 }
  - { offset: 0x6FD82, size: 0x8, addend: 0x0, symName: __ZN5bytes5bytes13SHARED_VTABLE17h4208c1ef75fa67e6E, symObjAddr: 0x7050, symBinAddr: 0x14E348, symSize: 0x0 }
  - { offset: 0x6FD96, size: 0x8, addend: 0x0, symName: '__ZN61_$LT$bytes..bytes..Bytes$u20$as$u20$core..ops..drop..Drop$GT$4drop17h1796b28f80e74636E', symObjAddr: 0x3218, symBinAddr: 0x215A8, symSize: 0x38 }
  - { offset: 0x6FDC9, size: 0x8, addend: 0x0, symName: '__ZN58_$LT$bytes..bytes..Bytes$u20$as$u20$core..clone..Clone$GT$5clone17hc3c59214fbd2290cE', symObjAddr: 0x3250, symBinAddr: 0x215E0, symSize: 0x38 }
  - { offset: 0x6FE00, size: 0x8, addend: 0x0, symName: '__ZN65_$LT$bytes..bytes..Bytes$u20$as$u20$bytes..buf..buf_impl..Buf$GT$7advance17hae7899384e6280f2E', symObjAddr: 0x3288, symBinAddr: 0x21618, symSize: 0xFC }
  - { offset: 0x6FF4B, size: 0x8, addend: 0x0, symName: '__ZN65_$LT$bytes..bytes..Bytes$u20$as$u20$bytes..buf..buf_impl..Buf$GT$13copy_to_bytes17h066fae708f7dd9b4E', symObjAddr: 0x3384, symBinAddr: 0x21714, symSize: 0x28 }
  - { offset: 0x6FF92, size: 0x8, addend: 0x0, symName: '__ZN63_$LT$bytes..bytes..Bytes$u20$as$u20$core..ops..deref..Deref$GT$5deref17h0cb07cfd40ba71e2E', symObjAddr: 0x33AC, symBinAddr: 0x2173C, symSize: 0x24 }
  - { offset: 0x6FFC9, size: 0x8, addend: 0x0, symName: '__ZN80_$LT$bytes..bytes..Bytes$u20$as$u20$core..borrow..Borrow$LT$$u5b$u8$u5d$$GT$$GT$6borrow17h3cfb380a10ec2d92E', symObjAddr: 0x33F4, symBinAddr: 0x21760, symSize: 0x24 }
  - { offset: 0x70000, size: 0x8, addend: 0x0, symName: '__ZN81_$LT$bytes..bytes..Bytes$u20$as$u20$core..iter..traits..collect..IntoIterator$GT$9into_iter17h035faae673d7848cE', symObjAddr: 0x3418, symBinAddr: 0x21784, symSize: 0x14 }
  - { offset: 0x70038, size: 0x8, addend: 0x0, symName: '__ZN85_$LT$$RF$bytes..bytes..Bytes$u20$as$u20$core..iter..traits..collect..IntoIterator$GT$9into_iter17hcdaa998d343a6215E', symObjAddr: 0x342C, symBinAddr: 0x21798, symSize: 0x28 }
  - { offset: 0x7006F, size: 0x8, addend: 0x0, symName: '__ZN60_$LT$bytes..bytes..Bytes$u20$as$u20$core..cmp..PartialEq$GT$2eq17h78d3ec35d295c699E', symObjAddr: 0x3454, symBinAddr: 0x217C0, symSize: 0x64 }
  - { offset: 0x700B6, size: 0x8, addend: 0x0, symName: '__ZN61_$LT$bytes..bytes..Bytes$u20$as$u20$core..cmp..PartialOrd$GT$11partial_cmp17h89d807b782b3bdbcE', symObjAddr: 0x34B8, symBinAddr: 0x21824, symSize: 0x54 }
  - { offset: 0x700FD, size: 0x8, addend: 0x0, symName: '__ZN54_$LT$bytes..bytes..Bytes$u20$as$u20$core..cmp..Ord$GT$3cmp17h7fff7e59511b1274E', symObjAddr: 0x350C, symBinAddr: 0x21878, symSize: 0x54 }
  - { offset: 0x70144, size: 0x8, addend: 0x0, symName: '__ZN80_$LT$bytes..bytes..Bytes$u20$as$u20$core..cmp..PartialEq$LT$$u5b$u8$u5d$$GT$$GT$2eq17h4dded5681447f5beE', symObjAddr: 0x3560, symBinAddr: 0x218CC, symSize: 0x50 }
  - { offset: 0x7018B, size: 0x8, addend: 0x0, symName: '__ZN81_$LT$bytes..bytes..Bytes$u20$as$u20$core..cmp..PartialOrd$LT$$u5b$u8$u5d$$GT$$GT$11partial_cmp17h22b816f98482ed2dE', symObjAddr: 0x35B0, symBinAddr: 0x2191C, symSize: 0x40 }
  - { offset: 0x701D2, size: 0x8, addend: 0x0, symName: '__ZN5bytes5bytes90_$LT$impl$u20$core..cmp..PartialEq$LT$bytes..bytes..Bytes$GT$$u20$for$u20$$u5b$u8$u5d$$GT$2eq17h70a5f82ce695db71E', symObjAddr: 0x35F0, symBinAddr: 0x2195C, symSize: 0x48 }
  - { offset: 0x70219, size: 0x8, addend: 0x0, symName: '__ZN5bytes5bytes91_$LT$impl$u20$core..cmp..PartialOrd$LT$bytes..bytes..Bytes$GT$$u20$for$u20$$u5b$u8$u5d$$GT$11partial_cmp17h24f900b93cb00589E', symObjAddr: 0x3638, symBinAddr: 0x219A4, symSize: 0x50 }
  - { offset: 0x70260, size: 0x8, addend: 0x0, symName: '__ZN71_$LT$bytes..bytes..Bytes$u20$as$u20$core..cmp..PartialEq$LT$str$GT$$GT$2eq17h0cb29d69d422859aE', symObjAddr: 0x3688, symBinAddr: 0x219F4, symSize: 0x68 }
  - { offset: 0x702A7, size: 0x8, addend: 0x0, symName: '__ZN72_$LT$bytes..bytes..Bytes$u20$as$u20$core..cmp..PartialOrd$LT$str$GT$$GT$11partial_cmp17ha040ae26278e80e1E', symObjAddr: 0x36F0, symBinAddr: 0x21A5C, symSize: 0x4C }
  - { offset: 0x702EE, size: 0x8, addend: 0x0, symName: '__ZN5bytes5bytes81_$LT$impl$u20$core..cmp..PartialEq$LT$bytes..bytes..Bytes$GT$$u20$for$u20$str$GT$2eq17hf818bcf8bb9ae703E', symObjAddr: 0x373C, symBinAddr: 0x21AA8, symSize: 0x48 }
  - { offset: 0x70335, size: 0x8, addend: 0x0, symName: '__ZN5bytes5bytes82_$LT$impl$u20$core..cmp..PartialOrd$LT$bytes..bytes..Bytes$GT$$u20$for$u20$str$GT$11partial_cmp17h97d910f80cc56cb1E', symObjAddr: 0x3784, symBinAddr: 0x21AF0, symSize: 0x5C }
  - { offset: 0x7037C, size: 0x8, addend: 0x0, symName: '__ZN93_$LT$bytes..bytes..Bytes$u20$as$u20$core..cmp..PartialEq$LT$alloc..vec..Vec$LT$u8$GT$$GT$$GT$2eq17hbd4ba0d0a564795eE', symObjAddr: 0x37E0, symBinAddr: 0x21B4C, symSize: 0x54 }
  - { offset: 0x703C3, size: 0x8, addend: 0x0, symName: '__ZN94_$LT$bytes..bytes..Bytes$u20$as$u20$core..cmp..PartialOrd$LT$alloc..vec..Vec$LT$u8$GT$$GT$$GT$11partial_cmp17hfd150635ae6cc1acE', symObjAddr: 0x3834, symBinAddr: 0x21BA0, symSize: 0x5C }
  - { offset: 0x7040A, size: 0x8, addend: 0x0, symName: '__ZN5bytes5bytes103_$LT$impl$u20$core..cmp..PartialEq$LT$bytes..bytes..Bytes$GT$$u20$for$u20$alloc..vec..Vec$LT$u8$GT$$GT$2eq17h62a9dd155f9f20bfE', symObjAddr: 0x3890, symBinAddr: 0x21BFC, symSize: 0x38 }
  - { offset: 0x70451, size: 0x8, addend: 0x0, symName: '__ZN5bytes5bytes104_$LT$impl$u20$core..cmp..PartialOrd$LT$bytes..bytes..Bytes$GT$$u20$for$u20$alloc..vec..Vec$LT$u8$GT$$GT$11partial_cmp17h085d01ce1c589d27E', symObjAddr: 0x38C8, symBinAddr: 0x21C34, symSize: 0x54 }
  - { offset: 0x70498, size: 0x8, addend: 0x0, symName: '__ZN89_$LT$bytes..bytes..Bytes$u20$as$u20$core..cmp..PartialEq$LT$alloc..string..String$GT$$GT$2eq17h1e2d2f6d326ad7f7E', symObjAddr: 0x391C, symBinAddr: 0x21C88, symSize: 0x54 }
  - { offset: 0x704DF, size: 0x8, addend: 0x0, symName: '__ZN90_$LT$bytes..bytes..Bytes$u20$as$u20$core..cmp..PartialOrd$LT$alloc..string..String$GT$$GT$11partial_cmp17had14153bc895d977E', symObjAddr: 0x3970, symBinAddr: 0x21CDC, symSize: 0x54 }
  - { offset: 0x70526, size: 0x8, addend: 0x0, symName: '__ZN5bytes5bytes94_$LT$impl$u20$core..cmp..PartialEq$LT$bytes..bytes..Bytes$GT$$u20$for$u20$$RF$$u5b$u8$u5d$$GT$2eq17ha0ef3e6c93ad3153E', symObjAddr: 0x39C4, symBinAddr: 0x21D30, symSize: 0x38 }
  - { offset: 0x7056D, size: 0x8, addend: 0x0, symName: '__ZN5bytes5bytes95_$LT$impl$u20$core..cmp..PartialOrd$LT$bytes..bytes..Bytes$GT$$u20$for$u20$$RF$$u5b$u8$u5d$$GT$11partial_cmp17h5fa174107aa239c6E', symObjAddr: 0x39FC, symBinAddr: 0x21D68, symSize: 0x58 }
  - { offset: 0x705B4, size: 0x8, addend: 0x0, symName: '__ZN5bytes5bytes85_$LT$impl$u20$core..cmp..PartialEq$LT$bytes..bytes..Bytes$GT$$u20$for$u20$$RF$str$GT$2eq17hdecc8ffad907316dE', symObjAddr: 0x3A54, symBinAddr: 0x21DC0, symSize: 0x38 }
  - { offset: 0x705FB, size: 0x8, addend: 0x0, symName: '__ZN5bytes5bytes86_$LT$impl$u20$core..cmp..PartialOrd$LT$bytes..bytes..Bytes$GT$$u20$for$u20$$RF$str$GT$11partial_cmp17h467956b8fff94fddE', symObjAddr: 0x3A8C, symBinAddr: 0x21DF8, symSize: 0x60 }
  - { offset: 0x70642, size: 0x8, addend: 0x0, symName: '__ZN73_$LT$bytes..bytes..Bytes$u20$as$u20$core..cmp..PartialEq$LT$$RF$T$GT$$GT$2eq17h1a905ce1f6ddf396E', symObjAddr: 0x3AEC, symBinAddr: 0x21E58, symSize: 0x38 }
  - { offset: 0x7068C, size: 0x8, addend: 0x0, symName: '__ZN73_$LT$bytes..bytes..Bytes$u20$as$u20$core..cmp..PartialEq$LT$$RF$T$GT$$GT$2eq17h87608721849b32d7E', symObjAddr: 0x3B24, symBinAddr: 0x21E90, symSize: 0x38 }
  - { offset: 0x706DD, size: 0x8, addend: 0x0, symName: '__ZN83_$LT$bytes..bytes..Bytes$u20$as$u20$core..convert..From$LT$$RF$$u5b$u8$u5d$$GT$$GT$4from17hd981c6c1b6d3d13dE', symObjAddr: 0x3B5C, symBinAddr: 0x21EC8, symSize: 0x28 }
  - { offset: 0x70714, size: 0x8, addend: 0x0, symName: '__ZN74_$LT$bytes..bytes..Bytes$u20$as$u20$core..convert..From$LT$$RF$str$GT$$GT$4from17h82d30c4ac817dbd5E', symObjAddr: 0x3B84, symBinAddr: 0x21EF0, symSize: 0x34 }
  - { offset: 0x7077C, size: 0x8, addend: 0x0, symName: '__ZN92_$LT$bytes..bytes..Bytes$u20$as$u20$core..convert..From$LT$alloc..vec..Vec$LT$u8$GT$$GT$$GT$4from17hc5d27fd0dcac0441E', symObjAddr: 0x3BB8, symBinAddr: 0x21F24, symSize: 0x1D4 }
  - { offset: 0x708CE, size: 0x8, addend: 0x0, symName: '__ZN104_$LT$bytes..bytes..Bytes$u20$as$u20$core..convert..From$LT$alloc..boxed..Box$LT$$u5b$u8$u5d$$GT$$GT$$GT$4from17h4333e169f755a039E', symObjAddr: 0x3D8C, symBinAddr: 0x220F8, symSize: 0x198 }
  - { offset: 0x70995, size: 0x8, addend: 0x0, symName: '__ZN104_$LT$bytes..bytes..Bytes$u20$as$u20$core..convert..From$LT$alloc..boxed..Box$LT$$u5b$u8$u5d$$GT$$GT$$GT$4from28_$u7b$$u7b$closure$u7d$$u7d$17h7af7526b49611e7bE', symObjAddr: 0x3F24, symBinAddr: 0x22290, symSize: 0x14 }
  - { offset: 0x709E1, size: 0x8, addend: 0x0, symName: '__ZN88_$LT$bytes..bytes..Bytes$u20$as$u20$core..convert..From$LT$alloc..string..String$GT$$GT$4from17he8516409fdfa5ec1E', symObjAddr: 0x3F38, symBinAddr: 0x222A4, symSize: 0x34 }
  - { offset: 0x70A19, size: 0x8, addend: 0x0, symName: '__ZN5bytes5bytes102_$LT$impl$u20$core..convert..From$LT$bytes..bytes..Bytes$GT$$u20$for$u20$alloc..vec..Vec$LT$u8$GT$$GT$4from17h0b3ebaa3920606b1E', symObjAddr: 0x3F6C, symBinAddr: 0x222D8, symSize: 0x64 }
  - { offset: 0x70A91, size: 0x8, addend: 0x0, symName: '__ZN57_$LT$bytes..bytes..Vtable$u20$as$u20$core..fmt..Debug$GT$3fmt17h05596e2b97fca6fcE', symObjAddr: 0x3FD0, symBinAddr: 0x2233C, symSize: 0xAC }
  - { offset: 0x70AD2, size: 0x8, addend: 0x0, symName: __ZN5bytes5bytes12static_clone17h2e61f3fe4327118bE, symObjAddr: 0x407C, symBinAddr: 0x223E8, symSize: 0x50 }
  - { offset: 0x70B3E, size: 0x8, addend: 0x0, symName: __ZN5bytes5bytes13static_to_vec17hd5e190e8f9d73718E, symObjAddr: 0x40CC, symBinAddr: 0x22438, symSize: 0x50 }
  - { offset: 0x70BAA, size: 0x8, addend: 0x0, symName: __ZN5bytes5bytes13static_to_mut17hc3233c2f080abdc2E, symObjAddr: 0x411C, symBinAddr: 0x22488, symSize: 0x50 }
  - { offset: 0x70C16, size: 0x8, addend: 0x0, symName: __ZN5bytes5bytes16static_is_unique17h6aaa125880264132E, symObjAddr: 0x416C, symBinAddr: 0x224D8, symSize: 0x18 }
  - { offset: 0x70C42, size: 0x8, addend: 0x0, symName: __ZN5bytes5bytes11static_drop17hfba87ad0595fa0baE, symObjAddr: 0x4184, symBinAddr: 0x224F0, symSize: 0x18 }
  - { offset: 0x70C82, size: 0x8, addend: 0x0, symName: __ZN5bytes5bytes11owned_clone17h47b15020b886c881E, symObjAddr: 0x419C, symBinAddr: 0x22508, symSize: 0xC4 }
  - { offset: 0x70D1A, size: 0x8, addend: 0x0, symName: __ZN5bytes5bytes12owned_to_vec17he3ffe5211b01a50eE, symObjAddr: 0x4260, symBinAddr: 0x225CC, symSize: 0x50 }
  - { offset: 0x70D8A, size: 0x8, addend: 0x0, symName: __ZN5bytes5bytes12owned_to_mut17h7ad787c9469957b0E, symObjAddr: 0x42B0, symBinAddr: 0x2261C, symSize: 0xAC }
  - { offset: 0x70DF2, size: 0x8, addend: 0x0, symName: __ZN5bytes5bytes15owned_is_unique17h089e191494bc6b62E, symObjAddr: 0x435C, symBinAddr: 0x226C8, symSize: 0x18 }
  - { offset: 0x70E22, size: 0x8, addend: 0x0, symName: __ZN5bytes5bytes15owned_drop_impl17h9a96f5e40a606817E, symObjAddr: 0x4374, symBinAddr: 0x226E0, symSize: 0x90 }
  - { offset: 0x70ECE, size: 0x8, addend: 0x0, symName: __ZN5bytes5bytes10owned_drop17h400d7cdbfcdbacf7E, symObjAddr: 0x4404, symBinAddr: 0x22770, symSize: 0x40 }
  - { offset: 0x70F3A, size: 0x8, addend: 0x0, symName: __ZN5bytes5bytes21promotable_even_clone17h70fe1460c3ae8ce2E, symObjAddr: 0x4444, symBinAddr: 0x227B0, symSize: 0x108 }
  - { offset: 0x7103A, size: 0x8, addend: 0x0, symName: '__ZN5bytes5bytes21promotable_even_clone28_$u7b$$u7b$closure$u7d$$u7d$17h4ae34e5c228526bbE', symObjAddr: 0x454C, symBinAddr: 0x228B8, symSize: 0x14 }
  - { offset: 0x7107F, size: 0x8, addend: 0x0, symName: __ZN5bytes5bytes17promotable_to_vec17h9dd70fd341c51234E, symObjAddr: 0x4560, symBinAddr: 0x228CC, symSize: 0x194 }
  - { offset: 0x711E2, size: 0x8, addend: 0x0, symName: __ZN5bytes5bytes17promotable_to_mut17ha1a57728e554ad9bE, symObjAddr: 0x46F4, symBinAddr: 0x22A60, symSize: 0x1DC }
  - { offset: 0x7135D, size: 0x8, addend: 0x0, symName: __ZN5bytes5bytes22promotable_even_to_vec17h8122b422e17fd423E, symObjAddr: 0x48D0, symBinAddr: 0x22C3C, symSize: 0x38 }
  - { offset: 0x713B3, size: 0x8, addend: 0x0, symName: '__ZN5bytes5bytes22promotable_even_to_vec28_$u7b$$u7b$closure$u7d$$u7d$17h42e0e460e7b35371E', symObjAddr: 0x4908, symBinAddr: 0x22C74, symSize: 0x38 }
  - { offset: 0x713F8, size: 0x8, addend: 0x0, symName: __ZN5bytes5bytes22promotable_even_to_mut17h5f60cc5cb3276dcaE, symObjAddr: 0x4954, symBinAddr: 0x22CAC, symSize: 0x38 }
  - { offset: 0x71448, size: 0x8, addend: 0x0, symName: __ZN5bytes5bytes20promotable_even_drop17h7111745dff2a9aefE, symObjAddr: 0x49D8, symBinAddr: 0x22CE4, symSize: 0x3C }
  - { offset: 0x7149A, size: 0x8, addend: 0x0, symName: '__ZN5bytes5bytes20promotable_even_drop28_$u7b$$u7b$closure$u7d$$u7d$17h8627f08f6c36bdb0E', symObjAddr: 0x4A14, symBinAddr: 0x22D20, symSize: 0xD8 }
  - { offset: 0x715B4, size: 0x8, addend: 0x0, symName: __ZN5bytes5bytes20promotable_odd_clone17h95d5b1d51bcc8450E, symObjAddr: 0x4B00, symBinAddr: 0x22DF8, symSize: 0xF4 }
  - { offset: 0x7168D, size: 0x8, addend: 0x0, symName: __ZN5bytes5bytes21promotable_odd_to_vec17ha1f5d366102ef236E, symObjAddr: 0x4BF4, symBinAddr: 0x22EEC, symSize: 0x38 }
  - { offset: 0x716E3, size: 0x8, addend: 0x0, symName: '__ZN5bytes5bytes21promotable_odd_to_vec28_$u7b$$u7b$closure$u7d$$u7d$17h5f121edffcdca3cbE', symObjAddr: 0x4C2C, symBinAddr: 0x22F24, symSize: 0x28 }
  - { offset: 0x71728, size: 0x8, addend: 0x0, symName: __ZN5bytes5bytes21promotable_odd_to_mut17h934cb378e28f3bd1E, symObjAddr: 0x4C54, symBinAddr: 0x22F4C, symSize: 0x38 }
  - { offset: 0x71778, size: 0x8, addend: 0x0, symName: __ZN5bytes5bytes19promotable_odd_drop17h6360046119824b65E, symObjAddr: 0x4CB4, symBinAddr: 0x22F84, symSize: 0x3C }
  - { offset: 0x717CA, size: 0x8, addend: 0x0, symName: '__ZN5bytes5bytes19promotable_odd_drop28_$u7b$$u7b$closure$u7d$$u7d$17ha87c49bf4bd3e0f6E', symObjAddr: 0x4CF0, symBinAddr: 0x22FC0, symSize: 0xCC }
  - { offset: 0x718C4, size: 0x8, addend: 0x0, symName: __ZN5bytes5bytes20promotable_is_unique17h1b9ecf907b5bf40eE, symObjAddr: 0x4DBC, symBinAddr: 0x2308C, symSize: 0x8C }
  - { offset: 0x71954, size: 0x8, addend: 0x0, symName: __ZN5bytes5bytes16free_boxed_slice17h7f12d9ba0c91a1a7E, symObjAddr: 0x4E48, symBinAddr: 0x23118, symSize: 0xF4 }
  - { offset: 0x719FE, size: 0x8, addend: 0x0, symName: '__ZN62_$LT$bytes..bytes..Shared$u20$as$u20$core..ops..drop..Drop$GT$4drop17h892aef4e4aa39d17E', symObjAddr: 0x4F3C, symBinAddr: 0x2320C, symSize: 0xB4 }
  - { offset: 0x71A63, size: 0x8, addend: 0x0, symName: __ZN5bytes5bytes12shared_clone17had13193e296fc498E, symObjAddr: 0x4FF0, symBinAddr: 0x232C0, symSize: 0x58 }
  - { offset: 0x71AD3, size: 0x8, addend: 0x0, symName: __ZN5bytes5bytes18shared_to_vec_impl17h9bf6215535ffca35E, symObjAddr: 0x5048, symBinAddr: 0x23318, symSize: 0x224 }
  - { offset: 0x71C55, size: 0x8, addend: 0x0, symName: __ZN5bytes5bytes13shared_to_vec17hc51024e4f18ad429E, symObjAddr: 0x526C, symBinAddr: 0x2353C, symSize: 0x58 }
  - { offset: 0x71CA5, size: 0x8, addend: 0x0, symName: __ZN5bytes5bytes18shared_to_mut_impl17hb7e56c93f16c130fE, symObjAddr: 0x52C4, symBinAddr: 0x23594, symSize: 0x2C0 }
  - { offset: 0x71E4E, size: 0x8, addend: 0x0, symName: __ZN5bytes5bytes13shared_to_mut17h33b12f1432fc4aa4E, symObjAddr: 0x5584, symBinAddr: 0x23854, symSize: 0x58 }
  - { offset: 0x71E9E, size: 0x8, addend: 0x0, symName: __ZN5bytes5bytes16shared_is_unique17h1ef8ccaf673f7970E, symObjAddr: 0x55DC, symBinAddr: 0x238AC, symSize: 0x54 }
  - { offset: 0x71F0E, size: 0x8, addend: 0x0, symName: __ZN5bytes5bytes11shared_drop17hdf72a3759b86bc3cE, symObjAddr: 0x5630, symBinAddr: 0x23900, symSize: 0x2C }
  - { offset: 0x71F60, size: 0x8, addend: 0x0, symName: '__ZN5bytes5bytes11shared_drop28_$u7b$$u7b$closure$u7d$$u7d$17h5b4c16d06b1be4d8E', symObjAddr: 0x565C, symBinAddr: 0x2392C, symSize: 0x2C }
  - { offset: 0x71FA1, size: 0x8, addend: 0x0, symName: __ZN5bytes5bytes17shallow_clone_arc17h0ac92cd1bc799611E, symObjAddr: 0x5688, symBinAddr: 0x23958, symSize: 0xA0 }
  - { offset: 0x72009, size: 0x8, addend: 0x0, symName: __ZN5bytes5bytes17shallow_clone_vec17hd73735dfc3cd3e56E, symObjAddr: 0x5728, symBinAddr: 0xEA028, symSize: 0x2C0 }
  - { offset: 0x7211B, size: 0x8, addend: 0x0, symName: __ZN5bytes5bytes14release_shared17h7541d7d3e5340290E, symObjAddr: 0x59E8, symBinAddr: 0x239F8, symSize: 0x70 }
  - { offset: 0x72147, size: 0x8, addend: 0x0, symName: __ZN5bytes5bytes7ptr_map17h2997f7aeb95e4aedE, symObjAddr: 0x5A58, symBinAddr: 0x23A68, symSize: 0x28 }
  - { offset: 0x721B1, size: 0x8, addend: 0x0, symName: __ZN5bytes5bytes7ptr_map17hdc2ed7d8d15e3af9E, symObjAddr: 0x5AD0, symBinAddr: 0x23A90, symSize: 0x28 }
  - { offset: 0x7221B, size: 0x8, addend: 0x0, symName: __ZN5bytes5bytes18without_provenance17h2eae4b312bb02ad9E, symObjAddr: 0x5B20, symBinAddr: 0x23AB8, symSize: 0x30 }
  - { offset: 0x723C1, size: 0x8, addend: 0x0, symName: '__ZN5bytes9bytes_mut103_$LT$impl$u20$core..convert..From$LT$bytes..bytes_mut..BytesMut$GT$$u20$for$u20$bytes..bytes..Bytes$GT$4from17h054a69ef60e0f920E', symObjAddr: 0x5B50, symBinAddr: 0x23AE8, symSize: 0x14 }
  - { offset: 0x723F9, size: 0x8, addend: 0x0, symName: '__ZN5bytes9bytes_mut110_$LT$impl$u20$core..cmp..PartialEq$LT$bytes..bytes_mut..BytesMut$GT$$u20$for$u20$alloc..vec..Vec$LT$u8$GT$$GT$2eq17hece31ac9f4b2f996E', symObjAddr: 0x5B64, symBinAddr: 0x23AFC, symSize: 0x38 }
  - { offset: 0x72440, size: 0x8, addend: 0x0, symName: '__ZN5bytes9bytes_mut111_$LT$impl$u20$core..cmp..PartialOrd$LT$bytes..bytes_mut..BytesMut$GT$$u20$for$u20$alloc..vec..Vec$LT$u8$GT$$GT$11partial_cmp17hf98fd74f74ce53bcE', symObjAddr: 0x5B9C, symBinAddr: 0x23B34, symSize: 0x38 }
  - { offset: 0x72487, size: 0x8, addend: 0x0, symName: '__ZN5bytes9bytes_mut104_$LT$impl$u20$core..cmp..PartialEq$LT$bytes..bytes_mut..BytesMut$GT$$u20$for$u20$bytes..bytes..Bytes$GT$2eq17h82f2e1c51f24368bE', symObjAddr: 0x5BD4, symBinAddr: 0x23B6C, symSize: 0x8C }
  - { offset: 0x7250E, size: 0x8, addend: 0x0, symName: '__ZN5bytes9bytes_mut109_$LT$impl$u20$core..convert..From$LT$bytes..bytes_mut..BytesMut$GT$$u20$for$u20$alloc..vec..Vec$LT$u8$GT$$GT$4from17he2c3de0c7c114991E', symObjAddr: 0x5C60, symBinAddr: 0x23BF8, symSize: 0x2EC }
  - { offset: 0x727C1, size: 0x8, addend: 0x0, symName: '__ZN104_$LT$core..sync..atomic..AtomicPtr$LT$T$GT$$u20$as$u20$bytes..loom..sync..atomic..AtomicMut$LT$T$GT$$GT$8with_mut17h10dcc76f4f277dd2E', symObjAddr: 0x5F4C, symBinAddr: 0x23EE4, symSize: 0x74 }
  - { offset: 0x72818, size: 0x8, addend: 0x0, symName: '__ZN104_$LT$core..sync..atomic..AtomicPtr$LT$T$GT$$u20$as$u20$bytes..loom..sync..atomic..AtomicMut$LT$T$GT$$GT$8with_mut17h7a0344d12bae73dfE', symObjAddr: 0x5FC0, symBinAddr: 0x23F58, symSize: 0x74 }
  - { offset: 0x7286F, size: 0x8, addend: 0x0, symName: '__ZN104_$LT$core..sync..atomic..AtomicPtr$LT$T$GT$$u20$as$u20$bytes..loom..sync..atomic..AtomicMut$LT$T$GT$$GT$8with_mut17hc9219d38610f485eE', symObjAddr: 0x6034, symBinAddr: 0x23FCC, symSize: 0x8C }
  - { offset: 0x728C6, size: 0x8, addend: 0x0, symName: '__ZN104_$LT$core..sync..atomic..AtomicPtr$LT$T$GT$$u20$as$u20$bytes..loom..sync..atomic..AtomicMut$LT$T$GT$$GT$8with_mut17hcfcc86d5754fcd84E', symObjAddr: 0x60C0, symBinAddr: 0x24058, symSize: 0x8C }
  - { offset: 0x72933, size: 0x8, addend: 0x0, symName: '__ZN5bytes3fmt5debug66_$LT$impl$u20$core..fmt..Debug$u20$for$u20$bytes..bytes..Bytes$GT$3fmt17hc5736ae8b88d3550E', symObjAddr: 0x614C, symBinAddr: 0x240E4, symSize: 0x48 }
  - { offset: 0x7297E, size: 0x8, addend: 0x0, symName: '__ZN5bytes3fmt3hex69_$LT$impl$u20$core..fmt..LowerHex$u20$for$u20$bytes..bytes..Bytes$GT$3fmt17h1647c21e145ea711E', symObjAddr: 0x6194, symBinAddr: 0x2412C, symSize: 0x48 }
  - { offset: 0x729C2, size: 0x8, addend: 0x0, symName: '__ZN5bytes3fmt3hex69_$LT$impl$u20$core..fmt..UpperHex$u20$for$u20$bytes..bytes..Bytes$GT$3fmt17h8abc0a527b74eba6E', symObjAddr: 0x61DC, symBinAddr: 0x24174, symSize: 0x48 }
  - { offset: 0x72D87, size: 0x8, addend: 0x0, symName: '__ZN132_$LT$alloc..vec..Vec$LT$T$C$A$GT$$u20$as$u20$alloc..vec..spec_extend..SpecExtend$LT$$RF$T$C$core..slice..iter..Iter$LT$T$GT$$GT$$GT$11spec_extend17hb668de4d6afff2f7E', symObjAddr: 0x0, symBinAddr: 0x1E584, symSize: 0xA8 }
  - { offset: 0x72FCC, size: 0x8, addend: 0x0, symName: __ZN5alloc3vec9from_elem17h82d13596bc047091E, symObjAddr: 0x20F0, symBinAddr: 0x20498, symSize: 0x24 }
  - { offset: 0x7301C, size: 0x8, addend: 0x0, symName: '__ZN70_$LT$alloc..vec..Vec$LT$T$C$A$GT$$u20$as$u20$core..ops..drop..Drop$GT$4drop17h4e126eea15c96438E', symObjAddr: 0x2154, symBinAddr: 0x204FC, symSize: 0x30 }
  - { offset: 0x7311E, size: 0x8, addend: 0x0, symName: '__ZN72_$LT$alloc..vec..Vec$LT$T$C$A$GT$$u20$as$u20$core..ops..deref..Deref$GT$5deref17h03750e840cb10fc3E', symObjAddr: 0x2184, symBinAddr: 0x2052C, symSize: 0x6C }
  - { offset: 0x73293, size: 0x8, addend: 0x0, symName: '__ZN81_$LT$alloc..vec..Vec$LT$T$C$A$GT$$u20$as$u20$core..ops..index..Index$LT$I$GT$$GT$5index17h57e75bcec88fb61bE', symObjAddr: 0x21F0, symBinAddr: 0x20598, symSize: 0x80 }
  - { offset: 0x73A37, size: 0x8, addend: 0x0, symName: __ZN4core3fmt9Arguments16new_v1_formatted17h07dd951ac6092917E, symObjAddr: 0xD8, symBinAddr: 0x1E65C, symSize: 0x58 }
  - { offset: 0x73AD1, size: 0x8, addend: 0x0, symName: __ZN4core3fmt9Arguments6new_v117h096c3dd3528f2689E, symObjAddr: 0x130, symBinAddr: 0x1E6B4, symSize: 0x50 }
  - { offset: 0x73B22, size: 0x8, addend: 0x0, symName: __ZN4core3fmt9Arguments6new_v117h1919923214e4be20E, symObjAddr: 0x180, symBinAddr: 0x1E704, symSize: 0x54 }
  - { offset: 0x73B8F, size: 0x8, addend: 0x0, symName: __ZN4core3fmt9Arguments6new_v117h2b56c0ebe26397c2E, symObjAddr: 0x1D4, symBinAddr: 0x1E758, symSize: 0x54 }
  - { offset: 0x73BFC, size: 0x8, addend: 0x0, symName: __ZN4core3fmt9Arguments6new_v117hda2b586456e0a624E, symObjAddr: 0x228, symBinAddr: 0x1E7AC, symSize: 0x50 }
  - { offset: 0x73C31, size: 0x8, addend: 0x0, symName: __ZN4core3fmt9Arguments9new_const17hfd96318df37108cdE, symObjAddr: 0x278, symBinAddr: 0x1E7FC, symSize: 0x48 }
  - { offset: 0x73CC3, size: 0x8, addend: 0x0, symName: __ZN4core4sync6atomic11AtomicUsize16compare_exchange17ha5b4aa930d79d14aE, symObjAddr: 0x63C, symBinAddr: 0x1EA14, symSize: 0x3C }
  - { offset: 0x73D28, size: 0x8, addend: 0x0, symName: __ZN4core4sync6atomic11AtomicUsize3new17h4874910e14614f9fE, symObjAddr: 0x678, symBinAddr: 0x1EA50, symSize: 0x18 }
  - { offset: 0x73D8B, size: 0x8, addend: 0x0, symName: __ZN4core4sync6atomic11AtomicUsize9fetch_add17ha95a1440d164cb86E, symObjAddr: 0x6C0, symBinAddr: 0x1EA68, symSize: 0x230 }
  - { offset: 0x73E69, size: 0x8, addend: 0x0, symName: __ZN4core4sync6atomic11AtomicUsize9fetch_sub17h3578db42768fd939E, symObjAddr: 0x8F0, symBinAddr: 0x1EC98, symSize: 0x230 }
  - { offset: 0x73F79, size: 0x8, addend: 0x0, symName: '__ZN4core4sync6atomic18AtomicPtr$LT$T$GT$16compare_exchange17h4d4daf2d77428533E', symObjAddr: 0xDB8, symBinAddr: 0x1F160, symSize: 0x44 }
  - { offset: 0x73FE8, size: 0x8, addend: 0x0, symName: '__ZN4core4sync6atomic18AtomicPtr$LT$T$GT$3new17h3024835fcdd59ecaE', symObjAddr: 0xDFC, symBinAddr: 0x1F1A4, symSize: 0x1C }
  - { offset: 0x74017, size: 0x8, addend: 0x0, symName: '__ZN4core4sync6atomic18AtomicPtr$LT$T$GT$4load17h363e5782438e6827E', symObjAddr: 0xE18, symBinAddr: 0x1F1C0, symSize: 0x30 }
  - { offset: 0x74064, size: 0x8, addend: 0x0, symName: '__ZN4core4sync6atomic18AtomicPtr$LT$T$GT$7get_mut17h16966a776df1071dE', symObjAddr: 0xE48, symBinAddr: 0x1F1F0, symSize: 0x1C }
  - { offset: 0x7414F, size: 0x8, addend: 0x0, symName: __ZN4core5alloc6layout6Layout15from_size_align17h8d72001a2be3017dE, symObjAddr: 0x1984, symBinAddr: 0x1FD2C, symSize: 0xC8 }
  - { offset: 0x74317, size: 0x8, addend: 0x0, symName: '__ZN5alloc3vec12Vec$LT$T$GT$13with_capacity17hddd3345b2b072709E', symObjAddr: 0x1C14, symBinAddr: 0x1FFBC, symSize: 0x34 }
  - { offset: 0x743D1, size: 0x8, addend: 0x0, symName: '__ZN5alloc3vec12Vec$LT$T$GT$14from_raw_parts17ha6a717c7ec83f45aE', symObjAddr: 0x1C48, symBinAddr: 0x1FFF0, symSize: 0x54 }
  - { offset: 0x7446A, size: 0x8, addend: 0x0, symName: '__ZN5alloc3vec12Vec$LT$T$GT$3new17hf616fe7ed8617d07E', symObjAddr: 0x1C9C, symBinAddr: 0x20044, symSize: 0x14 }
  - { offset: 0x744C3, size: 0x8, addend: 0x0, symName: '__ZN5alloc3vec16Vec$LT$T$C$A$GT$10as_mut_ptr17h82e15dc3b55ef491E', symObjAddr: 0x1CB0, symBinAddr: 0x20058, symSize: 0x24 }
  - { offset: 0x74700, size: 0x8, addend: 0x0, symName: '__ZN5alloc3vec16Vec$LT$T$C$A$GT$15append_elements17h149c5454100ae82eE', symObjAddr: 0x1CD4, symBinAddr: 0x2007C, symSize: 0x110 }
  - { offset: 0x74BC1, size: 0x8, addend: 0x0, symName: '__ZN5alloc3vec16Vec$LT$T$C$A$GT$16into_boxed_slice17h8b050d5adc37d98bE', symObjAddr: 0x1DE4, symBinAddr: 0x2018C, symSize: 0x190 }
  - { offset: 0x74F6D, size: 0x8, addend: 0x0, symName: '__ZN5alloc3vec16Vec$LT$T$C$A$GT$17extend_from_slice17h90151ae9ccb9d1a5E', symObjAddr: 0x1F74, symBinAddr: 0x2031C, symSize: 0x6C }
  - { offset: 0x7511D, size: 0x8, addend: 0x0, symName: '__ZN5alloc3vec16Vec$LT$T$C$A$GT$3len17hbaa40ecdfbfd1bfaE', symObjAddr: 0x1FE0, symBinAddr: 0x20388, symSize: 0x18 }
  - { offset: 0x75182, size: 0x8, addend: 0x0, symName: '__ZN5alloc3vec16Vec$LT$T$C$A$GT$6as_ptr17h05cb42dbc40f80f8E', symObjAddr: 0x1FF8, symBinAddr: 0x203A0, symSize: 0x24 }
  - { offset: 0x752A2, size: 0x8, addend: 0x0, symName: '__ZN5alloc3vec16Vec$LT$T$C$A$GT$7reserve17h8143c762bdcd53bcE', symObjAddr: 0x201C, symBinAddr: 0x203C4, symSize: 0x84 }
  - { offset: 0x753C4, size: 0x8, addend: 0x0, symName: '__ZN5alloc3vec16Vec$LT$T$C$A$GT$7set_len17h8b898a37e1c9e9d3E', symObjAddr: 0x20A0, symBinAddr: 0x20448, symSize: 0x1C }
  - { offset: 0x75439, size: 0x8, addend: 0x0, symName: '__ZN5alloc3vec16Vec$LT$T$C$A$GT$8capacity17h2dd631c47714316aE', symObjAddr: 0x20BC, symBinAddr: 0x20464, symSize: 0x34 }
  - { offset: 0x75675, size: 0x8, addend: 0x0, symName: __ZN5bytes5bytes5Bytes3new17hdf998b205b98a5d3E, symObjAddr: 0x2270, symBinAddr: 0x20618, symSize: 0x20 }
  - { offset: 0x75689, size: 0x8, addend: 0x0, symName: __ZN5bytes5bytes5Bytes11from_static17h52554f43260090a1E, symObjAddr: 0x2290, symBinAddr: 0x20638, symSize: 0x80 }
  - { offset: 0x75721, size: 0x8, addend: 0x0, symName: __ZN5bytes5bytes5Bytes18new_empty_with_ptr17h0d65238ca9b29a1cE, symObjAddr: 0x2310, symBinAddr: 0x206B8, symSize: 0xA0 }
  - { offset: 0x757E6, size: 0x8, addend: 0x0, symName: __ZN5bytes5bytes5Bytes9is_unique17h0e2fa7fe8077aa99E, symObjAddr: 0x23C8, symBinAddr: 0x20758, symSize: 0x30 }
  - { offset: 0x7580B, size: 0x8, addend: 0x0, symName: __ZN5bytes5bytes5Bytes15copy_from_slice17h266ad1537ace765eE, symObjAddr: 0x23F8, symBinAddr: 0x20788, symSize: 0x48 }
  - { offset: 0x758B5, size: 0x8, addend: 0x0, symName: __ZN5bytes5bytes5Bytes5slice17he95decfb650227dcE, symObjAddr: 0x2440, symBinAddr: 0x207D0, symSize: 0x458 }
  - { offset: 0x75CF7, size: 0x8, addend: 0x0, symName: __ZN5bytes5bytes5Bytes9slice_ref17h54ea61380b8a62abE, symObjAddr: 0x2898, symBinAddr: 0x20C28, symSize: 0x39C }
  - { offset: 0x760E8, size: 0x8, addend: 0x0, symName: __ZN5bytes5bytes5Bytes9split_off17hb11c8e59f9acdc72E, symObjAddr: 0x2C34, symBinAddr: 0x20FC4, symSize: 0x1E8 }
  - { offset: 0x762A9, size: 0x8, addend: 0x0, symName: __ZN5bytes5bytes5Bytes8split_to17h6d8fd244a8741017E, symObjAddr: 0x2E1C, symBinAddr: 0x211AC, symSize: 0x1E8 }
  - { offset: 0x7648B, size: 0x8, addend: 0x0, symName: __ZN5bytes5bytes5Bytes12try_into_mut17hf4a28bb2664783c9E, symObjAddr: 0x3004, symBinAddr: 0x21394, symSize: 0xFC }
  - { offset: 0x764B1, size: 0x8, addend: 0x0, symName: __ZN5bytes5bytes5Bytes11with_vtable17hdcd283b8e669c28bE, symObjAddr: 0x3100, symBinAddr: 0x21490, symSize: 0x40 }
  - { offset: 0x76506, size: 0x8, addend: 0x0, symName: __ZN5bytes5bytes5Bytes8as_slice17ha670432b1b1d455dE, symObjAddr: 0x3140, symBinAddr: 0x214D0, symSize: 0x30 }
  - { offset: 0x7652B, size: 0x8, addend: 0x0, symName: __ZN5bytes5bytes5Bytes9inc_start17h7c2628d4b6159fa1E, symObjAddr: 0x3170, symBinAddr: 0x21500, symSize: 0xA8 }
  - { offset: 0x7680B, size: 0x8, addend: 0x0, symName: '__ZN5alloc11collections9vec_deque21VecDeque$LT$T$C$A$GT$12slice_ranges17ha22428f094e10e6eE', symObjAddr: 0x0, symBinAddr: 0x241BC, symSize: 0x1D0 }
  - { offset: 0x77BCD, size: 0x8, addend: 0x0, symName: '__ZN5alloc11collections9vec_deque21VecDeque$LT$T$C$A$GT$12slice_ranges17ha22428f094e10e6eE', symObjAddr: 0x0, symBinAddr: 0x241BC, symSize: 0x1D0 }
  - { offset: 0x77FA9, size: 0x8, addend: 0x0, symName: '__ZN5alloc11collections9vec_deque21VecDeque$LT$T$C$A$GT$12slice_ranges17hbd02549dddbcc920E', symObjAddr: 0x1D0, symBinAddr: 0x2438C, symSize: 0x1C0 }
  - { offset: 0x78273, size: 0x8, addend: 0x0, symName: '__ZN5alloc11collections9vec_deque21VecDeque$LT$T$C$A$GT$3len17h7c9f6332e3520240E', symObjAddr: 0x390, symBinAddr: 0x2454C, symSize: 0x18 }
  - { offset: 0x78347, size: 0x8, addend: 0x0, symName: '__ZN5alloc11collections9vec_deque21VecDeque$LT$T$C$A$GT$5drain17h1535c29a052666aeE', symObjAddr: 0x3A8, symBinAddr: 0x24564, symSize: 0x8C }
  - { offset: 0x786D5, size: 0x8, addend: 0x0, symName: '__ZN5alloc11collections9vec_deque21VecDeque$LT$T$C$A$GT$9as_slices17hf91a94f71649ac7dE', symObjAddr: 0x434, symBinAddr: 0x245F0, symSize: 0xB4 }
  - { offset: 0x7A2C2, size: 0x8, addend: 0x0, symName: '__ZN5alloc11collections9vec_deque21VecDeque$LT$T$C$A$GT$9wrap_copy17h54249f6ed676a84aE', symObjAddr: 0x4E8, symBinAddr: 0x246A4, symSize: 0xBB4 }
  - { offset: 0x7CEF3, size: 0x8, addend: 0x0, symName: '__ZN5bytes3buf9vec_deque105_$LT$impl$u20$bytes..buf..buf_impl..Buf$u20$for$u20$alloc..collections..vec_deque..VecDeque$LT$u8$GT$$GT$9remaining17hfeba1d0f914177baE', symObjAddr: 0x109C, symBinAddr: 0x25258, symSize: 0x24 }
  - { offset: 0x7CF21, size: 0x8, addend: 0x0, symName: '__ZN5bytes3buf9vec_deque105_$LT$impl$u20$bytes..buf..buf_impl..Buf$u20$for$u20$alloc..collections..vec_deque..VecDeque$LT$u8$GT$$GT$5chunk17h2dd851235d6a877aE', symObjAddr: 0x10C0, symBinAddr: 0x2527C, symSize: 0x94 }
  - { offset: 0x7CF7E, size: 0x8, addend: 0x0, symName: '__ZN5bytes3buf9vec_deque105_$LT$impl$u20$bytes..buf..buf_impl..Buf$u20$for$u20$alloc..collections..vec_deque..VecDeque$LT$u8$GT$$GT$7advance17h1e259bdf54c48e43E', symObjAddr: 0x1154, symBinAddr: 0x25310, symSize: 0x38 }
  - { offset: 0x7CFE0, size: 0x8, addend: 0x0, symName: '__ZN111_$LT$alloc..vec..Vec$LT$T$GT$$u20$as$u20$alloc..vec..spec_from_iter_nested..SpecFromIterNested$LT$T$C$I$GT$$GT$9from_iter17h70b23c9fc0c456c2E', symObjAddr: 0x0, symBinAddr: 0x25348, symSize: 0x178 }
  - { offset: 0x7D18C, size: 0x8, addend: 0x0, symName: '__ZN65_$LT$alloc..string..String$u20$as$u20$core..ops..deref..Deref$GT$5deref17hcd2a9e382639838eE', symObjAddr: 0x2C94, symBinAddr: 0x27F78, symSize: 0x7C }
  - { offset: 0x7D354, size: 0x8, addend: 0x0, symName: '__ZN58_$LT$alloc..string..String$u20$as$u20$core..fmt..Debug$GT$3fmt17ha5a5fa74ee7e545eE', symObjAddr: 0x3DC, symBinAddr: 0x25724, symSize: 0x8C }
  - { offset: 0x7D55B, size: 0x8, addend: 0x0, symName: '__ZN58_$LT$alloc..string..String$u20$as$u20$core..fmt..Write$GT$10write_char17h30274552be46ac47E', symObjAddr: 0x468, symBinAddr: 0x257B0, symSize: 0x30 }
  - { offset: 0x7D59B, size: 0x8, addend: 0x0, symName: '__ZN58_$LT$alloc..string..String$u20$as$u20$core..fmt..Write$GT$9write_str17h33aa66b48a759f2aE', symObjAddr: 0x498, symBinAddr: 0x257E0, symSize: 0x38 }
  - { offset: 0x7D5E2, size: 0x8, addend: 0x0, symName: '__ZN60_$LT$alloc..string..String$u20$as$u20$core..fmt..Display$GT$3fmt17h476538d17cdfe14bE', symObjAddr: 0x2C08, symBinAddr: 0x27EEC, symSize: 0x8C }
  - { offset: 0x7DAEC, size: 0x8, addend: 0x0, symName: '__ZN111_$LT$alloc..vec..Vec$LT$T$GT$$u20$as$u20$alloc..vec..spec_from_iter_nested..SpecFromIterNested$LT$T$C$I$GT$$GT$9from_iter17h70b23c9fc0c456c2E', symObjAddr: 0x0, symBinAddr: 0x25348, symSize: 0x178 }
  - { offset: 0x7DC1A, size: 0x8, addend: 0x0, symName: '__ZN150_$LT$$LT$alloc..vec..drain..Drain$LT$T$C$A$GT$$u20$as$u20$core..ops..drop..Drop$GT$..drop..DropGuard$LT$T$C$A$GT$$u20$as$u20$core..ops..drop..Drop$GT$4drop17h8b7445cb8f3041bfE', symObjAddr: 0x178, symBinAddr: 0x254C0, symSize: 0x148 }
  - { offset: 0x7DFFB, size: 0x8, addend: 0x0, symName: '__ZN79_$LT$alloc..vec..drain..Drain$LT$T$C$A$GT$$u20$as$u20$core..ops..drop..Drop$GT$4drop17heb1cd3586b139b2bE', symObjAddr: 0x31C0, symBinAddr: 0x284A4, symSize: 0x26C }
  - { offset: 0x7E9D5, size: 0x8, addend: 0x0, symName: '__ZN96_$LT$alloc..vec..drain..Drain$LT$T$C$A$GT$$u20$as$u20$core..iter..traits..iterator..Iterator$GT$4next17h73fb2f64ff25b7afE', symObjAddr: 0x35EC, symBinAddr: 0x288D0, symSize: 0x70 }
  - { offset: 0x7ED7A, size: 0x8, addend: 0x0, symName: '__ZN5alloc3vec16Vec$LT$T$C$A$GT$14extend_trusted28_$u7b$$u7b$closure$u7d$$u7d$17h02743f072932e1e3E', symObjAddr: 0x6D4, symBinAddr: 0x25A1C, symSize: 0x5C }
  - { offset: 0x7F07E, size: 0x8, addend: 0x0, symName: '__ZN97_$LT$alloc..vec..Vec$LT$T$C$A$GT$$u20$as$u20$alloc..vec..spec_extend..SpecExtend$LT$T$C$I$GT$$GT$11spec_extend17h2f3fd1fc0c32e01eE', symObjAddr: 0x365C, symBinAddr: 0x28940, symSize: 0x2C }
  - { offset: 0x7F1A3, size: 0x8, addend: 0x0, symName: '__ZN70_$LT$alloc..vec..Vec$LT$T$C$A$GT$$u20$as$u20$core..ops..drop..Drop$GT$4drop17h1b4aa8836e059dd1E', symObjAddr: 0x2D10, symBinAddr: 0x27FF4, symSize: 0x30 }
  - { offset: 0x7F29E, size: 0x8, addend: 0x0, symName: '__ZN70_$LT$alloc..vec..Vec$LT$T$C$A$GT$$u20$as$u20$core..ops..drop..Drop$GT$4drop17h4d2d88a58c0ff18cE', symObjAddr: 0x2D40, symBinAddr: 0x28024, symSize: 0x30 }
  - { offset: 0x7F399, size: 0x8, addend: 0x0, symName: '__ZN70_$LT$alloc..vec..Vec$LT$T$C$A$GT$$u20$as$u20$core..ops..drop..Drop$GT$4drop17h4eb2b94ec6cdca49E', symObjAddr: 0x2D70, symBinAddr: 0x28054, symSize: 0x44 }
  - { offset: 0x7F494, size: 0x8, addend: 0x0, symName: '__ZN70_$LT$alloc..vec..Vec$LT$T$C$A$GT$$u20$as$u20$core..ops..drop..Drop$GT$4drop17h9a591f097f93ff99E', symObjAddr: 0x2DB4, symBinAddr: 0x28098, symSize: 0x30 }
  - { offset: 0x7F58F, size: 0x8, addend: 0x0, symName: '__ZN70_$LT$alloc..vec..Vec$LT$T$C$A$GT$$u20$as$u20$core..ops..drop..Drop$GT$4drop17hea766e5efb1b9052E', symObjAddr: 0x2DE4, symBinAddr: 0x280C8, symSize: 0x44 }
  - { offset: 0x7F6F4, size: 0x8, addend: 0x0, symName: '__ZN90_$LT$alloc..vec..Vec$LT$T$C$A$GT$$u20$as$u20$core..iter..traits..collect..IntoIterator$GT$9into_iter17hb36c0a7981667a7aE', symObjAddr: 0x342C, symBinAddr: 0x28710, symSize: 0xE0 }
  - { offset: 0x7F954, size: 0x8, addend: 0x0, symName: '__ZN90_$LT$alloc..vec..Vec$LT$T$C$A$GT$$u20$as$u20$core..iter..traits..collect..IntoIterator$GT$9into_iter17hd0b0f064dfb51346E', symObjAddr: 0x350C, symBinAddr: 0x287F0, symSize: 0xE0 }
  - { offset: 0x7FBC1, size: 0x8, addend: 0x0, symName: '__ZN98_$LT$alloc..vec..Vec$LT$T$GT$$u20$as$u20$alloc..vec..spec_from_iter..SpecFromIter$LT$T$C$I$GT$$GT$9from_iter17h11073bd9a43c0bdcE', symObjAddr: 0x3688, symBinAddr: 0x2896C, symSize: 0x24 }
  - { offset: 0x800AF, size: 0x8, addend: 0x0, symName: __ZN5alloc7raw_vec11finish_grow17hda5c487b8257fda2E, symObjAddr: 0x1B48, symBinAddr: 0x26E90, symSize: 0x320 }
  - { offset: 0x807C7, size: 0x8, addend: 0x0, symName: '__ZN5alloc7raw_vec19RawVec$LT$T$C$A$GT$7reserve21do_reserve_and_handle17h4f6373f353fc3eacE', symObjAddr: 0x2AD4, symBinAddr: 0xEA2E8, symSize: 0x64 }
  - { offset: 0x8084F, size: 0x8, addend: 0x0, symName: '__ZN77_$LT$alloc..raw_vec..RawVec$LT$T$C$A$GT$$u20$as$u20$core..ops..drop..Drop$GT$4drop17h44257b7e9ca8e49aE', symObjAddr: 0x2FB8, symBinAddr: 0x2829C, symSize: 0x68 }
  - { offset: 0x808C0, size: 0x8, addend: 0x0, symName: '__ZN77_$LT$alloc..raw_vec..RawVec$LT$T$C$A$GT$$u20$as$u20$core..ops..drop..Drop$GT$4drop17h4df25b10355c3484E', symObjAddr: 0x3020, symBinAddr: 0x28304, symSize: 0x68 }
  - { offset: 0x80931, size: 0x8, addend: 0x0, symName: '__ZN77_$LT$alloc..raw_vec..RawVec$LT$T$C$A$GT$$u20$as$u20$core..ops..drop..Drop$GT$4drop17h54d4d53b52029f79E', symObjAddr: 0x3088, symBinAddr: 0x2836C, symSize: 0x68 }
  - { offset: 0x809A2, size: 0x8, addend: 0x0, symName: '__ZN77_$LT$alloc..raw_vec..RawVec$LT$T$C$A$GT$$u20$as$u20$core..ops..drop..Drop$GT$4drop17h6a70d56bf506f278E', symObjAddr: 0x30F0, symBinAddr: 0x283D4, symSize: 0x68 }
  - { offset: 0x80A13, size: 0x8, addend: 0x0, symName: '__ZN77_$LT$alloc..raw_vec..RawVec$LT$T$C$A$GT$$u20$as$u20$core..ops..drop..Drop$GT$4drop17h89f35e0fac0e8cf3E', symObjAddr: 0x3158, symBinAddr: 0x2843C, symSize: 0x68 }
  - { offset: 0x82640, size: 0x8, addend: 0x0, symName: __ZN4core3fmt5Write9write_fmt17h20acbb510ab3e27eE, symObjAddr: 0x2C0, symBinAddr: 0x25608, symSize: 0x24 }
  - { offset: 0x82694, size: 0x8, addend: 0x0, symName: '__ZN75_$LT$$RF$mut$u20$W$u20$as$u20$core..fmt..Write..write_fmt..SpecWriteFmt$GT$14spec_write_fmt17h42c917a2fadbf8e0E', symObjAddr: 0x2E28, symBinAddr: 0x2810C, symSize: 0x190 }
  - { offset: 0x83798, size: 0x8, addend: 0x0, symName: __ZN4core4iter6traits8iterator8Iterator8try_fold17h5fe798b0782f3591E, symObjAddr: 0x2E4, symBinAddr: 0x2562C, symSize: 0xF8 }
  - { offset: 0x855A0, size: 0x8, addend: 0x0, symName: '__ZN5alloc3vec12Vec$LT$T$GT$3new17h8fda6cfc72e127a5E', symObjAddr: 0x4D0, symBinAddr: 0x25818, symSize: 0x14 }
  - { offset: 0x857FD, size: 0x8, addend: 0x0, symName: '__ZN5alloc3vec16Vec$LT$T$C$A$GT$14extend_trusted17hffb54da3404ab3aaE', symObjAddr: 0x4E4, symBinAddr: 0x2582C, symSize: 0x1F0 }
  - { offset: 0x85D53, size: 0x8, addend: 0x0, symName: '__ZN5alloc3vec16Vec$LT$T$C$A$GT$15append_elements17hc8490db54c4e6d07E', symObjAddr: 0x730, symBinAddr: 0x25A78, symSize: 0x110 }
  - { offset: 0x8611F, size: 0x8, addend: 0x0, symName: '__ZN5alloc3vec16Vec$LT$T$C$A$GT$4push17h33e0338bfe876e0dE', symObjAddr: 0x840, symBinAddr: 0x25B88, symSize: 0xE8 }
  - { offset: 0x863C5, size: 0x8, addend: 0x0, symName: '__ZN5alloc3vec16Vec$LT$T$C$A$GT$4push17h8677b8b2ccab2e73E', symObjAddr: 0x928, symBinAddr: 0x25C70, symSize: 0xCC }
  - { offset: 0x8675C, size: 0x8, addend: 0x0, symName: '__ZN5alloc3vec16Vec$LT$T$C$A$GT$5drain17h49f063e88f8031d1E', symObjAddr: 0x9F4, symBinAddr: 0x25D3C, symSize: 0x140 }
  - { offset: 0x86B3F, size: 0x8, addend: 0x0, symName: '__ZN5alloc3vec16Vec$LT$T$C$A$GT$6splice17h4b73e87ccf435572E', symObjAddr: 0xB34, symBinAddr: 0x25E7C, symSize: 0xD4 }
  - { offset: 0x86C68, size: 0x8, addend: 0x0, symName: '__ZN5alloc3vec16Vec$LT$T$C$A$GT$8truncate17h0aa75e718b705cffE', symObjAddr: 0xC08, symBinAddr: 0x25F50, symSize: 0x74 }
  - { offset: 0x87000, size: 0x8, addend: 0x0, symName: '__ZN5alloc3vec6splice55_$LT$impl$u20$alloc..vec..drain..Drain$LT$T$C$A$GT$$GT$4fill17h493f8304fd01b16fE', symObjAddr: 0xC7C, symBinAddr: 0x25FC4, symSize: 0x1C4 }
  - { offset: 0x87574, size: 0x8, addend: 0x0, symName: '__ZN5alloc3vec6splice55_$LT$impl$u20$alloc..vec..drain..Drain$LT$T$C$A$GT$$GT$4fill17h768656104127cee8E', symObjAddr: 0xE40, symBinAddr: 0x26188, symSize: 0x1C4 }
  - { offset: 0x87B61, size: 0x8, addend: 0x0, symName: '__ZN5alloc3vec6splice55_$LT$impl$u20$alloc..vec..drain..Drain$LT$T$C$A$GT$$GT$9move_tail17h8bb4c783acb17795E', symObjAddr: 0x1004, symBinAddr: 0x2634C, symSize: 0x158 }
  - { offset: 0x8817F, size: 0x8, addend: 0x0, symName: __ZN5alloc6string6String13replace_range17h22871e86864b3d0cE, symObjAddr: 0x115C, symBinAddr: 0x264A4, symSize: 0x5EC }
  - { offset: 0x890E7, size: 0x8, addend: 0x0, symName: __ZN5alloc6string6String13with_capacity17h8e35e3bfd1dc385bE, symObjAddr: 0x1748, symBinAddr: 0x26A90, symSize: 0x44 }
  - { offset: 0x89347, size: 0x8, addend: 0x0, symName: __ZN5alloc6string6String4push17h20e11a874f3f8b2dE, symObjAddr: 0x178C, symBinAddr: 0x26AD4, symSize: 0x184 }
  - { offset: 0x89929, size: 0x8, addend: 0x0, symName: __ZN5alloc6string6String8push_str17hffedf291a1e5ce06E, symObjAddr: 0x1910, symBinAddr: 0x26C58, symSize: 0xDC }
  - { offset: 0x89E41, size: 0x8, addend: 0x0, symName: __ZN5alloc6string6String8truncate17h3c17564afcc225d4E, symObjAddr: 0x19EC, symBinAddr: 0x26D34, symSize: 0x15C }
  - { offset: 0x8A3FD, size: 0x8, addend: 0x0, symName: '__ZN5alloc7raw_vec19RawVec$LT$T$C$A$GT$14current_memory17h5e424ecfaadd0dacE', symObjAddr: 0x1E68, symBinAddr: 0x271B0, symSize: 0xD0 }
  - { offset: 0x8A814, size: 0x8, addend: 0x0, symName: '__ZN5alloc7raw_vec19RawVec$LT$T$C$A$GT$14current_memory17h65f7be6cefe62f78E', symObjAddr: 0x1F38, symBinAddr: 0x27280, symSize: 0xD0 }
  - { offset: 0x8AA19, size: 0x8, addend: 0x0, symName: '__ZN5alloc7raw_vec19RawVec$LT$T$C$A$GT$14current_memory17h9bdc70bdb91f923cE', symObjAddr: 0x2008, symBinAddr: 0x27350, symSize: 0xC8 }
  - { offset: 0x8AC1E, size: 0x8, addend: 0x0, symName: '__ZN5alloc7raw_vec19RawVec$LT$T$C$A$GT$14current_memory17hb788d5d8bcd42cb3E', symObjAddr: 0x20D0, symBinAddr: 0x27418, symSize: 0xD0 }
  - { offset: 0x8AE15, size: 0x8, addend: 0x0, symName: '__ZN5alloc7raw_vec19RawVec$LT$T$C$A$GT$14current_memory17hcbc7469289081847E', symObjAddr: 0x21A0, symBinAddr: 0x274E8, symSize: 0xC8 }
  - { offset: 0x8B090, size: 0x8, addend: 0x0, symName: '__ZN5alloc7raw_vec19RawVec$LT$T$C$A$GT$14grow_amortized17h733c6d118f6d4bc0E', symObjAddr: 0x2268, symBinAddr: 0x275B0, symSize: 0x2C8 }
  - { offset: 0x8B63B, size: 0x8, addend: 0x0, symName: '__ZN5alloc7raw_vec19RawVec$LT$T$C$A$GT$14grow_amortized17h8ab1ac718eecabadE', symObjAddr: 0x2530, symBinAddr: 0x27878, symSize: 0x2C4 }
  - { offset: 0x8BBED, size: 0x8, addend: 0x0, symName: '__ZN5alloc7raw_vec19RawVec$LT$T$C$A$GT$15try_allocate_in17h6ed282d7a49a4e8aE', symObjAddr: 0x27F4, symBinAddr: 0x27B3C, symSize: 0x284 }
  - { offset: 0x8BF85, size: 0x8, addend: 0x0, symName: '__ZN5alloc7raw_vec19RawVec$LT$T$C$A$GT$16with_capacity_in17hb07afe72abd58d3fE', symObjAddr: 0x2A78, symBinAddr: 0x27DC0, symSize: 0x5C }
  - { offset: 0x8BFEB, size: 0x8, addend: 0x0, symName: '__ZN5alloc7raw_vec19RawVec$LT$T$C$A$GT$8grow_one17ha3e028a1a13c1a39E', symObjAddr: 0x2B38, symBinAddr: 0x27E1C, symSize: 0x68 }
  - { offset: 0x8C044, size: 0x8, addend: 0x0, symName: '__ZN5alloc7raw_vec19RawVec$LT$T$C$A$GT$8grow_one17hf778aa1d88aa65b8E', symObjAddr: 0x2BA0, symBinAddr: 0x27E84, symSize: 0x68 }
  - { offset: 0x8CACA, size: 0x8, addend: 0x0, symName: '__ZN103_$LT$alloc..vec..into_iter..IntoIter$LT$T$C$A$GT$$u20$as$u20$core..iter..traits..iterator..Iterator$GT$4next17h59d91946f2655f42E', symObjAddr: 0x0, symBinAddr: 0x28990, symSize: 0xCC }
  - { offset: 0x8CB2E, size: 0x8, addend: 0x0, symName: '__ZN45_$LT$T$u20$as$u20$alloc..string..ToString$GT$9to_string17h51ef2d28ccbbad90E', symObjAddr: 0x7C4, symBinAddr: 0x29154, symSize: 0x118 }
  - { offset: 0x8CC5C, size: 0x8, addend: 0x0, symName: '__ZN103_$LT$alloc..vec..into_iter..IntoIter$LT$T$C$A$GT$$u20$as$u20$core..iter..traits..iterator..Iterator$GT$4next17h59d91946f2655f42E', symObjAddr: 0x0, symBinAddr: 0x28990, symSize: 0xCC }
  - { offset: 0x8CEBB, size: 0x8, addend: 0x0, symName: '__ZN103_$LT$alloc..vec..into_iter..IntoIter$LT$T$C$A$GT$$u20$as$u20$core..iter..traits..iterator..Iterator$GT$4next17h8f6dcf45206eca17E', symObjAddr: 0xCC, symBinAddr: 0x28A5C, symSize: 0xD0 }
  - { offset: 0x8D11A, size: 0x8, addend: 0x0, symName: '__ZN103_$LT$alloc..vec..into_iter..IntoIter$LT$T$C$A$GT$$u20$as$u20$core..iter..traits..iterator..Iterator$GT$9size_hint17h40a35eb55f3a4775E', symObjAddr: 0x19C, symBinAddr: 0x28B2C, symSize: 0xB8 }
  - { offset: 0x8D218, size: 0x8, addend: 0x0, symName: '__ZN103_$LT$alloc..vec..into_iter..IntoIter$LT$T$C$A$GT$$u20$as$u20$core..iter..traits..iterator..Iterator$GT$9size_hint17hc584031115020bc3E', symObjAddr: 0x254, symBinAddr: 0x28BE4, symSize: 0xB8 }
  - { offset: 0x8D31D, size: 0x8, addend: 0x0, symName: '__ZN118_$LT$alloc..vec..into_iter..IntoIter$LT$T$C$A$GT$$u20$as$u20$core..iter..traits..double_ended..DoubleEndedIterator$GT$9next_back17hf36aabe011221b48E', symObjAddr: 0x564, symBinAddr: 0x28EF4, symSize: 0x104 }
  - { offset: 0x8D570, size: 0x8, addend: 0x0, symName: '__ZN157_$LT$$LT$alloc..vec..into_iter..IntoIter$LT$T$C$A$GT$$u20$as$u20$core..ops..drop..Drop$GT$..drop..DropGuard$LT$T$C$A$GT$$u20$as$u20$core..ops..drop..Drop$GT$4drop17h7e9aa49ead04c047E', symObjAddr: 0x668, symBinAddr: 0x28FF8, symSize: 0x80 }
  - { offset: 0x8D657, size: 0x8, addend: 0x0, symName: '__ZN157_$LT$$LT$alloc..vec..into_iter..IntoIter$LT$T$C$A$GT$$u20$as$u20$core..ops..drop..Drop$GT$..drop..DropGuard$LT$T$C$A$GT$$u20$as$u20$core..ops..drop..Drop$GT$4drop17hccfe421c378ea4dbE', symObjAddr: 0x6E8, symBinAddr: 0x29078, symSize: 0x80 }
  - { offset: 0x8D796, size: 0x8, addend: 0x0, symName: '__ZN86_$LT$alloc..vec..into_iter..IntoIter$LT$T$C$A$GT$$u20$as$u20$core..ops..drop..Drop$GT$4drop17h20f9df24617ec998E', symObjAddr: 0x2E98, symBinAddr: 0x2B6B0, symSize: 0x8C }
  - { offset: 0x8D859, size: 0x8, addend: 0x0, symName: '__ZN86_$LT$alloc..vec..into_iter..IntoIter$LT$T$C$A$GT$$u20$as$u20$core..ops..drop..Drop$GT$4drop17h2c0253a9fa58855aE', symObjAddr: 0x2F24, symBinAddr: 0x2B73C, symSize: 0x8C }
  - { offset: 0x8DC1F, size: 0x8, addend: 0x0, symName: '__ZN81_$LT$alloc..vec..splice..Splice$LT$I$C$A$GT$$u20$as$u20$core..ops..drop..Drop$GT$4drop17h72f3a53564aec300E', symObjAddr: 0x2B4C, symBinAddr: 0x2B364, symSize: 0x238 }
  - { offset: 0x8F144, size: 0x8, addend: 0x0, symName: '__ZN4core3ptr105drop_in_place$LT$alloc..boxed..Box$LT$anyhow..error..ErrorImpl$LT$anyhow..wrapper..BoxedError$GT$$GT$$GT$17h15ba758284b58946E', symObjAddr: 0x1110, symBinAddr: 0x299E4, symSize: 0x60 }
  - { offset: 0x8F176, size: 0x8, addend: 0x0, symName: '__ZN4core3ptr106drop_in_place$LT$anyhow..error..ErrorImpl$LT$core..mem..manually_drop..ManuallyDrop$LT$$RF$str$GT$$GT$$GT$17h9cecd9566a46847aE', symObjAddr: 0x1170, symBinAddr: 0x29A44, symSize: 0x24 }
  - { offset: 0x8F1A8, size: 0x8, addend: 0x0, symName: '__ZN4core3ptr111drop_in_place$LT$anyhow..error..ErrorImpl$LT$anyhow..wrapper..MessageError$LT$alloc..string..String$GT$$GT$$GT$17h951323fc33aa01c9E', symObjAddr: 0x1194, symBinAddr: 0x29A68, symSize: 0x64 }
  - { offset: 0x8F1DA, size: 0x8, addend: 0x0, symName: '__ZN4core3ptr118drop_in_place$LT$alloc..boxed..Box$LT$dyn$u20$core..error..Error$u2b$core..marker..Sync$u2b$core..marker..Send$GT$$GT$17h58950aee72912006E', symObjAddr: 0x11F8, symBinAddr: 0x29ACC, symSize: 0x80 }
  - { offset: 0x8F20C, size: 0x8, addend: 0x0, symName: '__ZN4core3ptr120drop_in_place$LT$anyhow..error..ErrorImpl$LT$core..mem..manually_drop..ManuallyDrop$LT$alloc..string..String$GT$$GT$$GT$17hc6fed59e5ae45c7dE', symObjAddr: 0x1278, symBinAddr: 0x29B4C, symSize: 0x24 }
  - { offset: 0x8F23E, size: 0x8, addend: 0x0, symName: '__ZN4core3ptr122drop_in_place$LT$alloc..boxed..Box$LT$anyhow..error..ErrorImpl$LT$anyhow..wrapper..MessageError$LT$$RF$str$GT$$GT$$GT$$GT$17ha663bdfcb94faac6E', symObjAddr: 0x129C, symBinAddr: 0x29B70, symSize: 0x60 }
  - { offset: 0x8F270, size: 0x8, addend: 0x0, symName: '__ZN4core3ptr131drop_in_place$LT$alloc..boxed..Box$LT$anyhow..error..ErrorImpl$LT$core..mem..manually_drop..ManuallyDrop$LT$$RF$str$GT$$GT$$GT$$GT$17h4ec1c4b4fdba57cdE', symObjAddr: 0x12FC, symBinAddr: 0x29BD0, symSize: 0x60 }
  - { offset: 0x8F2A2, size: 0x8, addend: 0x0, symName: '__ZN4core3ptr133drop_in_place$LT$alloc..vec..Vec$LT$u8$GT$..extend_trusted$LT$$RF$mut$u20$core..str..iter..Bytes$GT$..$u7b$$u7b$closure$u7d$$u7d$$GT$17h76474e5d476db668E', symObjAddr: 0x135C, symBinAddr: 0x29C30, symSize: 0x24 }
  - { offset: 0x8F2D4, size: 0x8, addend: 0x0, symName: '__ZN4core3ptr136drop_in_place$LT$alloc..boxed..Box$LT$anyhow..error..ErrorImpl$LT$anyhow..wrapper..MessageError$LT$alloc..string..String$GT$$GT$$GT$$GT$17hba7fcd29fc51abb5E', symObjAddr: 0x1380, symBinAddr: 0x29C54, symSize: 0x60 }
  - { offset: 0x8F306, size: 0x8, addend: 0x0, symName: '__ZN4core3ptr145drop_in_place$LT$alloc..boxed..Box$LT$anyhow..error..ErrorImpl$LT$core..mem..manually_drop..ManuallyDrop$LT$alloc..string..String$GT$$GT$$GT$$GT$17hcff3a4c2b0f3f5edE', symObjAddr: 0x13E0, symBinAddr: 0x29CB4, symSize: 0x60 }
  - { offset: 0x8F338, size: 0x8, addend: 0x0, symName: '__ZN4core3ptr149drop_in_place$LT$$LT$alloc..vec..drain..Drain$LT$T$C$A$GT$$u20$as$u20$core..ops..drop..Drop$GT$..drop..DropGuard$LT$u8$C$alloc..alloc..Global$GT$$GT$17h01deaabe11f030ddE', symObjAddr: 0x1440, symBinAddr: 0x29D14, symSize: 0x24 }
  - { offset: 0x8F36A, size: 0x8, addend: 0x0, symName: '__ZN4core3ptr150drop_in_place$LT$std..sync..lazy_lock..LazyLock$LT$std..backtrace..Capture$C$std..backtrace..helper..lazy_resolve..$u7b$$u7b$closure$u7d$$u7d$$GT$$GT$17h357148c8b507c007E', symObjAddr: 0x1464, symBinAddr: 0x29D38, symSize: 0x24 }
  - { offset: 0x8F39C, size: 0x8, addend: 0x0, symName: '__ZN4core3ptr156drop_in_place$LT$$LT$alloc..vec..into_iter..IntoIter$LT$T$C$A$GT$$u20$as$u20$core..ops..drop..Drop$GT$..drop..DropGuard$LT$u8$C$alloc..alloc..Global$GT$$GT$17h89d7da8f420d1ba9E', symObjAddr: 0x1488, symBinAddr: 0x29D5C, symSize: 0x24 }
  - { offset: 0x8F3CE, size: 0x8, addend: 0x0, symName: '__ZN4core3ptr184drop_in_place$LT$$LT$alloc..vec..into_iter..IntoIter$LT$T$C$A$GT$$u20$as$u20$core..ops..drop..Drop$GT$..drop..DropGuard$LT$$RF$dyn$u20$core..error..Error$C$alloc..alloc..Global$GT$$GT$17hccbad5b5305b6fb4E', symObjAddr: 0x14AC, symBinAddr: 0x29D80, symSize: 0x24 }
  - { offset: 0x8F400, size: 0x8, addend: 0x0, symName: '__ZN4core3ptr196drop_in_place$LT$anyhow..error..ErrorImpl$LT$core..mem..manually_drop..ManuallyDrop$LT$alloc..boxed..Box$LT$dyn$u20$core..error..Error$u2b$core..marker..Sync$u2b$core..marker..Send$GT$$GT$$GT$$GT$17h3c9e459156373fbfE', symObjAddr: 0x14D0, symBinAddr: 0x29DA4, symSize: 0x24 }
  - { offset: 0x8F432, size: 0x8, addend: 0x0, symName: '__ZN4core3ptr221drop_in_place$LT$alloc..boxed..Box$LT$anyhow..error..ErrorImpl$LT$core..mem..manually_drop..ManuallyDrop$LT$alloc..boxed..Box$LT$dyn$u20$core..error..Error$u2b$core..marker..Sync$u2b$core..marker..Send$GT$$GT$$GT$$GT$$GT$17h9076e62cfa5ccf88E', symObjAddr: 0x14F4, symBinAddr: 0x29DC8, symSize: 0x60 }
  - { offset: 0x8F464, size: 0x8, addend: 0x0, symName: '__ZN4core3ptr229drop_in_place$LT$core..iter..traits..iterator..Iterator..for_each..call$LT$u8$C$alloc..vec..Vec$LT$u8$GT$..extend_trusted$LT$$RF$mut$u20$core..str..iter..Bytes$GT$..$u7b$$u7b$closure$u7d$$u7d$$GT$..$u7b$$u7b$closure$u7d$$u7d$$GT$17hc65f4aee215212beE', symObjAddr: 0x1554, symBinAddr: 0x29E28, symSize: 0x24 }
  - { offset: 0x8F496, size: 0x8, addend: 0x0, symName: '__ZN4core3ptr349drop_in_place$LT$core..ops..try_trait..NeverShortCircuit$LT$$LP$$RP$$GT$..wrap_mut_2$LT$$LP$$RP$$C$u8$C$core..iter..traits..iterator..Iterator..for_each..call$LT$u8$C$alloc..vec..Vec$LT$u8$GT$..extend_trusted$LT$$RF$mut$u20$core..str..iter..Bytes$GT$..$u7b$$u7b$closure$u7d$$u7d$$GT$..$u7b$$u7b$closure$u7d$$u7d$$GT$..$u7b$$u7b$closure$u7d$$u7d$$GT$17h68af34acc1220f72E', symObjAddr: 0x1598, symBinAddr: 0x29E4C, symSize: 0x24 }
  - { offset: 0x8F4C8, size: 0x8, addend: 0x0, symName: '__ZN4core3ptr34drop_in_place$LT$anyhow..Chain$GT$17h7dd7ad1f0b7062f6E', symObjAddr: 0x15BC, symBinAddr: 0x29E70, symSize: 0x24 }
  - { offset: 0x8F4FA, size: 0x8, addend: 0x0, symName: '__ZN4core3ptr42drop_in_place$LT$alloc..string..String$GT$17h5420b1808d13ec9dE', symObjAddr: 0x1600, symBinAddr: 0x29E94, symSize: 0x24 }
  - { offset: 0x8F52C, size: 0x8, addend: 0x0, symName: '__ZN4core3ptr42drop_in_place$LT$std..backtrace..Inner$GT$17h28dfbe735c54512bE', symObjAddr: 0x1624, symBinAddr: 0x29EB8, symSize: 0x48 }
  - { offset: 0x8F55E, size: 0x8, addend: 0x0, symName: '__ZN4core3ptr44drop_in_place$LT$std..backtrace..Capture$GT$17hb5c15ac488ea859dE', symObjAddr: 0x166C, symBinAddr: 0x29F00, symSize: 0x24 }
  - { offset: 0x8F590, size: 0x8, addend: 0x0, symName: '__ZN4core3ptr46drop_in_place$LT$alloc..vec..Vec$LT$u8$GT$$GT$17hadd0e7edc5636477E', symObjAddr: 0x1690, symBinAddr: 0x29F24, symSize: 0x5C }
  - { offset: 0x8F5C2, size: 0x8, addend: 0x0, symName: '__ZN4core3ptr46drop_in_place$LT$anyhow..chain..ChainState$GT$17ha0f0423907be65fdE', symObjAddr: 0x16EC, symBinAddr: 0x29F80, symSize: 0x44 }
  - { offset: 0x8F5F4, size: 0x8, addend: 0x0, symName: '__ZN4core3ptr46drop_in_place$LT$std..backtrace..Backtrace$GT$17hd4a741e35b4b430fE', symObjAddr: 0x1730, symBinAddr: 0x29FC4, symSize: 0x24 }
  - { offset: 0x8F626, size: 0x8, addend: 0x0, symName: '__ZN4core3ptr47drop_in_place$LT$alloc..vec..Vec$LT$u16$GT$$GT$17h93d808980b45dddeE', symObjAddr: 0x1754, symBinAddr: 0x29FE8, symSize: 0x5C }
  - { offset: 0x8F658, size: 0x8, addend: 0x0, symName: '__ZN4core3ptr48drop_in_place$LT$anyhow..wrapper..BoxedError$GT$17hee013ed41d4e509cE', symObjAddr: 0x17B0, symBinAddr: 0x2A044, symSize: 0x24 }
  - { offset: 0x8F68A, size: 0x8, addend: 0x0, symName: '__ZN4core3ptr48drop_in_place$LT$std..backtrace..BytesOrWide$GT$17h13a447e0eff4c890E', symObjAddr: 0x17D4, symBinAddr: 0x2A068, symSize: 0x50 }
  - { offset: 0x8F6BC, size: 0x8, addend: 0x0, symName: '__ZN4core3ptr51drop_in_place$LT$std..backtrace..BacktraceFrame$GT$17ha03cb8ee0989407bE', symObjAddr: 0x1824, symBinAddr: 0x2A0B8, symSize: 0x24 }
  - { offset: 0x8F6EE, size: 0x8, addend: 0x0, symName: '__ZN4core3ptr52drop_in_place$LT$std..backtrace..BacktraceSymbol$GT$17h1a0ca611734d13caE', symObjAddr: 0x1848, symBinAddr: 0x2A0DC, symSize: 0x5C }
  - { offset: 0x8F720, size: 0x8, addend: 0x0, symName: '__ZN4core3ptr53drop_in_place$LT$alloc..raw_vec..RawVec$LT$u8$GT$$GT$17h5e1930127f267d4bE', symObjAddr: 0x18A4, symBinAddr: 0x2A138, symSize: 0x24 }
  - { offset: 0x8F752, size: 0x8, addend: 0x0, symName: '__ZN4core3ptr54drop_in_place$LT$alloc..raw_vec..RawVec$LT$u16$GT$$GT$17hb0a524b9c067fa74E', symObjAddr: 0x18C8, symBinAddr: 0x2A15C, symSize: 0x24 }
  - { offset: 0x8F784, size: 0x8, addend: 0x0, symName: '__ZN4core3ptr55drop_in_place$LT$alloc..vec..drain..Drain$LT$u8$GT$$GT$17hd145510d350fc727E', symObjAddr: 0x18FC, symBinAddr: 0x2A180, symSize: 0x24 }
  - { offset: 0x8F7B6, size: 0x8, addend: 0x0, symName: '__ZN4core3ptr61drop_in_place$LT$$u5b$std..backtrace..BacktraceFrame$u5d$$GT$17h2a51c7a9e240ab91E', symObjAddr: 0x1930, symBinAddr: 0x2A1A4, symSize: 0xC4 }
  - { offset: 0x8F7E8, size: 0x8, addend: 0x0, symName: '__ZN4core3ptr62drop_in_place$LT$$u5b$std..backtrace..BacktraceSymbol$u5d$$GT$17h52d89b93573268c5E', symObjAddr: 0x19F4, symBinAddr: 0x2A268, symSize: 0xC4 }
  - { offset: 0x8F81A, size: 0x8, addend: 0x0, symName: '__ZN4core3ptr62drop_in_place$LT$alloc..vec..into_iter..IntoIter$LT$u8$GT$$GT$17h7bec2943f3aa47e9E', symObjAddr: 0x1AB8, symBinAddr: 0x2A32C, symSize: 0x24 }
  - { offset: 0x8F84C, size: 0x8, addend: 0x0, symName: '__ZN4core3ptr62drop_in_place$LT$alloc..vec..set_len_on_drop..SetLenOnDrop$GT$17hbdafd431e6e0abbdE', symObjAddr: 0x1ADC, symBinAddr: 0x2A350, symSize: 0x24 }
  - { offset: 0x8F87E, size: 0x8, addend: 0x0, symName: '__ZN4core3ptr74drop_in_place$LT$alloc..vec..Vec$LT$$RF$dyn$u20$core..error..Error$GT$$GT$17h66d33ea6461c7ebfE', symObjAddr: 0x1B20, symBinAddr: 0x2A374, symSize: 0x5C }
  - { offset: 0x8F8B0, size: 0x8, addend: 0x0, symName: '__ZN4core3ptr74drop_in_place$LT$alloc..vec..Vec$LT$std..backtrace..BacktraceFrame$GT$$GT$17ha0a20f6ab6c78164E', symObjAddr: 0x1B7C, symBinAddr: 0x2A3D0, symSize: 0x5C }
  - { offset: 0x8F8E2, size: 0x8, addend: 0x0, symName: '__ZN4core3ptr74drop_in_place$LT$core..iter..adapters..skip..Skip$LT$anyhow..Chain$GT$$GT$17h93eb9dbd9100ac82E', symObjAddr: 0x1BD8, symBinAddr: 0x2A42C, symSize: 0x24 }
  - { offset: 0x8F914, size: 0x8, addend: 0x0, symName: '__ZN4core3ptr74drop_in_place$LT$core..option..Option$LT$alloc..vec..Vec$LT$u8$GT$$GT$$GT$17h5d81c30d666ad669E', symObjAddr: 0x1BFC, symBinAddr: 0x2A450, symSize: 0x48 }
  - { offset: 0x8F946, size: 0x8, addend: 0x0, symName: '__ZN4core3ptr74drop_in_place$LT$core..option..Option$LT$std..backtrace..Backtrace$GT$$GT$17h6ab35c771aa3f1f8E', symObjAddr: 0x1C44, symBinAddr: 0x2A498, symSize: 0x44 }
  - { offset: 0x8F978, size: 0x8, addend: 0x0, symName: '__ZN4core3ptr75drop_in_place$LT$alloc..vec..Vec$LT$std..backtrace..BacktraceSymbol$GT$$GT$17h1a50f70f7e92da3bE', symObjAddr: 0x1C88, symBinAddr: 0x2A4DC, symSize: 0x5C }
  - { offset: 0x8F9AA, size: 0x8, addend: 0x0, symName: '__ZN4core3ptr76drop_in_place$LT$core..option..Option$LT$std..backtrace..BytesOrWide$GT$$GT$17h42b9b0a9783e4d5bE', symObjAddr: 0x1CE4, symBinAddr: 0x2A538, symSize: 0x44 }
  - { offset: 0x8F9DC, size: 0x8, addend: 0x0, symName: '__ZN4core3ptr77drop_in_place$LT$alloc..vec..splice..Splice$LT$core..str..iter..Bytes$GT$$GT$17h8b1a33829b01c738E', symObjAddr: 0x1D28, symBinAddr: 0x2A57C, symSize: 0x5C }
  - { offset: 0x8FA0E, size: 0x8, addend: 0x0, symName: '__ZN4core3ptr79drop_in_place$LT$anyhow..wrapper..MessageError$LT$alloc..string..String$GT$$GT$17h2436ff7e99e4b6fdE', symObjAddr: 0x1D84, symBinAddr: 0x2A5D8, symSize: 0x24 }
  - { offset: 0x8FA40, size: 0x8, addend: 0x0, symName: '__ZN4core3ptr80drop_in_place$LT$anyhow..error..ErrorImpl$LT$anyhow..wrapper..BoxedError$GT$$GT$17hab8de279655720c7E', symObjAddr: 0x1DA8, symBinAddr: 0x2A5FC, symSize: 0x64 }
  - { offset: 0x8FA72, size: 0x8, addend: 0x0, symName: '__ZN4core3ptr81drop_in_place$LT$alloc..raw_vec..RawVec$LT$$RF$dyn$u20$core..error..Error$GT$$GT$17hb520518e356ddfebE', symObjAddr: 0x1E0C, symBinAddr: 0x2A660, symSize: 0x24 }
  - { offset: 0x8FAA4, size: 0x8, addend: 0x0, symName: '__ZN4core3ptr81drop_in_place$LT$alloc..raw_vec..RawVec$LT$std..backtrace..BacktraceFrame$GT$$GT$17h77a665bae95b020dE', symObjAddr: 0x1E30, symBinAddr: 0x2A684, symSize: 0x24 }
  - { offset: 0x8FAD6, size: 0x8, addend: 0x0, symName: '__ZN4core3ptr82drop_in_place$LT$alloc..raw_vec..RawVec$LT$std..backtrace..BacktraceSymbol$GT$$GT$17h3469b57df5e878cfE', symObjAddr: 0x1E54, symBinAddr: 0x2A6A8, symSize: 0x24 }
  - { offset: 0x8FB08, size: 0x8, addend: 0x0, symName: '__ZN4core3ptr84drop_in_place$LT$core..iter..adapters..enumerate..Enumerate$LT$anyhow..Chain$GT$$GT$17h10bca4f6ed02b8d3E', symObjAddr: 0x1E78, symBinAddr: 0x2A6CC, symSize: 0x24 }
  - { offset: 0x8FB3A, size: 0x8, addend: 0x0, symName: '__ZN4core3ptr86drop_in_place$LT$std..backtrace..helper..lazy_resolve..$u7b$$u7b$closure$u7d$$u7d$$GT$17h2ba3bf65cd5bade8E', symObjAddr: 0x1E9C, symBinAddr: 0x2A6F0, symSize: 0x24 }
  - { offset: 0x8FB6C, size: 0x8, addend: 0x0, symName: '__ZN4core3ptr90drop_in_place$LT$alloc..vec..into_iter..IntoIter$LT$$RF$dyn$u20$core..error..Error$GT$$GT$17h9ca25583732036d5E', symObjAddr: 0x1EC0, symBinAddr: 0x2A714, symSize: 0x24 }
  - { offset: 0x8FB9E, size: 0x8, addend: 0x0, symName: '__ZN4core3ptr93drop_in_place$LT$dyn$u20$core..error..Error$u2b$core..marker..Sync$u2b$core..marker..Send$GT$17h9938e3c858662d9eE', symObjAddr: 0x1EE4, symBinAddr: 0x2A738, symSize: 0x48 }
  - { offset: 0x8FBD0, size: 0x8, addend: 0x0, symName: '__ZN4core3ptr97drop_in_place$LT$anyhow..error..ErrorImpl$LT$anyhow..wrapper..MessageError$LT$$RF$str$GT$$GT$$GT$17ha9c73a1ba22b0198E', symObjAddr: 0x1F2C, symBinAddr: 0x2A780, symSize: 0x24 }
  - { offset: 0x90AE1, size: 0x8, addend: 0x0, symName: __ZN4core3fmt5Write10write_char17hac03c042d705454dE, symObjAddr: 0xEE8, symBinAddr: 0x297E8, symSize: 0x70 }
  - { offset: 0x90B5F, size: 0x8, addend: 0x0, symName: __ZN4core3fmt5Write9write_fmt17h50c8ca34ebacac49E, symObjAddr: 0xF58, symBinAddr: 0x29858, symSize: 0x24 }
  - { offset: 0x90BB3, size: 0x8, addend: 0x0, symName: '__ZN75_$LT$$RF$mut$u20$W$u20$as$u20$core..fmt..Write..write_fmt..SpecWriteFmt$GT$14spec_write_fmt17hb509e8fc4492f128E', symObjAddr: 0x29BC, symBinAddr: 0x2B1D4, symSize: 0x190 }
  - { offset: 0x90DF9, size: 0x8, addend: 0x0, symName: __ZN4core9panicking13assert_failed17ha8a6451fd9ea9c2aE, symObjAddr: 0x2898, symBinAddr: 0xEA34C, symSize: 0x3C }
  - { offset: 0x91357, size: 0x8, addend: 0x0, symName: __ZN4core3mem4drop17h60115c1221763478E, symObjAddr: 0xF7C, symBinAddr: 0x2987C, symSize: 0x28 }
  - { offset: 0x9138D, size: 0x8, addend: 0x0, symName: __ZN4core3mem4drop17h7c752ff82724415cE, symObjAddr: 0xFA4, symBinAddr: 0x298A4, symSize: 0x28 }
  - { offset: 0x913C3, size: 0x8, addend: 0x0, symName: __ZN4core3mem4drop17h891c8ebc85d03873E, symObjAddr: 0xFCC, symBinAddr: 0x298CC, symSize: 0x28 }
  - { offset: 0x913F9, size: 0x8, addend: 0x0, symName: __ZN4core3mem4drop17h90e83fc88e6cfcf5E, symObjAddr: 0xFF4, symBinAddr: 0x298F4, symSize: 0x28 }
  - { offset: 0x9142F, size: 0x8, addend: 0x0, symName: __ZN4core3mem4drop17hc362a3fbf73e4273E, symObjAddr: 0x101C, symBinAddr: 0x2991C, symSize: 0x28 }
  - { offset: 0x91465, size: 0x8, addend: 0x0, symName: __ZN4core3mem4drop17hc59842bb90bfe5e1E, symObjAddr: 0x1044, symBinAddr: 0x29944, symSize: 0x28 }
  - { offset: 0x9149B, size: 0x8, addend: 0x0, symName: __ZN4core3mem4drop17he688e96c6beba215E, symObjAddr: 0x106C, symBinAddr: 0x2996C, symSize: 0x10 }
  - { offset: 0x91511, size: 0x8, addend: 0x0, symName: '__ZN104_$LT$core..ops..control_flow..ControlFlow$LT$B$C$C$GT$$u20$as$u20$core..ops..try_trait..FromResidual$GT$13from_residual17hcdc9db33d26c8a33E', symObjAddr: 0x30C, symBinAddr: 0x28C9C, symSize: 0x1C }
  - { offset: 0x9171D, size: 0x8, addend: 0x0, symName: '__ZN90_$LT$core..ops..control_flow..ControlFlow$LT$B$C$C$GT$$u20$as$u20$core..cmp..PartialEq$GT$2eq17h00ee39e4b1457c73E', symObjAddr: 0x2FB0, symBinAddr: 0x2B7C8, symSize: 0xEC }
  - { offset: 0x91870, size: 0x8, addend: 0x0, symName: '__ZN95_$LT$core..ops..control_flow..ControlFlow$LT$B$C$C$GT$$u20$as$u20$core..ops..try_trait..Try$GT$11from_output17h50da28b57729b690E', symObjAddr: 0x309C, symBinAddr: 0x2B8B4, symSize: 0x18 }
  - { offset: 0x918B2, size: 0x8, addend: 0x0, symName: '__ZN95_$LT$core..ops..control_flow..ControlFlow$LT$B$C$C$GT$$u20$as$u20$core..ops..try_trait..Try$GT$6branch17he5daf294d3381c93E', symObjAddr: 0x30B4, symBinAddr: 0x2B8CC, symSize: 0x38 }
  - { offset: 0x91AD7, size: 0x8, addend: 0x0, symName: __ZN4core3ops8function5FnMut8call_mut17habfa4197a061a7bcE, symObjAddr: 0x107C, symBinAddr: 0x2997C, symSize: 0x28 }
  - { offset: 0x91B1C, size: 0x8, addend: 0x0, symName: __ZN4core3ops8function5FnMut8call_mut17hfdb72f4531a96f39E, symObjAddr: 0x10A4, symBinAddr: 0x299A4, symSize: 0x40 }
  - { offset: 0x91C26, size: 0x8, addend: 0x0, symName: '__ZN110_$LT$core..iter..adapters..enumerate..Enumerate$LT$I$GT$$u20$as$u20$core..iter..traits..iterator..Iterator$GT$4next17h31ab6ccab052e2fbE', symObjAddr: 0x328, symBinAddr: 0x28CB8, symSize: 0x11C }
  - { offset: 0x91D18, size: 0x8, addend: 0x0, symName: '__ZN110_$LT$core..iter..adapters..enumerate..Enumerate$LT$I$GT$$u20$as$u20$core..iter..traits..iterator..Iterator$GT$4next17h3c5829b5aa931f57E', symObjAddr: 0x444, symBinAddr: 0x28DD4, symSize: 0x120 }
  - { offset: 0x91F1D, size: 0x8, addend: 0x0, symName: __ZN4core4iter6traits10exact_size17ExactSizeIterator3len17h1c3a49130c199808E, symObjAddr: 0x2048, symBinAddr: 0x2A89C, symSize: 0xE4 }
  - { offset: 0x92039, size: 0x8, addend: 0x0, symName: __ZN4core4iter6traits10exact_size17ExactSizeIterator3len17h99d6e12c48ea8f5aE, symObjAddr: 0x212C, symBinAddr: 0x2A980, symSize: 0xE4 }
  - { offset: 0x921C0, size: 0x8, addend: 0x0, symName: __ZN4core4iter6traits8iterator8Iterator10advance_by17h98a20b2211689b17E, symObjAddr: 0x2210, symBinAddr: 0x2AA64, symSize: 0x138 }
  - { offset: 0x92386, size: 0x8, addend: 0x0, symName: __ZN4core4iter6traits8iterator8Iterator3nth17h08ede6670451756fE, symObjAddr: 0x2348, symBinAddr: 0x2AB9C, symSize: 0x88 }
  - { offset: 0x9247C, size: 0x8, addend: 0x0, symName: __ZN4core4iter6traits8iterator8Iterator4fold17h421510317d6718deE, symObjAddr: 0x23D0, symBinAddr: 0x2AC24, symSize: 0x14C }
  - { offset: 0x9251D, size: 0x8, addend: 0x0, symName: __ZN4core4iter6traits8iterator8Iterator4last17h2794e9148f254213E, symObjAddr: 0x251C, symBinAddr: 0x2AD70, symSize: 0x28 }
  - { offset: 0x92558, size: 0x8, addend: 0x0, symName: __ZN4core4iter6traits8iterator8Iterator4skip17h70e3e60c5f999ad0E, symObjAddr: 0x2544, symBinAddr: 0x2AD98, symSize: 0x24 }
  - { offset: 0x925DA, size: 0x8, addend: 0x0, symName: __ZN4core4iter6traits8iterator8Iterator9enumerate17heb163a193070eb76E, symObjAddr: 0x2568, symBinAddr: 0x2ADBC, symSize: 0x18 }
  - { offset: 0x9260D, size: 0x8, addend: 0x0, symName: __ZN4core4iter6traits8iterator8Iterator9enumerate17heb163a193070eb76E, symObjAddr: 0x2568, symBinAddr: 0x2ADBC, symSize: 0x18 }
  - { offset: 0x9261F, size: 0x8, addend: 0x0, symName: __ZN4core4iter6traits8iterator8Iterator9enumerate17heb163a193070eb76E, symObjAddr: 0x2568, symBinAddr: 0x2ADBC, symSize: 0x18 }
  - { offset: 0x9281B, size: 0x8, addend: 0x0, symName: '__ZN63_$LT$I$u20$as$u20$core..iter..traits..collect..IntoIterator$GT$9into_iter17h259362dd93a17d67E', symObjAddr: 0x28D4, symBinAddr: 0x2B0EC, symSize: 0x30 }
  - { offset: 0x92856, size: 0x8, addend: 0x0, symName: '__ZN63_$LT$I$u20$as$u20$core..iter..traits..collect..IntoIterator$GT$9into_iter17hd132e4f0a690a3ddE', symObjAddr: 0x2904, symBinAddr: 0x2B11C, symSize: 0x30 }
  - { offset: 0x929B4, size: 0x8, addend: 0x0, symName: __ZN4core10intrinsics11size_of_val17h0ce9cdaf03c93f82E, symObjAddr: 0x8DC, symBinAddr: 0x2926C, symSize: 0x10 }
  - { offset: 0x929EE, size: 0x8, addend: 0x0, symName: __ZN4core10intrinsics11size_of_val17h26dd8418423807e6E, symObjAddr: 0x8EC, symBinAddr: 0x2927C, symSize: 0x10 }
  - { offset: 0x92A28, size: 0x8, addend: 0x0, symName: __ZN4core10intrinsics11size_of_val17h5ab13f481b10ccecE, symObjAddr: 0x8FC, symBinAddr: 0x2928C, symSize: 0xC }
  - { offset: 0x92A62, size: 0x8, addend: 0x0, symName: __ZN4core10intrinsics11size_of_val17h62c7eefbd29ee0aeE, symObjAddr: 0x908, symBinAddr: 0x29298, symSize: 0xC }
  - { offset: 0x92A9C, size: 0x8, addend: 0x0, symName: __ZN4core10intrinsics11size_of_val17hbccdec841ff23acaE, symObjAddr: 0x914, symBinAddr: 0x292A4, symSize: 0xC }
  - { offset: 0x92AD6, size: 0x8, addend: 0x0, symName: __ZN4core10intrinsics11size_of_val17hc7ab5cf771ef02f6E, symObjAddr: 0x920, symBinAddr: 0x292B0, symSize: 0xC }
  - { offset: 0x92B10, size: 0x8, addend: 0x0, symName: __ZN4core10intrinsics11size_of_val17hdfa2e97c7a0bc992E, symObjAddr: 0x92C, symBinAddr: 0x292BC, symSize: 0xC }
  - { offset: 0x92B4A, size: 0x8, addend: 0x0, symName: __ZN4core10intrinsics11size_of_val17hf477bcd9664732b5E, symObjAddr: 0x938, symBinAddr: 0x292C8, symSize: 0xC }
  - { offset: 0x92B8A, size: 0x8, addend: 0x0, symName: __ZN4core10intrinsics11write_bytes18precondition_check17hdff89026ed7e2968E, symObjAddr: 0x944, symBinAddr: 0x292D4, symSize: 0xEC }
  - { offset: 0x92CF5, size: 0x8, addend: 0x0, symName: __ZN4core10intrinsics16min_align_of_val17h09c9430427363c60E, symObjAddr: 0xA30, symBinAddr: 0x293C0, symSize: 0x10 }
  - { offset: 0x92D2F, size: 0x8, addend: 0x0, symName: __ZN4core10intrinsics16min_align_of_val17h1d394f0c43ceaf5aE, symObjAddr: 0xA40, symBinAddr: 0x293D0, symSize: 0xC }
  - { offset: 0x92D69, size: 0x8, addend: 0x0, symName: __ZN4core10intrinsics16min_align_of_val17h27820a4eb4ed3fbeE, symObjAddr: 0xA4C, symBinAddr: 0x293DC, symSize: 0xC }
  - { offset: 0x92DA3, size: 0x8, addend: 0x0, symName: __ZN4core10intrinsics16min_align_of_val17h4d92451ad446d90dE, symObjAddr: 0xA58, symBinAddr: 0x293E8, symSize: 0xC }
  - { offset: 0x92DDD, size: 0x8, addend: 0x0, symName: __ZN4core10intrinsics16min_align_of_val17h5b36fe7fc138125dE, symObjAddr: 0xA64, symBinAddr: 0x293F4, symSize: 0xC }
  - { offset: 0x92E17, size: 0x8, addend: 0x0, symName: __ZN4core10intrinsics16min_align_of_val17hd80c6d47237f495fE, symObjAddr: 0xA70, symBinAddr: 0x29400, symSize: 0xC }
  - { offset: 0x92E51, size: 0x8, addend: 0x0, symName: __ZN4core10intrinsics16min_align_of_val17hdfbf286d4656fcd5E, symObjAddr: 0xA7C, symBinAddr: 0x2940C, symSize: 0xC }
  - { offset: 0x92E91, size: 0x8, addend: 0x0, symName: __ZN4core10intrinsics19copy_nonoverlapping18precondition_check17h3bdaab8de75bf124E, symObjAddr: 0xA88, symBinAddr: 0x29418, symSize: 0x1EC }
  - { offset: 0x931B8, size: 0x8, addend: 0x0, symName: __ZN4core10intrinsics23is_val_statically_known17h5f3f2f0f58693dafE, symObjAddr: 0xC74, symBinAddr: 0x29604, symSize: 0x18 }
  - { offset: 0x931F8, size: 0x8, addend: 0x0, symName: __ZN4core10intrinsics4copy18precondition_check17h398586019e2367a0E, symObjAddr: 0xC8C, symBinAddr: 0x2961C, symSize: 0x1A8 }
  - { offset: 0x934A3, size: 0x8, addend: 0x0, symName: __ZN4core10intrinsics7type_id17h19e78046a6467242E, symObjAddr: 0xE34, symBinAddr: 0x297C4, symSize: 0x4 }
  - { offset: 0x934CD, size: 0x8, addend: 0x0, symName: __ZN4core10intrinsics7type_id17h3ee8f326517180b9E, symObjAddr: 0xE38, symBinAddr: 0x297C8, symSize: 0x4 }
  - { offset: 0x934F7, size: 0x8, addend: 0x0, symName: __ZN4core10intrinsics7type_id17h4d8d7c53438866ddE, symObjAddr: 0xE3C, symBinAddr: 0x297CC, symSize: 0x4 }
  - { offset: 0x93521, size: 0x8, addend: 0x0, symName: __ZN4core10intrinsics7type_id17h5c79a3d8de4ae6eaE, symObjAddr: 0xE40, symBinAddr: 0x297D0, symSize: 0x4 }
  - { offset: 0x9354B, size: 0x8, addend: 0x0, symName: __ZN4core10intrinsics7type_id17h6034b84683664081E, symObjAddr: 0xE44, symBinAddr: 0x297D4, symSize: 0x4 }
  - { offset: 0x93575, size: 0x8, addend: 0x0, symName: __ZN4core10intrinsics7type_id17h70127a27935b3a58E, symObjAddr: 0xE48, symBinAddr: 0x297D8, symSize: 0x4 }
  - { offset: 0x9359F, size: 0x8, addend: 0x0, symName: __ZN4core10intrinsics7type_id17hbca6e0896db31c37E, symObjAddr: 0xE4C, symBinAddr: 0x297DC, symSize: 0x4 }
  - { offset: 0x935C9, size: 0x8, addend: 0x0, symName: __ZN4core10intrinsics7type_id17hc73af885ef9030fdE, symObjAddr: 0xE50, symBinAddr: 0x297E0, symSize: 0x4 }
  - { offset: 0x935F3, size: 0x8, addend: 0x0, symName: __ZN4core10intrinsics7type_id17hcb316b4a702389edE, symObjAddr: 0xE54, symBinAddr: 0x297E4, symSize: 0x4 }
  - { offset: 0x93B07, size: 0x8, addend: 0x0, symName: __ZN4core4char7convert18from_u32_unchecked18precondition_check17h718d80105866e412E, symObjAddr: 0x1FB0, symBinAddr: 0x2A804, symSize: 0x98 }
  - { offset: 0x93BCF, size: 0x8, addend: 0x0, symName: '__ZN4core3str6traits108_$LT$impl$u20$core..slice..index..SliceIndex$LT$str$GT$$u20$for$u20$core..ops..range..Range$LT$usize$GT$$GT$13get_unchecked18precondition_check17hfcad6eca75b1832bE', symObjAddr: 0x1F50, symBinAddr: 0x2A7A4, symSize: 0x60 }
  - { offset: 0x93D1A, size: 0x8, addend: 0x0, symName: __ZN4core5slice3raw14from_raw_parts17h8e6650d0fbf461d2E, symObjAddr: 0x2580, symBinAddr: 0x2ADD4, symSize: 0x50 }
  - { offset: 0x93D67, size: 0x8, addend: 0x0, symName: __ZN4core5slice3raw14from_raw_parts18precondition_check17hcd20c340a1eb207fE, symObjAddr: 0x25D0, symBinAddr: 0x2AE24, symSize: 0x164 }
  - { offset: 0x93F34, size: 0x8, addend: 0x0, symName: __ZN4core5slice3raw18from_raw_parts_mut18precondition_check17hd1bb32be9cd36eb2E, symObjAddr: 0x2734, symBinAddr: 0x2AF88, symSize: 0x164 }
  - { offset: 0x94108, size: 0x8, addend: 0x0, symName: '__ZN73_$LT$$u5b$A$u5d$$u20$as$u20$core..slice..cmp..SlicePartialEq$LT$B$GT$$GT$5equal17h3c0f92669774c431E', symObjAddr: 0x2934, symBinAddr: 0x2B14C, symSize: 0x88 }
  - { offset: 0x9430D, size: 0x8, addend: 0x0, symName: '__ZN67_$LT$anyhow..fmt..Indented$LT$T$GT$$u20$as$u20$core..fmt..Write$GT$9write_str17hc72a000b1d8189c1E', symObjAddr: 0x3D5C, symBinAddr: 0x2BFB8, symSize: 0x3C0 }
  - { offset: 0x945FD, size: 0x8, addend: 0x0, symName: '__ZN6anyhow5chain82_$LT$impl$u20$core..iter..traits..iterator..Iterator$u20$for$u20$anyhow..Chain$GT$4next17ha98e971a139dc90fE', symObjAddr: 0x3134, symBinAddr: 0x2B904, symSize: 0xE8 }
  - { offset: 0x94696, size: 0x8, addend: 0x0, symName: '__ZN6anyhow5chain82_$LT$impl$u20$core..iter..traits..iterator..Iterator$u20$for$u20$anyhow..Chain$GT$9size_hint17h231aa1506584903cE', symObjAddr: 0x321C, symBinAddr: 0x2B9EC, symSize: 0x50 }
  - { offset: 0x946EA, size: 0x8, addend: 0x0, symName: '__ZN6anyhow5chain97_$LT$impl$u20$core..iter..traits..double_ended..DoubleEndedIterator$u20$for$u20$anyhow..Chain$GT$9next_back17h2e743ef9804240e2E', symObjAddr: 0x326C, symBinAddr: 0x2BA3C, symSize: 0x270 }
  - { offset: 0x947BE, size: 0x8, addend: 0x0, symName: '__ZN6anyhow5chain93_$LT$impl$u20$core..iter..traits..exact_size..ExactSizeIterator$u20$for$u20$anyhow..Chain$GT$3len17h912d9976aaba4b2dE', symObjAddr: 0x34DC, symBinAddr: 0x2BCAC, symSize: 0xE8 }
  - { offset: 0x94857, size: 0x8, addend: 0x0, symName: '__ZN6anyhow5chain66_$LT$impl$u20$core..default..Default$u20$for$u20$anyhow..Chain$GT$7default17ha6692900adce7eebE', symObjAddr: 0x35C4, symBinAddr: 0x2BD94, symSize: 0x58 }
  - { offset: 0x955E4, size: 0x8, addend: 0x0, symName: '__ZN6anyhow5error67_$LT$impl$u20$core..ops..deref..Deref$u20$for$u20$anyhow..Error$GT$5deref17h9effd6fbca93829eE', symObjAddr: 0x3C1C, symBinAddr: 0x2BE78, symSize: 0x28 }
  - { offset: 0x9561B, size: 0x8, addend: 0x0, symName: '__ZN6anyhow5error70_$LT$impl$u20$core..ops..deref..DerefMut$u20$for$u20$anyhow..Error$GT$9deref_mut17h5315199ccdfa84a4E', symObjAddr: 0x3C44, symBinAddr: 0x2BEA0, symSize: 0x28 }
  - { offset: 0x95652, size: 0x8, addend: 0x0, symName: '__ZN6anyhow5error62_$LT$impl$u20$core..fmt..Display$u20$for$u20$anyhow..Error$GT$3fmt17hc449a2ee840c9e13E', symObjAddr: 0x3C6C, symBinAddr: 0x2BEC8, symSize: 0x34 }
  - { offset: 0x95699, size: 0x8, addend: 0x0, symName: '__ZN6anyhow5error60_$LT$impl$u20$core..fmt..Debug$u20$for$u20$anyhow..Error$GT$3fmt17h211fa4370503c3d2E', symObjAddr: 0x3CA0, symBinAddr: 0x2BEFC, symSize: 0x34 }
  - { offset: 0x956E0, size: 0x8, addend: 0x0, symName: '__ZN6anyhow5error65_$LT$impl$u20$core..ops..drop..Drop$u20$for$u20$anyhow..Error$GT$4drop17h84e01d4e7bbc29d3E', symObjAddr: 0x3CD4, symBinAddr: 0x2BF30, symSize: 0x40 }
  - { offset: 0x95713, size: 0x8, addend: 0x0, symName: '__ZN6anyhow5error144_$LT$impl$u20$core..convert..AsRef$LT$dyn$u20$core..error..Error$u2b$core..marker..Sync$u2b$core..marker..Send$GT$$u20$for$u20$anyhow..Error$GT$6as_ref17h7aeb82712537b9eaE', symObjAddr: 0x3D14, symBinAddr: 0x2BF70, symSize: 0x24 }
  - { offset: 0x9574A, size: 0x8, addend: 0x0, symName: '__ZN6anyhow5error98_$LT$impl$u20$core..convert..AsRef$LT$dyn$u20$core..error..Error$GT$$u20$for$u20$anyhow..Error$GT$6as_ref17h9d3b5452bf823727E', symObjAddr: 0x3D38, symBinAddr: 0x2BF94, symSize: 0x24 }
  - { offset: 0x95C8F, size: 0x8, addend: 0x0, symName: '__ZN85_$LT$std..sync..lazy_lock..LazyLock$LT$T$C$F$GT$$u20$as$u20$core..ops..drop..Drop$GT$4drop17h1bc90d752769090cE', symObjAddr: 0x2D84, symBinAddr: 0x2B59C, symSize: 0x114 }
  - { offset: 0x96310, size: 0x8, addend: 0x0, symName: __ZN3std9backtrace9Backtrace6status17h3dbf387e9ce3d620E, symObjAddr: 0x768, symBinAddr: 0x290F8, symSize: 0x5C }
  - { offset: 0x96AF3, size: 0x8, addend: 0x0, symName: '__ZN6anyhow5chain31_$LT$impl$u20$anyhow..Chain$GT$3new17hbc457af1614f6d7eE', symObjAddr: 0x30EC, symBinAddr: 0xEA388, symSize: 0x48 }
  - { offset: 0x96C69, size: 0x8, addend: 0x0, symName: '__ZN6anyhow5error31_$LT$impl$u20$anyhow..Error$GT$3msg17h85e76a09e2b1d87dE', symObjAddr: 0x361C, symBinAddr: 0xEA3D0, symSize: 0xA4 }
  - { offset: 0x96C97, size: 0x8, addend: 0x0, symName: '__ZN6anyhow5error31_$LT$impl$u20$anyhow..Error$GT$3msg17h91b6edb2726826d5E', symObjAddr: 0x36C0, symBinAddr: 0xEA474, symSize: 0xAC }
  - { offset: 0x96CC6, size: 0x8, addend: 0x0, symName: '__ZN6anyhow5error31_$LT$impl$u20$anyhow..Error$GT$10from_boxed17h8a8bc3abf42856d6E', symObjAddr: 0x376C, symBinAddr: 0xEA520, symSize: 0xA4 }
  - { offset: 0x96D09, size: 0x8, addend: 0x0, symName: '__ZN6anyhow5error31_$LT$impl$u20$anyhow..Error$GT$20construct_from_adhoc17h35538295d2f0341aE', symObjAddr: 0x3810, symBinAddr: 0xEA5C4, symSize: 0x48 }
  - { offset: 0x96D86, size: 0x8, addend: 0x0, symName: '__ZN6anyhow5error31_$LT$impl$u20$anyhow..Error$GT$20construct_from_adhoc17h988ba813e822c765E', symObjAddr: 0x3858, symBinAddr: 0xEA60C, symSize: 0x48 }
  - { offset: 0x96E02, size: 0x8, addend: 0x0, symName: '__ZN6anyhow5error31_$LT$impl$u20$anyhow..Error$GT$20construct_from_boxed17h6d32dbd1e46fd553E', symObjAddr: 0x38A0, symBinAddr: 0xEA654, symSize: 0x50 }
  - { offset: 0x96E86, size: 0x8, addend: 0x0, symName: '__ZN6anyhow5error31_$LT$impl$u20$anyhow..Error$GT$9construct17h2aa31165bf9a83d2E', symObjAddr: 0x38F0, symBinAddr: 0xEA6A4, symSize: 0xD0 }
  - { offset: 0x96F24, size: 0x8, addend: 0x0, symName: '__ZN6anyhow5error31_$LT$impl$u20$anyhow..Error$GT$9construct17h5a919cd0e51cb3e6E', symObjAddr: 0x39C0, symBinAddr: 0xEA774, symSize: 0xD0 }
  - { offset: 0x96FC3, size: 0x8, addend: 0x0, symName: '__ZN6anyhow5error31_$LT$impl$u20$anyhow..Error$GT$9construct17h86ba3a42658ca010E', symObjAddr: 0x3A90, symBinAddr: 0xEA844, symSize: 0xD0 }
  - { offset: 0x97061, size: 0x8, addend: 0x0, symName: '__ZN6anyhow5error31_$LT$impl$u20$anyhow..Error$GT$9backtrace17h13cf639bf7b20e88E', symObjAddr: 0x3B60, symBinAddr: 0x2BDEC, symSize: 0x28 }
  - { offset: 0x97086, size: 0x8, addend: 0x0, symName: '__ZN6anyhow5error31_$LT$impl$u20$anyhow..Error$GT$5chain17hd9da36c17ddd63b7E', symObjAddr: 0x3B88, symBinAddr: 0xEA914, symSize: 0x30 }
  - { offset: 0x970E9, size: 0x8, addend: 0x0, symName: '__ZN6anyhow5error31_$LT$impl$u20$anyhow..Error$GT$10root_cause17h91c71f25fea46498E', symObjAddr: 0x3BB8, symBinAddr: 0x2BE14, symSize: 0x64 }
  - { offset: 0x97203, size: 0x8, addend: 0x0, symName: '__ZN6anyhow3ptr12Own$LT$T$GT$3new17h683397d6ac37de3aE', symObjAddr: 0x411C, symBinAddr: 0x2C378, symSize: 0x28 }
  - { offset: 0x9723F, size: 0x8, addend: 0x0, symName: '__ZN6anyhow3ptr12Own$LT$T$GT$3new17h9e53cf18e6edbb74E', symObjAddr: 0x4144, symBinAddr: 0x2C3A0, symSize: 0x28 }
  - { offset: 0x9727B, size: 0x8, addend: 0x0, symName: '__ZN6anyhow3ptr12Own$LT$T$GT$3new17he7f9fde0ee937a47E', symObjAddr: 0x416C, symBinAddr: 0x2C3C8, symSize: 0x28 }
  - { offset: 0x972B7, size: 0x8, addend: 0x0, symName: '__ZN6anyhow3ptr12Own$LT$T$GT$4cast17h0db143a46858572fE', symObjAddr: 0x4194, symBinAddr: 0x2C3F0, symSize: 0x24 }
  - { offset: 0x972EF, size: 0x8, addend: 0x0, symName: '__ZN6anyhow3ptr12Own$LT$T$GT$4cast17h2d2d303846415777E', symObjAddr: 0x41B8, symBinAddr: 0x2C414, symSize: 0x24 }
  - { offset: 0x97327, size: 0x8, addend: 0x0, symName: '__ZN6anyhow3ptr12Own$LT$T$GT$4cast17h55683090fbe51e5dE', symObjAddr: 0x41DC, symBinAddr: 0x2C438, symSize: 0x24 }
  - { offset: 0x9735F, size: 0x8, addend: 0x0, symName: '__ZN6anyhow3ptr12Own$LT$T$GT$4cast17h5b3ed0b3ef335273E', symObjAddr: 0x4200, symBinAddr: 0x2C45C, symSize: 0x24 }
  - { offset: 0x97397, size: 0x8, addend: 0x0, symName: '__ZN6anyhow3ptr12Own$LT$T$GT$4cast17h8d7b790704fa3d01E', symObjAddr: 0x4224, symBinAddr: 0x2C480, symSize: 0x24 }
  - { offset: 0x973CF, size: 0x8, addend: 0x0, symName: '__ZN6anyhow3ptr12Own$LT$T$GT$4cast17h915b7ca79a33b83cE', symObjAddr: 0x4248, symBinAddr: 0x2C4A4, symSize: 0x24 }
  - { offset: 0x97415, size: 0x8, addend: 0x0, symName: '__ZN6anyhow3ptr12Own$LT$T$GT$4cast17haad3e7421f2ef924E', symObjAddr: 0x426C, symBinAddr: 0x2C4C8, symSize: 0x24 }
  - { offset: 0x9744D, size: 0x8, addend: 0x0, symName: '__ZN6anyhow3ptr12Own$LT$T$GT$4cast17hb49497c0d2f5373dE', symObjAddr: 0x4290, symBinAddr: 0x2C4EC, symSize: 0x24 }
  - { offset: 0x97493, size: 0x8, addend: 0x0, symName: '__ZN6anyhow3ptr12Own$LT$T$GT$4cast17hd42408674bcd6a60E', symObjAddr: 0x42B4, symBinAddr: 0x2C510, symSize: 0x24 }
  - { offset: 0x974CB, size: 0x8, addend: 0x0, symName: '__ZN6anyhow3ptr12Own$LT$T$GT$5boxed17h35668b7525116401E', symObjAddr: 0x42D8, symBinAddr: 0x2C534, symSize: 0x2C }
  - { offset: 0x974F9, size: 0x8, addend: 0x0, symName: '__ZN6anyhow3ptr12Own$LT$T$GT$5boxed17h43b05958c956205bE', symObjAddr: 0x4304, symBinAddr: 0x2C560, symSize: 0x2C }
  - { offset: 0x97535, size: 0x8, addend: 0x0, symName: '__ZN6anyhow3ptr12Own$LT$T$GT$5boxed17h80855679e68b433cE', symObjAddr: 0x4330, symBinAddr: 0x2C58C, symSize: 0x2C }
  - { offset: 0x97563, size: 0x8, addend: 0x0, symName: '__ZN6anyhow3ptr12Own$LT$T$GT$5boxed17ha3c4c23fce30de4cE', symObjAddr: 0x435C, symBinAddr: 0x2C5B8, symSize: 0x2C }
  - { offset: 0x9759F, size: 0x8, addend: 0x0, symName: '__ZN6anyhow3ptr12Own$LT$T$GT$5boxed17ha61e437ce0e7eddbE', symObjAddr: 0x4388, symBinAddr: 0x2C5E4, symSize: 0x2C }
  - { offset: 0x975DB, size: 0x8, addend: 0x0, symName: '__ZN6anyhow3ptr12Own$LT$T$GT$5boxed17heb26530335dd6a7cE', symObjAddr: 0x43B4, symBinAddr: 0x2C610, symSize: 0x2C }
  - { offset: 0x97617, size: 0x8, addend: 0x0, symName: '__ZN6anyhow3ptr12Own$LT$T$GT$6by_ref17h3ff381c75adff0aeE', symObjAddr: 0x43E0, symBinAddr: 0x2C63C, symSize: 0x18 }
  - { offset: 0x97661, size: 0x8, addend: 0x0, symName: '__ZN6anyhow3ptr12Own$LT$T$GT$6by_mut17h7756fd3263a0d112E', symObjAddr: 0x43F8, symBinAddr: 0x2C654, symSize: 0x18 }
  - { offset: 0x9769D, size: 0x8, addend: 0x0, symName: '__ZN6anyhow3ptr12Ref$LT$T$GT$3new17h08d078fc0053cae7E', symObjAddr: 0x4410, symBinAddr: 0x2C66C, symSize: 0x24 }
  - { offset: 0x976D9, size: 0x8, addend: 0x0, symName: '__ZN6anyhow3ptr12Ref$LT$T$GT$3new17h34fe239259a5875cE', symObjAddr: 0x4434, symBinAddr: 0x2C690, symSize: 0x24 }
  - { offset: 0x97715, size: 0x8, addend: 0x0, symName: '__ZN6anyhow3ptr12Ref$LT$T$GT$3new17hb221acae89145630E', symObjAddr: 0x4458, symBinAddr: 0x2C6B4, symSize: 0x24 }
  - { offset: 0x9775F, size: 0x8, addend: 0x0, symName: '__ZN6anyhow3ptr12Ref$LT$T$GT$8from_raw17h1e8a3381bd0b364cE', symObjAddr: 0x447C, symBinAddr: 0x2C6D8, symSize: 0x14 }
  - { offset: 0x9779B, size: 0x8, addend: 0x0, symName: '__ZN6anyhow3ptr12Ref$LT$T$GT$8from_raw17h668642a11202fe0dE', symObjAddr: 0x4490, symBinAddr: 0x2C6EC, symSize: 0x14 }
  - { offset: 0x977C9, size: 0x8, addend: 0x0, symName: '__ZN6anyhow3ptr12Ref$LT$T$GT$8from_raw17hbb007a4ddc337c04E', symObjAddr: 0x44A4, symBinAddr: 0x2C700, symSize: 0x1C }
  - { offset: 0x97813, size: 0x8, addend: 0x0, symName: '__ZN6anyhow3ptr12Ref$LT$T$GT$8from_raw17hbc5ad2aeec82f836E', symObjAddr: 0x44C0, symBinAddr: 0x2C71C, symSize: 0x14 }
  - { offset: 0x97841, size: 0x8, addend: 0x0, symName: '__ZN6anyhow3ptr12Ref$LT$T$GT$4cast17h13f502c600f4bf5eE', symObjAddr: 0x44D4, symBinAddr: 0x2C730, symSize: 0x24 }
  - { offset: 0x97879, size: 0x8, addend: 0x0, symName: '__ZN6anyhow3ptr12Ref$LT$T$GT$4cast17h53c0528ff779be5bE', symObjAddr: 0x44F8, symBinAddr: 0x2C754, symSize: 0x24 }
  - { offset: 0x978B1, size: 0x8, addend: 0x0, symName: '__ZN6anyhow3ptr12Ref$LT$T$GT$4cast17h54716c3dafac6755E', symObjAddr: 0x451C, symBinAddr: 0x2C778, symSize: 0x24 }
  - { offset: 0x97905, size: 0x8, addend: 0x0, symName: '__ZN6anyhow3ptr12Ref$LT$T$GT$4cast17h600192394ce5bae1E', symObjAddr: 0x4540, symBinAddr: 0x2C79C, symSize: 0x24 }
  - { offset: 0x97959, size: 0x8, addend: 0x0, symName: '__ZN6anyhow3ptr12Ref$LT$T$GT$4cast17h63f32876b869bbe6E', symObjAddr: 0x4564, symBinAddr: 0x2C7C0, symSize: 0x24 }
  - { offset: 0x97991, size: 0x8, addend: 0x0, symName: '__ZN6anyhow3ptr12Ref$LT$T$GT$4cast17h795660fa65c9cf33E', symObjAddr: 0x4588, symBinAddr: 0x2C7E4, symSize: 0x24 }
  - { offset: 0x979E5, size: 0x8, addend: 0x0, symName: '__ZN6anyhow3ptr12Ref$LT$T$GT$4cast17h83dc9cae69a6f6e8E', symObjAddr: 0x45AC, symBinAddr: 0x2C808, symSize: 0x24 }
  - { offset: 0x97A1D, size: 0x8, addend: 0x0, symName: '__ZN6anyhow3ptr12Ref$LT$T$GT$4cast17h89c31e06f9fd23f8E', symObjAddr: 0x45D0, symBinAddr: 0x2C82C, symSize: 0x24 }
  - { offset: 0x97A55, size: 0x8, addend: 0x0, symName: '__ZN6anyhow3ptr12Ref$LT$T$GT$4cast17ha6aec18bb6c18971E', symObjAddr: 0x45F4, symBinAddr: 0x2C850, symSize: 0x24 }
  - { offset: 0x97A8D, size: 0x8, addend: 0x0, symName: '__ZN6anyhow3ptr12Ref$LT$T$GT$4cast17hb986b555bcc135edE', symObjAddr: 0x4618, symBinAddr: 0x2C874, symSize: 0x24 }
  - { offset: 0x97AC5, size: 0x8, addend: 0x0, symName: '__ZN6anyhow3ptr12Ref$LT$T$GT$4cast17hd11ae9ddead179acE', symObjAddr: 0x463C, symBinAddr: 0x2C898, symSize: 0x24 }
  - { offset: 0x97AFD, size: 0x8, addend: 0x0, symName: '__ZN6anyhow3ptr12Ref$LT$T$GT$4cast17he148f7cfb1ab771dE', symObjAddr: 0x4660, symBinAddr: 0x2C8BC, symSize: 0x24 }
  - { offset: 0x97B54, size: 0x8, addend: 0x0, symName: '__ZN6anyhow3ptr12Ref$LT$T$GT$6by_mut17h43a33f3afe90aa92E', symObjAddr: 0x4684, symBinAddr: 0x2C8E0, symSize: 0x1C }
  - { offset: 0x97B82, size: 0x8, addend: 0x0, symName: '__ZN6anyhow3ptr12Ref$LT$T$GT$6as_ptr17h3444dc53702f532aE', symObjAddr: 0x46A0, symBinAddr: 0x2C8FC, symSize: 0x1C }
  - { offset: 0x97BB0, size: 0x8, addend: 0x0, symName: '__ZN6anyhow3ptr12Ref$LT$T$GT$6as_ptr17h3663281808c9b0a2E', symObjAddr: 0x46BC, symBinAddr: 0x2C918, symSize: 0x1C }
  - { offset: 0x97BDE, size: 0x8, addend: 0x0, symName: '__ZN6anyhow3ptr12Ref$LT$T$GT$6as_ptr17h4d3faf3bf8254d06E', symObjAddr: 0x46D8, symBinAddr: 0x2C934, symSize: 0x1C }
  - { offset: 0x97C0C, size: 0x8, addend: 0x0, symName: '__ZN6anyhow3ptr12Ref$LT$T$GT$6as_ptr17ha80e1b654345c1d7E', symObjAddr: 0x46F4, symBinAddr: 0x2C950, symSize: 0x1C }
  - { offset: 0x97C3A, size: 0x8, addend: 0x0, symName: '__ZN6anyhow3ptr12Ref$LT$T$GT$6as_ptr17hbe07129f558d22aaE', symObjAddr: 0x4710, symBinAddr: 0x2C96C, symSize: 0x1C }
  - { offset: 0x97C68, size: 0x8, addend: 0x0, symName: '__ZN6anyhow3ptr12Ref$LT$T$GT$6as_ptr17hd62969494eb2a6d8E', symObjAddr: 0x472C, symBinAddr: 0x2C988, symSize: 0x1C }
  - { offset: 0x97C96, size: 0x8, addend: 0x0, symName: '__ZN6anyhow3ptr12Ref$LT$T$GT$5deref17hb7f37e3464c99615E', symObjAddr: 0x4748, symBinAddr: 0x2C9A4, symSize: 0x2C }
  - { offset: 0x97CC4, size: 0x8, addend: 0x0, symName: '__ZN6anyhow3ptr12Ref$LT$T$GT$5deref17hbc1cd1887ba2c6d6E', symObjAddr: 0x4774, symBinAddr: 0x2C9D0, symSize: 0x1C }
  - { offset: 0x97CF2, size: 0x8, addend: 0x0, symName: '__ZN6anyhow3ptr12Mut$LT$T$GT$6by_ref17h7f67354f2d9ae77eE', symObjAddr: 0x4790, symBinAddr: 0x2C9EC, symSize: 0x14 }
  - { offset: 0x97D20, size: 0x8, addend: 0x0, symName: '__ZN6anyhow3ptr12Mut$LT$T$GT$9deref_mut17hb483251b32438f48E', symObjAddr: 0x47A4, symBinAddr: 0x2CA00, symSize: 0x2C }
  - { offset: 0x98228, size: 0x8, addend: 0x0, symName: '__ZN104_$LT$core..iter..adapters..copied..Copied$LT$I$GT$$u20$as$u20$core..iter..traits..iterator..Iterator$GT$8try_fold17h1324d74a27920c0eE', symObjAddr: 0x0, symBinAddr: 0x2CA2C, symSize: 0x24 }
  - { offset: 0x98281, size: 0x8, addend: 0x0, symName: '__ZN70_$LT$core..num..error..TryFromIntError$u20$as$u20$core..fmt..Debug$GT$3fmt17haf714cc10dcecf00E', symObjAddr: 0x2108, symBinAddr: 0x2E6C4, symSize: 0x54 }
  - { offset: 0x98313, size: 0x8, addend: 0x0, symName: '__ZN4core3num23_$LT$impl$u20$isize$GT$13unchecked_neg18precondition_check17hed149234cf8abb3dE', symObjAddr: 0x730, symBinAddr: 0x2CF58, symSize: 0x4C }
  - { offset: 0x983C8, size: 0x8, addend: 0x0, symName: '__ZN4core3num23_$LT$impl$u20$usize$GT$13unchecked_add18precondition_check17h36aa37b039b51d10E', symObjAddr: 0x77C, symBinAddr: 0x2CFA4, symSize: 0x4C }
  - { offset: 0x9848E, size: 0x8, addend: 0x0, symName: '__ZN4core3num23_$LT$impl$u20$usize$GT$13unchecked_mul18precondition_check17hf197d9ea0084afb2E', symObjAddr: 0x7C8, symBinAddr: 0x2CFF0, symSize: 0x54 }
  - { offset: 0x988E8, size: 0x8, addend: 0x0, symName: '__ZN42_$LT$$RF$T$u20$as$u20$core..fmt..Debug$GT$3fmt17ha81e9c3064df396eE', symObjAddr: 0x154, symBinAddr: 0x2CB80, symSize: 0x30 }
  - { offset: 0x98932, size: 0x8, addend: 0x0, symName: '__ZN42_$LT$$RF$T$u20$as$u20$core..fmt..Debug$GT$3fmt17hb3a42fafada154caE', symObjAddr: 0x184, symBinAddr: 0x2CBB0, symSize: 0x3C }
  - { offset: 0x9897C, size: 0x8, addend: 0x0, symName: '__ZN42_$LT$$RF$T$u20$as$u20$core..fmt..Debug$GT$3fmt17hc8893eccb34bbd08E', symObjAddr: 0x1C0, symBinAddr: 0x2CBEC, symSize: 0x30 }
  - { offset: 0x989C6, size: 0x8, addend: 0x0, symName: '__ZN42_$LT$$RF$T$u20$as$u20$core..fmt..Debug$GT$3fmt17hd5a93715323864a1E', symObjAddr: 0x1F0, symBinAddr: 0x2CC1C, symSize: 0x3C }
  - { offset: 0x98A10, size: 0x8, addend: 0x0, symName: '__ZN42_$LT$$RF$T$u20$as$u20$core..fmt..Debug$GT$3fmt17he2195e9eef8f80bdE', symObjAddr: 0x22C, symBinAddr: 0x2CC58, symSize: 0x30 }
  - { offset: 0x98A61, size: 0x8, addend: 0x0, symName: '__ZN44_$LT$$RF$T$u20$as$u20$core..fmt..Display$GT$3fmt17h2cef24f8de9a76e8E', symObjAddr: 0x25C, symBinAddr: 0x2CC88, symSize: 0x3C }
  - { offset: 0x98AB2, size: 0x8, addend: 0x0, symName: '__ZN45_$LT$$LP$$RP$$u20$as$u20$core..fmt..Debug$GT$3fmt17h1dc3824f930cd7f1E', symObjAddr: 0x298, symBinAddr: 0x2CCC4, symSize: 0x40 }
  - { offset: 0x98AF9, size: 0x8, addend: 0x0, symName: __ZN4core3fmt5Write10write_char17h3f1607dca28b0732E, symObjAddr: 0x3E0, symBinAddr: 0x2CE0C, symSize: 0x70 }
  - { offset: 0x98B77, size: 0x8, addend: 0x0, symName: __ZN4core3fmt5Write9write_fmt17hba8e6d2cf5fda5baE, symObjAddr: 0x450, symBinAddr: 0x2CE7C, symSize: 0x24 }
  - { offset: 0x98BCB, size: 0x8, addend: 0x0, symName: '__ZN75_$LT$$RF$mut$u20$W$u20$as$u20$core..fmt..Write..write_fmt..SpecWriteFmt$GT$14spec_write_fmt17h134912d6aef99b67E', symObjAddr: 0x215C, symBinAddr: 0x2E718, symSize: 0x190 }
  - { offset: 0x98E00, size: 0x8, addend: 0x0, symName: '__ZN53_$LT$core..fmt..Error$u20$as$u20$core..fmt..Debug$GT$3fmt17hc3fbfdd5e7f8000dE', symObjAddr: 0x1528, symBinAddr: 0x2DD1C, symSize: 0x40 }
  - { offset: 0x99D93, size: 0x8, addend: 0x0, symName: __ZN4core3ptr13read_volatile18precondition_check17h0a1a7819b7901eb2E, symObjAddr: 0x81C, symBinAddr: 0x2D044, symSize: 0xEC }
  - { offset: 0x9A7A9, size: 0x8, addend: 0x0, symName: '__ZN66_$LT$core..option..Option$LT$T$GT$$u20$as$u20$core..fmt..Debug$GT$3fmt17h379ee35f0f7f4ef4E', symObjAddr: 0x2070, symBinAddr: 0x2E62C, symSize: 0x98 }
  - { offset: 0x9A81A, size: 0x8, addend: 0x0, symName: '__ZN75_$LT$core..option..Option$LT$T$GT$$u20$as$u20$core..ops..try_trait..Try$GT$6branch17h1501d1327eb5bc2dE', symObjAddr: 0x22EC, symBinAddr: 0x2E8A8, symSize: 0x54 }
  - { offset: 0x9A87B, size: 0x8, addend: 0x0, symName: '__ZN84_$LT$core..option..Option$LT$T$GT$$u20$as$u20$core..ops..try_trait..FromResidual$GT$13from_residual17hf935d75532e6bd9cE', symObjAddr: 0x2378, symBinAddr: 0x2E934, symSize: 0x18 }
  - { offset: 0x9AB26, size: 0x8, addend: 0x0, symName: __ZN4core3cmp6max_by17h6588d19364839d70E, symObjAddr: 0x320, symBinAddr: 0x2CD4C, symSize: 0xC0 }
  - { offset: 0x9ABA3, size: 0x8, addend: 0x0, symName: '__ZN104_$LT$core..iter..adapters..copied..Copied$LT$I$GT$$u20$as$u20$core..iter..traits..iterator..Iterator$GT$8try_fold17h1324d74a27920c0eE', symObjAddr: 0x0, symBinAddr: 0x2CA2C, symSize: 0x24 }
  - { offset: 0x9AC28, size: 0x8, addend: 0x0, symName: '__ZN4core4iter8adapters6copied13copy_try_fold28_$u7b$$u7b$closure$u7d$$u7d$17h74f83709389b178eE', symObjAddr: 0xEBC, symBinAddr: 0x2D6B0, symSize: 0x34 }
  - { offset: 0x9AD6B, size: 0x8, addend: 0x0, symName: __ZN4core4iter6traits8iterator8Iterator3any17hee572701986e2acfE, symObjAddr: 0xC7C, symBinAddr: 0x2D470, symSize: 0x3C }
  - { offset: 0x9ADCB, size: 0x8, addend: 0x0, symName: '__ZN4core4iter6traits8iterator8Iterator3any5check28_$u7b$$u7b$closure$u7d$$u7d$17h11a2005245eee6a7E', symObjAddr: 0xCB8, symBinAddr: 0x2D4AC, symSize: 0x4C }
  - { offset: 0x9AE48, size: 0x8, addend: 0x0, symName: __ZN4core4iter6traits8iterator8Iterator4last4some17hfbaca3dbcb8855b2E, symObjAddr: 0xD04, symBinAddr: 0x2D4F8, symSize: 0x34 }
  - { offset: 0x9AE9B, size: 0x8, addend: 0x0, symName: '__ZN4core4iter6traits8iterator8Iterator8for_each4call28_$u7b$$u7b$closure$u7d$$u7d$17h889b6de6ff61750bE', symObjAddr: 0xD38, symBinAddr: 0x2D52C, symSize: 0x28 }
  - { offset: 0x9AEF9, size: 0x8, addend: 0x0, symName: '__ZN4core4iter6traits8iterator8Iterator8for_each4call28_$u7b$$u7b$closure$u7d$$u7d$17hdd11dfd5ef3be756E', symObjAddr: 0xD60, symBinAddr: 0x2D554, symSize: 0x28 }
  - { offset: 0x9AF58, size: 0x8, addend: 0x0, symName: __ZN4core4iter6traits8iterator8Iterator8try_fold17hb7baf3f0ee2a4371E, symObjAddr: 0xD88, symBinAddr: 0x2D57C, symSize: 0x134 }
  - { offset: 0x9B0F9, size: 0x8, addend: 0x0, symName: '__ZN106_$LT$core..slice..iter..Iter$LT$T$GT$$u20$as$u20$core..iter..traits..double_ended..DoubleEndedIterator$GT$9next_back17h8f96909e3bdf8bf6E', symObjAddr: 0x24, symBinAddr: 0x2CA50, symSize: 0x114 }
  - { offset: 0x9B348, size: 0x8, addend: 0x0, symName: '__ZN91_$LT$core..slice..iter..Iter$LT$T$GT$$u20$as$u20$core..iter..traits..iterator..Iterator$GT$4next17hf855145e4a65eb72E', symObjAddr: 0x2390, symBinAddr: 0x2E94C, symSize: 0xCC }
  - { offset: 0x9B527, size: 0x8, addend: 0x0, symName: '__ZN91_$LT$core..slice..iter..Iter$LT$T$GT$$u20$as$u20$core..iter..traits..iterator..Iterator$GT$9size_hint17h31dd4290b655c384E', symObjAddr: 0x245C, symBinAddr: 0x2EA18, symSize: 0xC0 }
  - { offset: 0x9B6D5, size: 0x8, addend: 0x0, symName: '__ZN94_$LT$core..slice..iter..IterMut$LT$T$GT$$u20$as$u20$core..iter..traits..iterator..Iterator$GT$4next17h2829252bc46a7864E', symObjAddr: 0x251C, symBinAddr: 0x2EAD8, symSize: 0xCC }
  - { offset: 0x9B8F5, size: 0x8, addend: 0x0, symName: '__ZN153_$LT$core..result..Result$LT$T$C$F$GT$$u20$as$u20$core..ops..try_trait..FromResidual$LT$core..result..Result$LT$core..convert..Infallible$C$E$GT$$GT$$GT$13from_residual17h68f1ec29a9cbc683E', symObjAddr: 0x138, symBinAddr: 0x2CB64, symSize: 0x1C }
  - { offset: 0x9BE75, size: 0x8, addend: 0x0, symName: '__ZN79_$LT$core..result..Result$LT$T$C$E$GT$$u20$as$u20$core..ops..try_trait..Try$GT$6branch17h0b8588578db01c1aE', symObjAddr: 0x2340, symBinAddr: 0x2E8FC, symSize: 0x38 }
  - { offset: 0x9BF8A, size: 0x8, addend: 0x0, symName: '__ZN49_$LT$F$u20$as$u20$core..str..pattern..Pattern$GT$13into_searcher17h09aa1b366b52e8b8E', symObjAddr: 0x2D8, symBinAddr: 0x2CD04, symSize: 0x48 }
  - { offset: 0x9BFDB, size: 0x8, addend: 0x0, symName: '__ZN53_$LT$F$u20$as$u20$core..str..pattern..MultiCharEq$GT$7matches17hf8ccc78dc4fb1d19E', symObjAddr: 0x1500, symBinAddr: 0x2DCF4, symSize: 0x28 }
  - { offset: 0x9C0E1, size: 0x8, addend: 0x0, symName: '__ZN4core3str21_$LT$impl$u20$str$GT$11starts_with17hed020a132dfc83fcE', symObjAddr: 0x908, symBinAddr: 0x2D130, symSize: 0x4C }
  - { offset: 0x9C166, size: 0x8, addend: 0x0, symName: '__ZN4core3str21_$LT$impl$u20$str$GT$16trim_end_matches17haa4d60d9560f1d42E', symObjAddr: 0x954, symBinAddr: 0x2D17C, symSize: 0xD4 }
  - { offset: 0x9C300, size: 0x8, addend: 0x0, symName: '__ZN4core3str21_$LT$impl$u20$str$GT$5bytes17h275947a13660c618E', symObjAddr: 0xA44, symBinAddr: 0x2D250, symSize: 0x40 }
  - { offset: 0x9C4EB, size: 0x8, addend: 0x0, symName: '__ZN4core3str21_$LT$impl$u20$str$GT$5chars17h56efeee3daa06b53E', symObjAddr: 0xA84, symBinAddr: 0x2D290, symSize: 0x38 }
  - { offset: 0x9C69A, size: 0x8, addend: 0x0, symName: '__ZN4core3str21_$LT$impl$u20$str$GT$5split17he8830046686886e3E', symObjAddr: 0xABC, symBinAddr: 0x2D2C8, symSize: 0x98 }
  - { offset: 0x9C6E4, size: 0x8, addend: 0x0, symName: '__ZN4core3str21_$LT$impl$u20$str$GT$8trim_end17h98167dc0ab94b8c8E', symObjAddr: 0xB54, symBinAddr: 0x2D360, symSize: 0x28 }
  - { offset: 0x9C71A, size: 0x8, addend: 0x0, symName: '__ZN4core3str21_$LT$impl$u20$str$GT$8trim_end28_$u7b$$u7b$closure$u7d$$u7d$17h915e1a2a2cc14cc6E', symObjAddr: 0xB7C, symBinAddr: 0x2D388, symSize: 0x94 }
  - { offset: 0x9C97C, size: 0x8, addend: 0x0, symName: __ZN4core9ub_checks17is_nonoverlapping7runtime17h59885ad34b825bc3E, symObjAddr: 0x141C, symBinAddr: 0x2DC10, symSize: 0xE4 }
  - { offset: 0x9CF12, size: 0x8, addend: 0x0, symName: __ZN4core4hint16assert_unchecked18precondition_check17h55f51d2a5a777a9fE, symObjAddr: 0xC28, symBinAddr: 0x2D41C, symSize: 0x38 }
  - { offset: 0x9CF43, size: 0x8, addend: 0x0, symName: __ZN4core4hint21unreachable_unchecked18precondition_check17h5336a2235ee47f29E, symObjAddr: 0xC60, symBinAddr: 0x2D454, symSize: 0x1C }
  - { offset: 0x9CF88, size: 0x8, addend: 0x0, symName: __ZN4core5error5Error11description17h6dd2357d533a3dcfE, symObjAddr: 0xEF0, symBinAddr: 0x2D6E4, symSize: 0x20 }
  - { offset: 0x9CFC0, size: 0x8, addend: 0x0, symName: __ZN4core5error5Error11description17hb6d70b28cc7c923eE, symObjAddr: 0xF10, symBinAddr: 0x2D704, symSize: 0x20 }
  - { offset: 0x9CFF8, size: 0x8, addend: 0x0, symName: __ZN4core5error5Error11description17hc06ca6dba116a0bcE, symObjAddr: 0xF30, symBinAddr: 0x2D724, symSize: 0x20 }
  - { offset: 0x9D030, size: 0x8, addend: 0x0, symName: __ZN4core5error5Error5cause17he02d8933114c03e7E, symObjAddr: 0xF50, symBinAddr: 0x2D744, symSize: 0x24 }
  - { offset: 0x9D068, size: 0x8, addend: 0x0, symName: __ZN4core5error5Error5cause17he85e8af5893c51e3E, symObjAddr: 0xF74, symBinAddr: 0x2D768, symSize: 0x24 }
  - { offset: 0x9D0A0, size: 0x8, addend: 0x0, symName: __ZN4core5error5Error5cause17hff8df51bfc128962E, symObjAddr: 0xF98, symBinAddr: 0x2D78C, symSize: 0x24 }
  - { offset: 0x9D0D8, size: 0x8, addend: 0x0, symName: __ZN4core5error5Error7provide17h01be239a56069cf3E, symObjAddr: 0xFBC, symBinAddr: 0x2D7B0, symSize: 0x18 }
  - { offset: 0x9D11B, size: 0x8, addend: 0x0, symName: __ZN4core5error5Error7provide17h124c325ebcf80003E, symObjAddr: 0xFD4, symBinAddr: 0x2D7C8, symSize: 0x18 }
  - { offset: 0x9D15E, size: 0x8, addend: 0x0, symName: __ZN4core5error5Error7provide17h7accd96f83b33d86E, symObjAddr: 0xFEC, symBinAddr: 0x2D7E0, symSize: 0x18 }
  - { offset: 0x9D1A1, size: 0x8, addend: 0x0, symName: __ZN4core5error5Error7type_id17h39d0924c25283b80E, symObjAddr: 0x1004, symBinAddr: 0x2D7F8, symSize: 0x58 }
  - { offset: 0x9D22A, size: 0x8, addend: 0x0, symName: __ZN4core5error5Error7type_id17h4c57ba39ae2674b3E, symObjAddr: 0x105C, symBinAddr: 0x2D850, symSize: 0x58 }
  - { offset: 0x9D2B3, size: 0x8, addend: 0x0, symName: __ZN4core5error5Error7type_id17hb67f57498834d49dE, symObjAddr: 0x10B4, symBinAddr: 0x2D8A8, symSize: 0x58 }
  - { offset: 0x9D62C, size: 0x8, addend: 0x0, symName: '__ZN56_$LT$anyhow..ensure..Buf$u20$as$u20$core..fmt..Write$GT$9write_str17h14b346a6b120877fE', symObjAddr: 0x26D0, symBinAddr: 0x2EC8C, symSize: 0x1A0 }
  - { offset: 0x9D6E4, size: 0x8, addend: 0x0, symName: '__ZN56_$LT$anyhow..ensure..Buf$u20$as$u20$core..fmt..Write$GT$9write_str28_$u7b$$u7b$closure$u7d$$u7d$17h619615c5ea9061abE', symObjAddr: 0x2870, symBinAddr: 0x2EE2C, symSize: 0x54 }
  - { offset: 0x9D727, size: 0x8, addend: 0x0, symName: __ZN6anyhow6ensure6render17hd395b8fff1a63fd1E, symObjAddr: 0x28C4, symBinAddr: 0x2EE80, symSize: 0x3A0 }
  - { offset: 0x9DBD2, size: 0x8, addend: 0x0, symName: '__ZN6anyhow5error9ErrorImpl9backtrace28_$u7b$$u7b$closure$u7d$$u7d$17h696dee69959744ceE', symObjAddr: 0x32A4, symBinAddr: 0x2F860, symSize: 0x38 }
  - { offset: 0x9DC06, size: 0x8, addend: 0x0, symName: __ZN6anyhow5error11object_drop17h94c20a39282d2fc5E, symObjAddr: 0x2C64, symBinAddr: 0x2F220, symSize: 0x34 }
  - { offset: 0x9DC5C, size: 0x8, addend: 0x0, symName: __ZN6anyhow5error11object_drop17hd642301490cd90c2E, symObjAddr: 0x2C98, symBinAddr: 0x2F254, symSize: 0x34 }
  - { offset: 0x9DCB2, size: 0x8, addend: 0x0, symName: __ZN6anyhow5error11object_drop17hf1488e4e91b56224E, symObjAddr: 0x2CCC, symBinAddr: 0x2F288, symSize: 0x34 }
  - { offset: 0x9DD08, size: 0x8, addend: 0x0, symName: __ZN6anyhow5error17object_drop_front17h0b7261e9ba07c88aE, symObjAddr: 0x2D00, symBinAddr: 0x2F2BC, symSize: 0x3C }
  - { offset: 0x9DD6E, size: 0x8, addend: 0x0, symName: __ZN6anyhow5error17object_drop_front17h50b1a3c4bc419ef7E, symObjAddr: 0x2D3C, symBinAddr: 0x2F2F8, symSize: 0x3C }
  - { offset: 0x9DDD4, size: 0x8, addend: 0x0, symName: __ZN6anyhow5error17object_drop_front17h510c947095aecb0cE, symObjAddr: 0x2D78, symBinAddr: 0x2F334, symSize: 0x3C }
  - { offset: 0x9DE3A, size: 0x8, addend: 0x0, symName: __ZN6anyhow5error10object_ref17h8467a282f446245aE, symObjAddr: 0x2DB4, symBinAddr: 0x2F370, symSize: 0x44 }
  - { offset: 0x9DE94, size: 0x8, addend: 0x0, symName: __ZN6anyhow5error10object_ref17hd95f50b039b4269eE, symObjAddr: 0x2DF8, symBinAddr: 0x2F3B4, symSize: 0x44 }
  - { offset: 0x9DEEE, size: 0x8, addend: 0x0, symName: __ZN6anyhow5error10object_ref17hedef35aab7a588a6E, symObjAddr: 0x2E3C, symBinAddr: 0x2F3F8, symSize: 0x44 }
  - { offset: 0x9DF48, size: 0x8, addend: 0x0, symName: __ZN6anyhow5error12object_boxed17h19c100dd7459f938E, symObjAddr: 0x2E80, symBinAddr: 0x2F43C, symSize: 0x38 }
  - { offset: 0x9DFA2, size: 0x8, addend: 0x0, symName: __ZN6anyhow5error12object_boxed17hb11842d676c00eeaE, symObjAddr: 0x2EB8, symBinAddr: 0x2F474, symSize: 0x38 }
  - { offset: 0x9DFFC, size: 0x8, addend: 0x0, symName: __ZN6anyhow5error12object_boxed17hd5e30bf2240b3953E, symObjAddr: 0x2EF0, symBinAddr: 0x2F4AC, symSize: 0x38 }
  - { offset: 0x9E056, size: 0x8, addend: 0x0, symName: __ZN6anyhow5error15object_downcast17h243029cff5716aafE, symObjAddr: 0x2F28, symBinAddr: 0x2F4E4, symSize: 0x90 }
  - { offset: 0x9E0C0, size: 0x8, addend: 0x0, symName: __ZN6anyhow5error15object_downcast17h6bc7af7f1ba87daeE, symObjAddr: 0x2FB8, symBinAddr: 0x2F574, symSize: 0x90 }
  - { offset: 0x9E12A, size: 0x8, addend: 0x0, symName: __ZN6anyhow5error15object_downcast17hbe4811f71e2f3baaE, symObjAddr: 0x3048, symBinAddr: 0x2F604, symSize: 0x90 }
  - { offset: 0x9E194, size: 0x8, addend: 0x0, symName: __ZN6anyhow5error12no_backtrace17h8096d63c63ab600fE, symObjAddr: 0x30D8, symBinAddr: 0x2F694, symSize: 0x18 }
  - { offset: 0x9E1C4, size: 0x8, addend: 0x0, symName: __ZN6anyhow5error6vtable17h929c27ce07b885deE, symObjAddr: 0x30F0, symBinAddr: 0x2F6AC, symSize: 0x5C }
  - { offset: 0x9E1FA, size: 0x8, addend: 0x0, symName: '__ZN72_$LT$anyhow..error..ErrorImpl$LT$E$GT$$u20$as$u20$core..error..Error$GT$6source17h064192bbf24af60dE', symObjAddr: 0x330C, symBinAddr: 0x2F898, symSize: 0x30 }
  - { offset: 0x9E234, size: 0x8, addend: 0x0, symName: '__ZN72_$LT$anyhow..error..ErrorImpl$LT$E$GT$$u20$as$u20$core..error..Error$GT$6source17h3fd47df74abddce7E', symObjAddr: 0x333C, symBinAddr: 0x2F8C8, symSize: 0x30 }
  - { offset: 0x9E26E, size: 0x8, addend: 0x0, symName: '__ZN72_$LT$anyhow..error..ErrorImpl$LT$E$GT$$u20$as$u20$core..error..Error$GT$6source17hbc7ae1ebd31f22e5E', symObjAddr: 0x336C, symBinAddr: 0x2F8F8, symSize: 0x30 }
  - { offset: 0x9E2AF, size: 0x8, addend: 0x0, symName: '__ZN70_$LT$anyhow..error..ErrorImpl$LT$E$GT$$u20$as$u20$core..fmt..Debug$GT$3fmt17h69c52cce2f2f3c48E', symObjAddr: 0x339C, symBinAddr: 0x2F928, symSize: 0x34 }
  - { offset: 0x9E2F9, size: 0x8, addend: 0x0, symName: '__ZN70_$LT$anyhow..error..ErrorImpl$LT$E$GT$$u20$as$u20$core..fmt..Debug$GT$3fmt17ha13f278f3ad195d2E', symObjAddr: 0x33D0, symBinAddr: 0x2F95C, symSize: 0x34 }
  - { offset: 0x9E343, size: 0x8, addend: 0x0, symName: '__ZN70_$LT$anyhow..error..ErrorImpl$LT$E$GT$$u20$as$u20$core..fmt..Debug$GT$3fmt17hcf20921c7059981cE', symObjAddr: 0x3404, symBinAddr: 0x2F990, symSize: 0x34 }
  - { offset: 0x9E394, size: 0x8, addend: 0x0, symName: '__ZN72_$LT$anyhow..error..ErrorImpl$LT$E$GT$$u20$as$u20$core..fmt..Display$GT$3fmt17h7eb546a9d84930dcE', symObjAddr: 0x3438, symBinAddr: 0x2F9C4, symSize: 0x40 }
  - { offset: 0x9E3DE, size: 0x8, addend: 0x0, symName: '__ZN72_$LT$anyhow..error..ErrorImpl$LT$E$GT$$u20$as$u20$core..fmt..Display$GT$3fmt17h846b34c8079d2ddcE', symObjAddr: 0x3478, symBinAddr: 0x2FA04, symSize: 0x40 }
  - { offset: 0x9E428, size: 0x8, addend: 0x0, symName: '__ZN72_$LT$anyhow..error..ErrorImpl$LT$E$GT$$u20$as$u20$core..fmt..Display$GT$3fmt17hf8e293d93d0e6b6fE', symObjAddr: 0x34B8, symBinAddr: 0x2FA44, symSize: 0x40 }
  - { offset: 0x9E89C, size: 0x8, addend: 0x0, symName: '__ZN100_$LT$anyhow..context..Quoted$LT$$RF$mut$u20$core..fmt..Formatter$GT$$u20$as$u20$core..fmt..Write$GT$9write_str17h6f7be143c11b3169E', symObjAddr: 0x25E8, symBinAddr: 0x2EBA4, symSize: 0x54 }
  - { offset: 0x9ED06, size: 0x8, addend: 0x0, symName: '__ZN63_$LT$alloc..alloc..Global$u20$as$u20$core..alloc..Allocator$GT$15allocate_zeroed17h9e8b5df619e0bc2bE', symObjAddr: 0x1FC4, symBinAddr: 0x2E580, symSize: 0x34 }
  - { offset: 0x9ED43, size: 0x8, addend: 0x0, symName: '__ZN63_$LT$alloc..alloc..Global$u20$as$u20$core..alloc..Allocator$GT$4grow17h447658d2d8dd4908E', symObjAddr: 0x1FF8, symBinAddr: 0x2E5B4, symSize: 0x44 }
  - { offset: 0x9EDA3, size: 0x8, addend: 0x0, symName: '__ZN63_$LT$alloc..alloc..Global$u20$as$u20$core..alloc..Allocator$GT$8allocate17hd066c64f358e472cE', symObjAddr: 0x203C, symBinAddr: 0x2E5F8, symSize: 0x34 }
  - { offset: 0x9EDE1, size: 0x8, addend: 0x0, symName: __ZN5alloc5alloc15exchange_malloc17h569e4f63f4e15c30E, symObjAddr: 0x1714, symBinAddr: 0x2DD5C, symSize: 0x90 }
  - { offset: 0x9EF46, size: 0x8, addend: 0x0, symName: __ZN5alloc5alloc5alloc17h7eae97ab95f201bcE, symObjAddr: 0x17A4, symBinAddr: 0x2DDEC, symSize: 0x80 }
  - { offset: 0x9FA28, size: 0x8, addend: 0x0, symName: __ZN4core3fmt9Arguments6new_v117h4322e54d27b6558fE, symObjAddr: 0x4CC, symBinAddr: 0x2CEA0, symSize: 0x50 }
  - { offset: 0x9FA5D, size: 0x8, addend: 0x0, symName: __ZN4core3fmt9Arguments9new_const17h814bf23ae85ba7ddE, symObjAddr: 0x51C, symBinAddr: 0x2CEF0, symSize: 0x48 }
  - { offset: 0x9FA90, size: 0x8, addend: 0x0, symName: __ZN4core3fmt9Formatter9alternate17hbfa7a0892230244aE, symObjAddr: 0x564, symBinAddr: 0x2CF38, symSize: 0x20 }
  - { offset: 0x9FDB5, size: 0x8, addend: 0x0, symName: '__ZN4core6option15Option$LT$T$GT$6as_ref17h4d94baf25be7802bE', symObjAddr: 0x110C, symBinAddr: 0x2D900, symSize: 0x4C }
  - { offset: 0x9FE12, size: 0x8, addend: 0x0, symName: '__ZN4core6option15Option$LT$T$GT$6expect17hf87e3b21a6f2d3e5E', symObjAddr: 0x1158, symBinAddr: 0x2D94C, symSize: 0x5C }
  - { offset: 0x9FE90, size: 0x8, addend: 0x0, symName: '__ZN4core6option15Option$LT$T$GT$7is_some17h7a09f204b3c45ebfE', symObjAddr: 0x11B4, symBinAddr: 0x2D9A8, symSize: 0x48 }
  - { offset: 0x9FECD, size: 0x8, addend: 0x0, symName: '__ZN4core6option15Option$LT$T$GT$7is_some17h9bae2b966b12229dE', symObjAddr: 0x11FC, symBinAddr: 0x2D9F0, symSize: 0x40 }
  - { offset: 0x9FF0A, size: 0x8, addend: 0x0, symName: '__ZN4core6option15Option$LT$T$GT$7or_else17hfb6f1a2bf0a0232fE', symObjAddr: 0x123C, symBinAddr: 0x2DA30, symSize: 0xA8 }
  - { offset: 0x9FF81, size: 0x8, addend: 0x0, symName: '__ZN4core6result19Result$LT$T$C$E$GT$5is_ok17h537d18e388a706c5E', symObjAddr: 0x12E4, symBinAddr: 0x2DAD8, symSize: 0x3C }
  - { offset: 0x9FFBA, size: 0x8, addend: 0x0, symName: '__ZN4core6result19Result$LT$T$C$E$GT$6expect17h191a9b10f04eb63eE', symObjAddr: 0x1320, symBinAddr: 0x2DB14, symSize: 0x84 }
  - { offset: 0xA0022, size: 0x8, addend: 0x0, symName: '__ZN4core6result19Result$LT$T$C$E$GT$6expect17h2bd96f4df4dc7f69E', symObjAddr: 0x13A4, symBinAddr: 0x2DB98, symSize: 0x78 }
  - { offset: 0xA0370, size: 0x8, addend: 0x0, symName: __ZN5alloc5alloc6Global10alloc_impl17h9d2c5eca16aa0349E, symObjAddr: 0x1824, symBinAddr: 0x2DE6C, symSize: 0x20C }
  - { offset: 0xA0B8A, size: 0x8, addend: 0x0, symName: __ZN5alloc5alloc6Global9grow_impl17h4d535401e79d5401E, symObjAddr: 0x1A30, symBinAddr: 0x2E078, symSize: 0x508 }
  - { offset: 0xA16D1, size: 0x8, addend: 0x0, symName: __ZN6anyhow6ensure3Buf3new17h7212b6e53e9c578bE, symObjAddr: 0x263C, symBinAddr: 0x2EBF8, symSize: 0x50 }
  - { offset: 0xA1709, size: 0x8, addend: 0x0, symName: __ZN6anyhow6ensure3Buf6as_str17hd762d97007eda09eE, symObjAddr: 0x268C, symBinAddr: 0x2EC48, symSize: 0x44 }
  - { offset: 0xA181B, size: 0x8, addend: 0x0, symName: '__ZN6anyhow5error18ErrorImpl$LT$E$GT$5erase17h7219af91da079e2aE', symObjAddr: 0x314C, symBinAddr: 0x2F708, symSize: 0x28 }
  - { offset: 0xA1858, size: 0x8, addend: 0x0, symName: '__ZN6anyhow5error18ErrorImpl$LT$E$GT$5erase17h80b0f7e42e6e1f54E', symObjAddr: 0x3174, symBinAddr: 0x2F730, symSize: 0x28 }
  - { offset: 0xA1895, size: 0x8, addend: 0x0, symName: '__ZN6anyhow5error18ErrorImpl$LT$E$GT$5erase17hb12621fe50f33308E', symObjAddr: 0x319C, symBinAddr: 0x2F758, symSize: 0x28 }
  - { offset: 0xA18C4, size: 0x8, addend: 0x0, symName: __ZN6anyhow5error9ErrorImpl5error17hb549fa934637d3e2E, symObjAddr: 0x31C4, symBinAddr: 0x2F780, symSize: 0x3C }
  - { offset: 0xA1916, size: 0x8, addend: 0x0, symName: __ZN6anyhow5error9ErrorImpl9error_mut17h1b76ffc5fec9a1bbE, symObjAddr: 0x3200, symBinAddr: 0x2F7BC, symSize: 0x4C }
  - { offset: 0xA193B, size: 0x8, addend: 0x0, symName: __ZN6anyhow5error9ErrorImpl9backtrace17h6be27948e48c198cE, symObjAddr: 0x324C, symBinAddr: 0x2F808, symSize: 0x58 }
  - { offset: 0xA196E, size: 0x8, addend: 0x0, symName: __ZN6anyhow5error9ErrorImpl5chain17hc31dddfd8963fe40E, symObjAddr: 0x32DC, symBinAddr: 0xEA944, symSize: 0x30 }
  - { offset: 0xA1A8F, size: 0x8, addend: 0x0, symName: '__ZN6anyhow3fmt42_$LT$impl$u20$anyhow..error..ErrorImpl$GT$7display17h4056915b7358809eE', symObjAddr: 0x34F8, symBinAddr: 0x2FA84, symSize: 0x2B0 }
  - { offset: 0xA1CFA, size: 0x8, addend: 0x0, symName: '__ZN6anyhow3fmt42_$LT$impl$u20$anyhow..error..ErrorImpl$GT$5debug17h67c10396b261499dE', symObjAddr: 0x37A8, symBinAddr: 0x2FD34, symSize: 0x768 }
  - { offset: 0xA2083, size: 0x8, addend: 0x0, symName: __ZN6anyhow4kind5Boxed3new17he56472a7f3e6573dE, symObjAddr: 0x3F10, symBinAddr: 0xEA974, symSize: 0xA4 }
  - { offset: 0xA230A, size: 0x8, addend: 0x0, symName: '__ZN100_$LT$core..iter..adapters..skip..Skip$LT$I$GT$$u20$as$u20$core..iter..traits..iterator..Iterator$GT$4next17h467059cab43c1d69E', symObjAddr: 0x0, symBinAddr: 0x3049C, symSize: 0x8C }
  - { offset: 0xA254A, size: 0x8, addend: 0x0, symName: '__ZN44_$LT$$RF$T$u20$as$u20$core..fmt..Display$GT$3fmt17h2942084bdd7097b0E', symObjAddr: 0x4F8, symBinAddr: 0x30994, symSize: 0x3C }
  - { offset: 0xA2594, size: 0x8, addend: 0x0, symName: '__ZN44_$LT$$RF$T$u20$as$u20$core..fmt..Display$GT$3fmt17h77e9197757e9d455E', symObjAddr: 0x534, symBinAddr: 0x309D0, symSize: 0x3C }
  - { offset: 0xA2671, size: 0x8, addend: 0x0, symName: '__ZN4core3fmt3num52_$LT$impl$u20$core..fmt..Debug$u20$for$u20$usize$GT$3fmt17hae3d850112174da2E', symObjAddr: 0x6B4, symBinAddr: 0x30B50, symSize: 0x90 }
  - { offset: 0xA312D, size: 0x8, addend: 0x0, symName: '__ZN4core3ptr8non_null16NonNull$LT$T$GT$13new_unchecked18precondition_check17h0195c4546e61a67fE', symObjAddr: 0x928, symBinAddr: 0x30DC4, symSize: 0x3C }
  - { offset: 0xA3401, size: 0x8, addend: 0x0, symName: '__ZN90_$LT$core..ptr..non_null..NonNull$LT$T$GT$$u20$as$u20$core..convert..From$LT$$RF$T$GT$$GT$4from17h1aba45a56ba6fff8E', symObjAddr: 0x2CD8, symBinAddr: 0x33154, symSize: 0x14 }
  - { offset: 0xA343B, size: 0x8, addend: 0x0, symName: '__ZN90_$LT$core..ptr..non_null..NonNull$LT$T$GT$$u20$as$u20$core..convert..From$LT$$RF$T$GT$$GT$4from17h584b399189ada5aaE', symObjAddr: 0x2CEC, symBinAddr: 0x33168, symSize: 0x14 }
  - { offset: 0xA3475, size: 0x8, addend: 0x0, symName: '__ZN90_$LT$core..ptr..non_null..NonNull$LT$T$GT$$u20$as$u20$core..convert..From$LT$$RF$T$GT$$GT$4from17h79d4c5b2876e03d5E', symObjAddr: 0x2D00, symBinAddr: 0x3317C, symSize: 0x14 }
  - { offset: 0xA3571, size: 0x8, addend: 0x0, symName: '__ZN4core3ptr9const_ptr33_$LT$impl$u20$$BP$const$u20$T$GT$7sub_ptr18precondition_check17hef11ec48d9cc6bf5E', symObjAddr: 0xA90, symBinAddr: 0x30F2C, symSize: 0x40 }
  - { offset: 0xA405F, size: 0x8, addend: 0x0, symName: '__ZN100_$LT$core..iter..adapters..skip..Skip$LT$I$GT$$u20$as$u20$core..iter..traits..iterator..Iterator$GT$4next17h467059cab43c1d69E', symObjAddr: 0x0, symBinAddr: 0x3049C, symSize: 0x8C }
  - { offset: 0xA426F, size: 0x8, addend: 0x0, symName: '__ZN49_$LT$usize$u20$as$u20$core..iter..range..Step$GT$17forward_unchecked17h0ea2d8a5ac6c838aE', symObjAddr: 0x570, symBinAddr: 0x30A0C, symSize: 0x48 }
  - { offset: 0xA42F7, size: 0x8, addend: 0x0, symName: __ZN4core4iter6traits8iterator8Iterator6by_ref17h4c780c98e4a9b9a0E, symObjAddr: 0x1394, symBinAddr: 0x31830, symSize: 0x14 }
  - { offset: 0xA439E, size: 0x8, addend: 0x0, symName: __ZN4core4iter6traits8iterator8Iterator8for_each17hc684ca58a2964cc2E, symObjAddr: 0x13A8, symBinAddr: 0x31844, symSize: 0x3C }
  - { offset: 0xA441F, size: 0x8, addend: 0x0, symName: __ZN4core4iter6traits8iterator8Iterator8try_fold17hb08b4b290e44a3e9E, symObjAddr: 0x13E4, symBinAddr: 0x31880, symSize: 0x114 }
  - { offset: 0xA44C2, size: 0x8, addend: 0x0, symName: __ZN4core4iter6traits8iterator8Iterator9enumerate17ha9739af1599530e3E, symObjAddr: 0x14F8, symBinAddr: 0x31994, symSize: 0x38 }
  - { offset: 0xA4534, size: 0x8, addend: 0x0, symName: '__ZN72_$LT$$RF$mut$u20$I$u20$as$u20$core..iter..traits..iterator..Iterator$GT$4fold17hcb018274aebc4d34E', symObjAddr: 0x2308, symBinAddr: 0x327A4, symSize: 0x24 }
  - { offset: 0xA459F, size: 0x8, addend: 0x0, symName: '__ZN72_$LT$$RF$mut$u20$I$u20$as$u20$core..iter..traits..iterator..Iterator$GT$9size_hint17hb8cfcaa6d7e3648cE', symObjAddr: 0x232C, symBinAddr: 0x327C8, symSize: 0x28 }
  - { offset: 0xA4641, size: 0x8, addend: 0x0, symName: '__ZN79_$LT$$RF$mut$u20$I$u20$as$u20$core..iter..traits..iterator..IteratorRefSpec$GT$9spec_fold17h564ade16265d0fc3E', symObjAddr: 0x277C, symBinAddr: 0x32C18, symSize: 0x44 }
  - { offset: 0xA472B, size: 0x8, addend: 0x0, symName: '__ZN63_$LT$I$u20$as$u20$core..iter..traits..collect..IntoIterator$GT$9into_iter17h1e6a6e9075a2b076E', symObjAddr: 0x2244, symBinAddr: 0x326E0, symSize: 0x1C }
  - { offset: 0xA4765, size: 0x8, addend: 0x0, symName: '__ZN63_$LT$I$u20$as$u20$core..iter..traits..collect..IntoIterator$GT$9into_iter17hbefb8f3df720329cE', symObjAddr: 0x2260, symBinAddr: 0x326FC, symSize: 0x30 }
  - { offset: 0xA51C5, size: 0x8, addend: 0x0, symName: '__ZN102_$LT$core..str..iter..CharIndices$u20$as$u20$core..iter..traits..double_ended..DoubleEndedIterator$GT$9next_back17ha4d1f3b7a4e6edbaE', symObjAddr: 0x8C, symBinAddr: 0x30528, symSize: 0x188 }
  - { offset: 0xA54E4, size: 0x8, addend: 0x0, symName: '__ZN81_$LT$core..str..iter..Bytes$u20$as$u20$core..iter..traits..iterator..Iterator$GT$3any17h09c177cb19cba9adE', symObjAddr: 0x27C0, symBinAddr: 0x32C5C, symSize: 0x24 }
  - { offset: 0xA552E, size: 0x8, addend: 0x0, symName: '__ZN81_$LT$core..str..iter..Bytes$u20$as$u20$core..iter..traits..iterator..Iterator$GT$4next17h50d4864471a9d22aE', symObjAddr: 0x27E4, symBinAddr: 0x32C80, symSize: 0x90 }
  - { offset: 0xA55D3, size: 0x8, addend: 0x0, symName: '__ZN81_$LT$core..str..iter..Bytes$u20$as$u20$core..iter..traits..iterator..Iterator$GT$9size_hint17hc99e09096ad219f6E', symObjAddr: 0x2874, symBinAddr: 0x32D10, symSize: 0x2C }
  - { offset: 0xA5639, size: 0x8, addend: 0x0, symName: '__ZN90_$LT$core..str..iter..Split$LT$P$GT$$u20$as$u20$core..iter..traits..iterator..Iterator$GT$4next17hd87bcc2717d08ec1E', symObjAddr: 0x2D14, symBinAddr: 0x33190, symSize: 0x24 }
  - { offset: 0xA56A5, size: 0x8, addend: 0x0, symName: '__ZN104_$LT$core..str..pattern..MultiCharEqSearcher$LT$C$GT$$u20$as$u20$core..str..pattern..ReverseSearcher$GT$9next_back17hc8d6cf1f8b3e1b85E', symObjAddr: 0x21C, symBinAddr: 0x306B8, symSize: 0x1B0 }
  - { offset: 0xA5927, size: 0x8, addend: 0x0, symName: '__ZN106_$LT$core..str..pattern..CharPredicateSearcher$LT$F$GT$$u20$as$u20$core..str..pattern..ReverseSearcher$GT$16next_reject_back17hb5f26baaa1da3ce8E', symObjAddr: 0x494, symBinAddr: 0x30930, symSize: 0x24 }
  - { offset: 0xA59D7, size: 0x8, addend: 0x0, symName: __ZN4core3str7pattern15ReverseSearcher16next_reject_back17h75f6322e90b37123E, symObjAddr: 0xF5C, symBinAddr: 0x313F8, symSize: 0x90 }
  - { offset: 0xA5A49, size: 0x8, addend: 0x0, symName: '__ZN52_$LT$char$u20$as$u20$core..str..pattern..Pattern$GT$13into_searcher17h6e8c77387219bb58E', symObjAddr: 0x1ECC, symBinAddr: 0x32368, symSize: 0x114 }
  - { offset: 0xA5BC3, size: 0x8, addend: 0x0, symName: '__ZN55_$LT$$RF$str$u20$as$u20$core..str..pattern..Pattern$GT$12is_prefix_of17h72f6326deb71a577E', symObjAddr: 0x1FE0, symBinAddr: 0x3247C, symSize: 0x4C }
  - { offset: 0xA5C0A, size: 0x8, addend: 0x0, symName: '__ZN81_$LT$core..str..pattern..CharSearcher$u20$as$u20$core..str..pattern..Searcher$GT$10next_match17h89ac0194313a65b6E', symObjAddr: 0x28A0, symBinAddr: 0x32D3C, symSize: 0x3F8 }
  - { offset: 0xA6349, size: 0x8, addend: 0x0, symName: '__ZN95_$LT$core..str..pattern..MultiCharEqPattern$LT$C$GT$$u20$as$u20$core..str..pattern..Pattern$GT$13into_searcher17h3af3df9ce01ec73dE', symObjAddr: 0x2D9C, symBinAddr: 0x33218, symSize: 0x90 }
  - { offset: 0xA65C4, size: 0x8, addend: 0x0, symName: __ZN4core3str11validations23next_code_point_reverse17hf8feaaf7f6871610E, symObjAddr: 0xAD0, symBinAddr: 0x30F6C, symSize: 0x234 }
  - { offset: 0xA6C57, size: 0x8, addend: 0x0, symName: '__ZN106_$LT$core..ops..range..Range$LT$usize$GT$$u20$as$u20$core..slice..index..SliceIndex$LT$$u5b$T$u5d$$GT$$GT$9index_mut17h149835fa4bde2719E', symObjAddr: 0x3CC, symBinAddr: 0x30868, symSize: 0xC8 }
  - { offset: 0xA707C, size: 0x8, addend: 0x0, symName: __ZN4core5slice5index5range17h0f089f0007272925E, symObjAddr: 0x1990, symBinAddr: 0x31E2C, symSize: 0x27C }
  - { offset: 0xA7294, size: 0x8, addend: 0x0, symName: '__ZN75_$LT$usize$u20$as$u20$core..slice..index..SliceIndex$LT$$u5b$T$u5d$$GT$$GT$13get_unchecked18precondition_check17h38d84f0891322ac2E', symObjAddr: 0x273C, symBinAddr: 0x32BD8, symSize: 0x40 }
  - { offset: 0xA74C7, size: 0x8, addend: 0x0, symName: '__ZN4core5slice29_$LT$impl$u20$$u5b$T$u5d$$GT$11starts_with17h8a66d389c0558f6aE', symObjAddr: 0x1888, symBinAddr: 0x31D24, symSize: 0x108 }
  - { offset: 0xA780E, size: 0x8, addend: 0x0, symName: __ZN4core5slice6memchr6memchr17h0c4138e4b774387fE, symObjAddr: 0x1C0C, symBinAddr: 0x320A8, symSize: 0x114 }
  - { offset: 0xA7A7A, size: 0x8, addend: 0x0, symName: __ZN4core4char7methods15encode_utf8_raw17hc6a44cd6d95ee2e7E, symObjAddr: 0xFEC, symBinAddr: 0x31488, symSize: 0x3A8 }
  - { offset: 0xA7E64, size: 0x8, addend: 0x0, symName: '__ZN103_$LT$core..ops..try_trait..NeverShortCircuit$LT$T$GT$$u20$as$u20$core..ops..try_trait..FromResidual$GT$13from_residual17h927a16c3b05b0ea3E', symObjAddr: 0x214, symBinAddr: 0x306B0, symSize: 0x8 }
  - { offset: 0xA7EB3, size: 0x8, addend: 0x0, symName: '__ZN4core3ops9try_trait26NeverShortCircuit$LT$T$GT$10wrap_mut_228_$u7b$$u7b$closure$u7d$$u7d$17h1c5d2b79c8f5b9c6E', symObjAddr: 0x760, symBinAddr: 0x30BFC, symSize: 0x28 }
  - { offset: 0xA7F29, size: 0x8, addend: 0x0, symName: '__ZN4core3ops9try_trait26NeverShortCircuit$LT$T$GT$10wrap_mut_228_$u7b$$u7b$closure$u7d$$u7d$17h2e0c0e7ec73775f5E', symObjAddr: 0x788, symBinAddr: 0x30C24, symSize: 0x28 }
  - { offset: 0xA801A, size: 0x8, addend: 0x0, symName: '__ZN94_$LT$core..ops..try_trait..NeverShortCircuit$LT$T$GT$$u20$as$u20$core..ops..try_trait..Try$GT$11from_output17h2a5df04e6f36b7d5E', symObjAddr: 0x2D84, symBinAddr: 0x33200, symSize: 0xC }
  - { offset: 0xA8050, size: 0x8, addend: 0x0, symName: '__ZN94_$LT$core..ops..try_trait..NeverShortCircuit$LT$T$GT$$u20$as$u20$core..ops..try_trait..Try$GT$6branch17h31f7211d0fa5f6c5E', symObjAddr: 0x2D90, symBinAddr: 0x3320C, symSize: 0xC }
  - { offset: 0xA80A0, size: 0x8, addend: 0x0, symName: '__ZN142_$LT$$LP$core..ops..range..Bound$LT$$RF$T$GT$$C$core..ops..range..Bound$LT$$RF$T$GT$$RP$$u20$as$u20$core..ops..range..RangeBounds$LT$T$GT$$GT$11start_bound17h174ad4caedd44436E', symObjAddr: 0x4B8, symBinAddr: 0x30954, symSize: 0x20 }
  - { offset: 0xA80DA, size: 0x8, addend: 0x0, symName: '__ZN142_$LT$$LP$core..ops..range..Bound$LT$$RF$T$GT$$C$core..ops..range..Bound$LT$$RF$T$GT$$RP$$u20$as$u20$core..ops..range..RangeBounds$LT$T$GT$$GT$9end_bound17h93353aecabfda497E', symObjAddr: 0x4D8, symBinAddr: 0x30974, symSize: 0x20 }
  - { offset: 0xA8206, size: 0x8, addend: 0x0, symName: '__ZN91_$LT$core..ops..range..Range$LT$T$GT$$u20$as$u20$core..ops..range..RangeBounds$LT$T$GT$$GT$11start_bound17h766fc7e142bd5d63E', symObjAddr: 0x2D38, symBinAddr: 0x331B4, symSize: 0x24 }
  - { offset: 0xA8240, size: 0x8, addend: 0x0, symName: '__ZN91_$LT$core..ops..range..Range$LT$T$GT$$u20$as$u20$core..ops..range..RangeBounds$LT$T$GT$$GT$9end_bound17h5f5e65558deb8cc0E', symObjAddr: 0x2D5C, symBinAddr: 0x331D8, symSize: 0x28 }
  - { offset: 0xA8517, size: 0x8, addend: 0x0, symName: '__ZN4core3num7nonzero16NonZero$LT$T$GT$13new_unchecked18precondition_check17h85b15225cd94e735E', symObjAddr: 0x744, symBinAddr: 0x30BE0, symSize: 0x1C }
  - { offset: 0xA861E, size: 0x8, addend: 0x0, symName: '__ZN58_$LT$core..any..TypeId$u20$as$u20$core..cmp..PartialEq$GT$2eq17hddd98781249b3f77E', symObjAddr: 0x202C, symBinAddr: 0x324C8, symSize: 0x2C }
  - { offset: 0xA8AAC, size: 0x8, addend: 0x0, symName: __ZN4core5alloc6layout6Layout5array5inner17h57eb9590716bb156E, symObjAddr: 0x1530, symBinAddr: 0x319CC, symSize: 0xF4 }
  - { offset: 0xA8BE9, size: 0x8, addend: 0x0, symName: __ZN4core5error5Error11description17hcbcd7ae51ee4d63fE, symObjAddr: 0x1624, symBinAddr: 0x31AC0, symSize: 0x20 }
  - { offset: 0xA8C21, size: 0x8, addend: 0x0, symName: __ZN4core5error5Error11description17hdfba90b4d58fa46fE, symObjAddr: 0x1644, symBinAddr: 0x31AE0, symSize: 0x20 }
  - { offset: 0xA8C59, size: 0x8, addend: 0x0, symName: __ZN4core5error5Error11description17hffc53886c8905505E, symObjAddr: 0x1664, symBinAddr: 0x31B00, symSize: 0x20 }
  - { offset: 0xA8C91, size: 0x8, addend: 0x0, symName: __ZN4core5error5Error5cause17h0707f7ce13dbb7d3E, symObjAddr: 0x1684, symBinAddr: 0x31B20, symSize: 0x24 }
  - { offset: 0xA8CC9, size: 0x8, addend: 0x0, symName: __ZN4core5error5Error5cause17h12125de5a38bba05E, symObjAddr: 0x16A8, symBinAddr: 0x31B44, symSize: 0x24 }
  - { offset: 0xA8D01, size: 0x8, addend: 0x0, symName: __ZN4core5error5Error5cause17hc6253dc849a70302E, symObjAddr: 0x16CC, symBinAddr: 0x31B68, symSize: 0x24 }
  - { offset: 0xA8D39, size: 0x8, addend: 0x0, symName: __ZN4core5error5Error6source17h1e926d0e704ba6b1E, symObjAddr: 0x16F0, symBinAddr: 0x31B8C, symSize: 0x24 }
  - { offset: 0xA8D71, size: 0x8, addend: 0x0, symName: __ZN4core5error5Error6source17h31f4c8fae7682a55E, symObjAddr: 0x1714, symBinAddr: 0x31BB0, symSize: 0x24 }
  - { offset: 0xA8DA9, size: 0x8, addend: 0x0, symName: __ZN4core5error5Error7provide17h2bf6605a0ba464afE, symObjAddr: 0x1738, symBinAddr: 0x31BD4, symSize: 0x18 }
  - { offset: 0xA8DEC, size: 0x8, addend: 0x0, symName: __ZN4core5error5Error7provide17h5b33cfcf0050b35eE, symObjAddr: 0x1750, symBinAddr: 0x31BEC, symSize: 0x18 }
  - { offset: 0xA8E2F, size: 0x8, addend: 0x0, symName: __ZN4core5error5Error7provide17hda1a315795e875baE, symObjAddr: 0x1768, symBinAddr: 0x31C04, symSize: 0x18 }
  - { offset: 0xA8E72, size: 0x8, addend: 0x0, symName: __ZN4core5error5Error7type_id17h3c05e827c5310affE, symObjAddr: 0x1780, symBinAddr: 0x31C1C, symSize: 0x58 }
  - { offset: 0xA8EFB, size: 0x8, addend: 0x0, symName: __ZN4core5error5Error7type_id17h52fbfe0611702383E, symObjAddr: 0x17D8, symBinAddr: 0x31C74, symSize: 0x58 }
  - { offset: 0xA8F84, size: 0x8, addend: 0x0, symName: __ZN4core5error5Error7type_id17hd1d8a668e4f3fdf0E, symObjAddr: 0x1830, symBinAddr: 0x31CCC, symSize: 0x58 }
  - { offset: 0xA910D, size: 0x8, addend: 0x0, symName: '__ZN4core5tuple64_$LT$impl$u20$core..cmp..PartialEq$u20$for$u20$$LP$U$C$T$RP$$GT$2eq17hde2cbfbf9e993339E', symObjAddr: 0x1D20, symBinAddr: 0x321BC, symSize: 0x60 }
  - { offset: 0xA9172, size: 0x8, addend: 0x0, symName: __ZN4core7unicode12unicode_data11white_space6lookup17h78a9ecf083878755E, symObjAddr: 0x1D80, symBinAddr: 0x3221C, symSize: 0x14C }
  - { offset: 0xA9521, size: 0x8, addend: 0x0, symName: '__ZN83_$LT$alloc..vec..set_len_on_drop..SetLenOnDrop$u20$as$u20$core..ops..drop..Drop$GT$4drop17h334c02840c9810dcE', symObjAddr: 0x2CB8, symBinAddr: 0x33134, symSize: 0x20 }
  - { offset: 0xA9910, size: 0x8, addend: 0x0, symName: '__ZN5alloc5boxed16Box$LT$T$C$A$GT$8into_raw17h1a6cc57684281f62E', symObjAddr: 0x2190, symBinAddr: 0x3262C, symSize: 0x3C }
  - { offset: 0xA9A4B, size: 0x8, addend: 0x0, symName: '__ZN5alloc5boxed16Box$LT$T$C$A$GT$8into_raw17h1c865bb219724679E', symObjAddr: 0x21CC, symBinAddr: 0x32668, symSize: 0x3C }
  - { offset: 0xA9B86, size: 0x8, addend: 0x0, symName: '__ZN5alloc5boxed16Box$LT$T$C$A$GT$8into_raw17h8ead6d78cf25d68bE', symObjAddr: 0x2208, symBinAddr: 0x326A4, symSize: 0x3C }
  - { offset: 0xA9C5F, size: 0x8, addend: 0x0, symName: '__ZN5alloc5boxed12Box$LT$T$GT$8from_raw17h09b210ce6783e659E', symObjAddr: 0x2058, symBinAddr: 0x324F4, symSize: 0x34 }
  - { offset: 0xA9D2E, size: 0x8, addend: 0x0, symName: '__ZN5alloc5boxed12Box$LT$T$GT$8from_raw17h0faf5771f6c5a6dfE', symObjAddr: 0x208C, symBinAddr: 0x32528, symSize: 0x34 }
  - { offset: 0xA9DFD, size: 0x8, addend: 0x0, symName: '__ZN5alloc5boxed12Box$LT$T$GT$8from_raw17h3bb5a3baab3ebc68E', symObjAddr: 0x20C0, symBinAddr: 0x3255C, symSize: 0x34 }
  - { offset: 0xA9ECC, size: 0x8, addend: 0x0, symName: '__ZN5alloc5boxed12Box$LT$T$GT$8from_raw17h6a0b84926933e145E', symObjAddr: 0x20F4, symBinAddr: 0x32590, symSize: 0x34 }
  - { offset: 0xA9F9B, size: 0x8, addend: 0x0, symName: '__ZN5alloc5boxed12Box$LT$T$GT$8from_raw17h9814addda87b46afE', symObjAddr: 0x2128, symBinAddr: 0x325C4, symSize: 0x34 }
  - { offset: 0xAA06A, size: 0x8, addend: 0x0, symName: '__ZN5alloc5boxed12Box$LT$T$GT$8from_raw17hb94188138941d3e6E', symObjAddr: 0x215C, symBinAddr: 0x325F8, symSize: 0x34 }
  - { offset: 0xAA140, size: 0x8, addend: 0x0, symName: '__ZN67_$LT$alloc..boxed..Box$LT$T$C$A$GT$$u20$as$u20$core..fmt..Debug$GT$3fmt17h3b1b3573abd8724eE', symObjAddr: 0x2290, symBinAddr: 0x3272C, symSize: 0x3C }
  - { offset: 0xAA19B, size: 0x8, addend: 0x0, symName: '__ZN69_$LT$alloc..boxed..Box$LT$T$C$A$GT$$u20$as$u20$core..fmt..Display$GT$3fmt17hb7d9650a45b45e4fE', symObjAddr: 0x22CC, symBinAddr: 0x32768, symSize: 0x3C }
  - { offset: 0xAA1F6, size: 0x8, addend: 0x0, symName: '__ZN72_$LT$alloc..boxed..Box$LT$T$C$A$GT$$u20$as$u20$core..ops..drop..Drop$GT$4drop17h21506edb0a80c08dE', symObjAddr: 0x2354, symBinAddr: 0x327F0, symSize: 0x8C }
  - { offset: 0xAA403, size: 0x8, addend: 0x0, symName: '__ZN72_$LT$alloc..boxed..Box$LT$T$C$A$GT$$u20$as$u20$core..ops..drop..Drop$GT$4drop17h4802659850245b1bE', symObjAddr: 0x23E0, symBinAddr: 0x3287C, symSize: 0x8C }
  - { offset: 0xAA610, size: 0x8, addend: 0x0, symName: '__ZN72_$LT$alloc..boxed..Box$LT$T$C$A$GT$$u20$as$u20$core..ops..drop..Drop$GT$4drop17h76a9fa0e00a6ea6bE', symObjAddr: 0x246C, symBinAddr: 0x32908, symSize: 0xA0 }
  - { offset: 0xAA820, size: 0x8, addend: 0x0, symName: '__ZN72_$LT$alloc..boxed..Box$LT$T$C$A$GT$$u20$as$u20$core..ops..drop..Drop$GT$4drop17hb5c3d30587484bb1E', symObjAddr: 0x250C, symBinAddr: 0x329A8, symSize: 0x8C }
  - { offset: 0xAAA2D, size: 0x8, addend: 0x0, symName: '__ZN72_$LT$alloc..boxed..Box$LT$T$C$A$GT$$u20$as$u20$core..ops..drop..Drop$GT$4drop17hc3c0b4e2baa78457E', symObjAddr: 0x2598, symBinAddr: 0x32A34, symSize: 0x8C }
  - { offset: 0xAAC3A, size: 0x8, addend: 0x0, symName: '__ZN72_$LT$alloc..boxed..Box$LT$T$C$A$GT$$u20$as$u20$core..ops..drop..Drop$GT$4drop17hea85440dd95cf435E', symObjAddr: 0x2624, symBinAddr: 0x32AC0, symSize: 0x8C }
  - { offset: 0xAAE47, size: 0x8, addend: 0x0, symName: '__ZN72_$LT$alloc..boxed..Box$LT$T$C$A$GT$$u20$as$u20$core..ops..drop..Drop$GT$4drop17hfcb8a5cdd5500d2aE', symObjAddr: 0x26B0, symBinAddr: 0x32B4C, symSize: 0x8C }
  - { offset: 0xAB057, size: 0x8, addend: 0x0, symName: __ZN4core3any6TypeId2of17h4e23790a7f64eaa0E, symObjAddr: 0x5B8, symBinAddr: 0x30A54, symSize: 0x54 }
  - { offset: 0xAB10A, size: 0x8, addend: 0x0, symName: __ZN4core3any6TypeId2of17h546d9149d47550dcE, symObjAddr: 0x60C, symBinAddr: 0x30AA8, symSize: 0x54 }
  - { offset: 0xAB188, size: 0x8, addend: 0x0, symName: __ZN4core3any6TypeId2of17h934a527f9db98913E, symObjAddr: 0x660, symBinAddr: 0x30AFC, symSize: 0x54 }
  - { offset: 0xAB2A3, size: 0x8, addend: 0x0, symName: '__ZN4core3ptr8non_null16NonNull$LT$T$GT$13new_unchecked17h0de9bbc2de74d636E', symObjAddr: 0x7B0, symBinAddr: 0x30C4C, symSize: 0x34 }
  - { offset: 0xAB30F, size: 0x8, addend: 0x0, symName: '__ZN4core3ptr8non_null16NonNull$LT$T$GT$13new_unchecked17h3c4428c812b3ee3bE', symObjAddr: 0x7E4, symBinAddr: 0x30C80, symSize: 0x40 }
  - { offset: 0xAB359, size: 0x8, addend: 0x0, symName: '__ZN4core3ptr8non_null16NonNull$LT$T$GT$13new_unchecked17h4f8363eae62e6f28E', symObjAddr: 0x824, symBinAddr: 0x30CC0, symSize: 0x34 }
  - { offset: 0xAB63F, size: 0x8, addend: 0x0, symName: '__ZN6anyhow5error168_$LT$impl$u20$core..convert..From$LT$anyhow..Error$GT$$u20$for$u20$alloc..boxed..Box$LT$dyn$u20$core..error..Error$u2b$core..marker..Sync$u2b$core..marker..Send$GT$$GT$4from17hcf7ceb75f20dfd73E', symObjAddr: 0x2E2C, symBinAddr: 0xEAA18, symSize: 0x54 }
  - { offset: 0xAB696, size: 0x8, addend: 0x0, symName: '__ZN6anyhow5error145_$LT$impl$u20$core..convert..From$LT$anyhow..Error$GT$$u20$for$u20$alloc..boxed..Box$LT$dyn$u20$core..error..Error$u2b$core..marker..Send$GT$$GT$4from17h374c2df482a5269dE', symObjAddr: 0x2E80, symBinAddr: 0x332A8, symSize: 0x24 }
  - { offset: 0xAB6CD, size: 0x8, addend: 0x0, symName: '__ZN6anyhow5error122_$LT$impl$u20$core..convert..From$LT$anyhow..Error$GT$$u20$for$u20$alloc..boxed..Box$LT$dyn$u20$core..error..Error$GT$$GT$4from17hf63a59ea908c5911E', symObjAddr: 0x2EA4, symBinAddr: 0x332CC, symSize: 0x24 }
  - { offset: 0xAB764, size: 0x8, addend: 0x0, symName: '__ZN75_$LT$anyhow..wrapper..MessageError$LT$M$GT$$u20$as$u20$core..fmt..Debug$GT$3fmt17h44eb3c92193af757E', symObjAddr: 0x2EC8, symBinAddr: 0x332F0, symSize: 0x2C }
  - { offset: 0xAB7AB, size: 0x8, addend: 0x0, symName: '__ZN75_$LT$anyhow..wrapper..MessageError$LT$M$GT$$u20$as$u20$core..fmt..Debug$GT$3fmt17h61bc59e8088cef42E', symObjAddr: 0x2EF4, symBinAddr: 0x3331C, symSize: 0x2C }
  - { offset: 0xAB7F9, size: 0x8, addend: 0x0, symName: '__ZN77_$LT$anyhow..wrapper..MessageError$LT$M$GT$$u20$as$u20$core..fmt..Display$GT$3fmt17h3b4b0103831761a7E', symObjAddr: 0x2F20, symBinAddr: 0x33348, symSize: 0x2C }
  - { offset: 0xAB840, size: 0x8, addend: 0x0, symName: '__ZN77_$LT$anyhow..wrapper..MessageError$LT$M$GT$$u20$as$u20$core..fmt..Display$GT$3fmt17h87ad283de03e2398E', symObjAddr: 0x2F4C, symBinAddr: 0x33374, symSize: 0x2C }
  - { offset: 0xAB88E, size: 0x8, addend: 0x0, symName: '__ZN64_$LT$anyhow..wrapper..BoxedError$u20$as$u20$core..fmt..Debug$GT$3fmt17h2e5eb71dec79c60cE', symObjAddr: 0x2F78, symBinAddr: 0x333A0, symSize: 0x2C }
  - { offset: 0xAB8D2, size: 0x8, addend: 0x0, symName: '__ZN66_$LT$anyhow..wrapper..BoxedError$u20$as$u20$core..fmt..Display$GT$3fmt17h1ff5ec815a30ee98E', symObjAddr: 0x2FA4, symBinAddr: 0x333CC, symSize: 0x2C }
  - { offset: 0xAB916, size: 0x8, addend: 0x0, symName: '__ZN66_$LT$anyhow..wrapper..BoxedError$u20$as$u20$core..error..Error$GT$6source17h93520b1b48a6caddE', symObjAddr: 0x2FD0, symBinAddr: 0x333F8, symSize: 0x34 }
  - { offset: 0xABF95, size: 0x8, addend: 0x0, symName: '__ZN4core3ptr8non_null16NonNull$LT$T$GT$13new_unchecked17h7af045d4efb76552E', symObjAddr: 0x858, symBinAddr: 0x30CF4, symSize: 0x34 }
  - { offset: 0xABFDF, size: 0x8, addend: 0x0, symName: '__ZN4core3ptr8non_null16NonNull$LT$T$GT$13new_unchecked17hb19370f379da915bE', symObjAddr: 0x88C, symBinAddr: 0x30D28, symSize: 0x34 }
  - { offset: 0xAC029, size: 0x8, addend: 0x0, symName: '__ZN4core3ptr8non_null16NonNull$LT$T$GT$13new_unchecked17hcefbd8ab57f90ab6E', symObjAddr: 0x8C0, symBinAddr: 0x30D5C, symSize: 0x34 }
  - { offset: 0xAC073, size: 0x8, addend: 0x0, symName: '__ZN4core3ptr8non_null16NonNull$LT$T$GT$13new_unchecked17hef248f8963292585E', symObjAddr: 0x8F4, symBinAddr: 0x30D90, symSize: 0x34 }
  - { offset: 0xAC0A1, size: 0x8, addend: 0x0, symName: '__ZN4core3ptr8non_null16NonNull$LT$T$GT$4cast17h0971bfb2ecc80420E', symObjAddr: 0x964, symBinAddr: 0x30E00, symSize: 0x14 }
  - { offset: 0xAC0DA, size: 0x8, addend: 0x0, symName: '__ZN4core3ptr8non_null16NonNull$LT$T$GT$4cast17h189ac2f771f6830bE', symObjAddr: 0x978, symBinAddr: 0x30E14, symSize: 0x14 }
  - { offset: 0xAC113, size: 0x8, addend: 0x0, symName: '__ZN4core3ptr8non_null16NonNull$LT$T$GT$4cast17h2413ff299b727cf6E', symObjAddr: 0x98C, symBinAddr: 0x30E28, symSize: 0x14 }
  - { offset: 0xAC14C, size: 0x8, addend: 0x0, symName: '__ZN4core3ptr8non_null16NonNull$LT$T$GT$4cast17h2c734cf808c46ea8E', symObjAddr: 0x9A0, symBinAddr: 0x30E3C, symSize: 0x14 }
  - { offset: 0xAC193, size: 0x8, addend: 0x0, symName: '__ZN4core3ptr8non_null16NonNull$LT$T$GT$4cast17h2db760ff0370222aE', symObjAddr: 0x9B4, symBinAddr: 0x30E50, symSize: 0x14 }
  - { offset: 0xAC1DA, size: 0x8, addend: 0x0, symName: '__ZN4core3ptr8non_null16NonNull$LT$T$GT$4cast17h33e9bd8d9c7c4e3bE', symObjAddr: 0x9C8, symBinAddr: 0x30E64, symSize: 0x14 }
  - { offset: 0xAC221, size: 0x8, addend: 0x0, symName: '__ZN4core3ptr8non_null16NonNull$LT$T$GT$4cast17h4b4fe057701be42bE', symObjAddr: 0x9DC, symBinAddr: 0x30E78, symSize: 0x14 }
  - { offset: 0xAC25A, size: 0x8, addend: 0x0, symName: '__ZN4core3ptr8non_null16NonNull$LT$T$GT$4cast17h77a2365a03fe1a50E', symObjAddr: 0x9F0, symBinAddr: 0x30E8C, symSize: 0x14 }
  - { offset: 0xAC293, size: 0x8, addend: 0x0, symName: '__ZN4core3ptr8non_null16NonNull$LT$T$GT$4cast17h7aa0a349546feca2E', symObjAddr: 0xA04, symBinAddr: 0x30EA0, symSize: 0x14 }
  - { offset: 0xAC2CC, size: 0x8, addend: 0x0, symName: '__ZN4core3ptr8non_null16NonNull$LT$T$GT$4cast17h844f281e6032fd06E', symObjAddr: 0xA18, symBinAddr: 0x30EB4, symSize: 0x14 }
  - { offset: 0xAC305, size: 0x8, addend: 0x0, symName: '__ZN4core3ptr8non_null16NonNull$LT$T$GT$4cast17h8a20d82b29ac2875E', symObjAddr: 0xA2C, symBinAddr: 0x30EC8, symSize: 0x14 }
  - { offset: 0xAC34C, size: 0x8, addend: 0x0, symName: '__ZN4core3ptr8non_null16NonNull$LT$T$GT$4cast17h8de3873dd0ee11e0E', symObjAddr: 0xA40, symBinAddr: 0x30EDC, symSize: 0x14 }
  - { offset: 0xAC393, size: 0x8, addend: 0x0, symName: '__ZN4core3ptr8non_null16NonNull$LT$T$GT$4cast17hb93aaaabc2174f53E', symObjAddr: 0xA54, symBinAddr: 0x30EF0, symSize: 0x14 }
  - { offset: 0xAC3DA, size: 0x8, addend: 0x0, symName: '__ZN4core3ptr8non_null16NonNull$LT$T$GT$4cast17hdbde55da2bd8f460E', symObjAddr: 0xA68, symBinAddr: 0x30F04, symSize: 0x14 }
  - { offset: 0xAC413, size: 0x8, addend: 0x0, symName: '__ZN4core3ptr8non_null16NonNull$LT$T$GT$4cast17hea4b046d1cdbdd61E', symObjAddr: 0xA7C, symBinAddr: 0x30F18, symSize: 0x14 }
  - { offset: 0xAC529, size: 0x8, addend: 0x0, symName: '__ZN4core3str4iter22SplitInternal$LT$P$GT$4next17h6e6524b2a0f9316cE', symObjAddr: 0xD04, symBinAddr: 0x311A0, symSize: 0x138 }
  - { offset: 0xAC6AA, size: 0x8, addend: 0x0, symName: '__ZN4core3str4iter22SplitInternal$LT$P$GT$7get_end17h9403e56b79781dbfE', symObjAddr: 0xE3C, symBinAddr: 0x312D8, symSize: 0x120 }
  - { offset: 0xADAAF, size: 0x8, addend: 0x0, symName: '__ZN103_$LT$std..sys..thread_local..abort_on_dtor_unwind..DtorUnwindGuard$u20$as$u20$core..ops..drop..Drop$GT$4drop17h61ef1c01f453454fE', symObjAddr: 0x0, symBinAddr: 0x3342C, symSize: 0x7C }
  - { offset: 0xADB20, size: 0x8, addend: 0x0, symName: __ZN3std2io5Write9write_all17hee11454d4153edceE, symObjAddr: 0xF8, symBinAddr: 0x33524, symSize: 0x288 }
  - { offset: 0xADD87, size: 0x8, addend: 0x0, symName: __ZN3std2io5Write9write_fmt17hdd7a4f4027ed9d3eE, symObjAddr: 0x380, symBinAddr: 0x337AC, symSize: 0x128 }
  - { offset: 0xADF41, size: 0x8, addend: 0x0, symName: '__ZN78_$LT$std..io..error..repr_bitpacked..Repr$u20$as$u20$core..ops..drop..Drop$GT$4drop28_$u7b$$u7b$closure$u7d$$u7d$17hd9e45a8303f15f89E', symObjAddr: 0x1FE0, symBinAddr: 0x353E0, symSize: 0x34 }
  - { offset: 0xAE03E, size: 0x8, addend: 0x0, symName: '__ZN78_$LT$std..io..error..repr_bitpacked..Repr$u20$as$u20$core..ops..drop..Drop$GT$4drop17h9eb269b5ce8d2de3E', symObjAddr: 0x1FA8, symBinAddr: 0x353A8, symSize: 0x38 }
  - { offset: 0xAE069, size: 0x8, addend: 0x0, symName: __ZN3std2io5error14repr_bitpacked11decode_repr17hb570d04ce09a8719E, symObjAddr: 0x4A8, symBinAddr: 0x338D4, symSize: 0x234 }
  - { offset: 0xAE438, size: 0x8, addend: 0x0, symName: __ZN3std2io5error14repr_bitpacked14kind_from_prim17h8be5614eeeabd61cE, symObjAddr: 0x6DC, symBinAddr: 0x33B08, symSize: 0x5E4 }
  - { offset: 0xAF1E0, size: 0x8, addend: 0x0, symName: '__ZN103_$LT$std..sys..thread_local..abort_on_dtor_unwind..DtorUnwindGuard$u20$as$u20$core..ops..drop..Drop$GT$4drop17h61ef1c01f453454fE', symObjAddr: 0x0, symBinAddr: 0x3342C, symSize: 0x7C }
  - { offset: 0xAF25A, size: 0x8, addend: 0x0, symName: __ZN3std3sys12thread_local20abort_on_dtor_unwind17haba340d8b20b44d1E, symObjAddr: 0xCC0, symBinAddr: 0x340EC, symSize: 0x50 }
  - { offset: 0xAF322, size: 0x8, addend: 0x0, symName: '__ZN3std4sync4once4Once9call_once28_$u7b$$u7b$closure$u7d$$u7d$17hdab79f8a7de27a39E', symObjAddr: 0xE04, symBinAddr: 0x34230, symSize: 0x6C }
  - { offset: 0xB02B5, size: 0x8, addend: 0x0, symName: __ZN4core3ptr13read_volatile18precondition_check17h3c537bff7f44eb91E, symObjAddr: 0xF54, symBinAddr: 0x34354, symSize: 0xEC }
  - { offset: 0xB0426, size: 0x8, addend: 0x0, symName: __ZN4core3ptr7replace18precondition_check17h6f2a8bd1d06bbc2dE, symObjAddr: 0x1040, symBinAddr: 0x34440, symSize: 0xEC }
  - { offset: 0xB12B7, size: 0x8, addend: 0x0, symName: '__ZN104_$LT$core..ops..control_flow..ControlFlow$LT$B$C$C$GT$$u20$as$u20$core..ops..try_trait..FromResidual$GT$13from_residual17heb9643dc381297e1E', symObjAddr: 0x7C, symBinAddr: 0x334A8, symSize: 0x1C }
  - { offset: 0xB131E, size: 0x8, addend: 0x0, symName: '__ZN90_$LT$core..ops..control_flow..ControlFlow$LT$B$C$C$GT$$u20$as$u20$core..cmp..PartialEq$GT$2eq17hfe830ef3649a4948E', symObjAddr: 0xAEE4, symBinAddr: 0x3E2E4, symSize: 0xEC }
  - { offset: 0xB1471, size: 0x8, addend: 0x0, symName: '__ZN95_$LT$core..ops..control_flow..ControlFlow$LT$B$C$C$GT$$u20$as$u20$core..ops..try_trait..Try$GT$11from_output17h1425510d87995940E', symObjAddr: 0xAFD0, symBinAddr: 0x3E3D0, symSize: 0x18 }
  - { offset: 0xB14B3, size: 0x8, addend: 0x0, symName: '__ZN95_$LT$core..ops..control_flow..ControlFlow$LT$B$C$C$GT$$u20$as$u20$core..ops..try_trait..Try$GT$6branch17hf984963572f55b7fE', symObjAddr: 0xAFE8, symBinAddr: 0x3E3E8, symSize: 0x38 }
  - { offset: 0xB1772, size: 0x8, addend: 0x0, symName: '__ZN106_$LT$core..ops..range..Range$LT$usize$GT$$u20$as$u20$core..slice..index..SliceIndex$LT$$u5b$T$u5d$$GT$$GT$13get_unchecked18precondition_check17h7457102a8c24e729E', symObjAddr: 0x98, symBinAddr: 0x334C4, symSize: 0x60 }
  - { offset: 0xB1BD4, size: 0x8, addend: 0x0, symName: '__ZN4core5slice29_$LT$impl$u20$$u5b$T$u5d$$GT$4iter17h461391d586333388E', symObjAddr: 0x13D8, symBinAddr: 0x347D8, symSize: 0x28 }
  - { offset: 0xB1C0E, size: 0x8, addend: 0x0, symName: '__ZN4core5slice29_$LT$impl$u20$$u5b$T$u5d$$GT$4iter17hf9c2ccdecc534d08E', symObjAddr: 0x1400, symBinAddr: 0x34800, symSize: 0x28 }
  - { offset: 0xB1C55, size: 0x8, addend: 0x0, symName: __ZN4core5slice3raw14from_raw_parts18precondition_check17h8ef148388dfef181E, symObjAddr: 0x1428, symBinAddr: 0x34828, symSize: 0x164 }
  - { offset: 0xB1FC4, size: 0x8, addend: 0x0, symName: '__ZN73_$LT$$u5b$A$u5d$$u20$as$u20$core..slice..cmp..SlicePartialEq$LT$B$GT$$GT$5equal17h79f4c2b0a55493b8E', symObjAddr: 0x1918, symBinAddr: 0x34D18, symSize: 0x88 }
  - { offset: 0xB2062, size: 0x8, addend: 0x0, symName: '__ZN73_$LT$$u5b$A$u5d$$u20$as$u20$core..slice..cmp..SlicePartialEq$LT$B$GT$$GT$5equal17hf5423b653db11a47E', symObjAddr: 0x19A0, symBinAddr: 0x34DA0, symSize: 0x88 }
  - { offset: 0xB245E, size: 0x8, addend: 0x0, symName: __ZN4core4hint16assert_unchecked18precondition_check17he46e65e36b3b7598E, symObjAddr: 0x112C, symBinAddr: 0x3452C, symSize: 0x38 }
  - { offset: 0xB248F, size: 0x8, addend: 0x0, symName: __ZN4core4hint21unreachable_unchecked18precondition_check17hf20cf403ffee8445E, symObjAddr: 0x1164, symBinAddr: 0x34564, symSize: 0x1C }
  - { offset: 0xB2621, size: 0x8, addend: 0x0, symName: __ZN4core10intrinsics11size_of_val17h428080789beb5fddE, symObjAddr: 0xE70, symBinAddr: 0x3429C, symSize: 0xC }
  - { offset: 0xB265B, size: 0x8, addend: 0x0, symName: __ZN4core10intrinsics11size_of_val17h525bf0a8014a6604E, symObjAddr: 0xE7C, symBinAddr: 0x342A8, symSize: 0xC }
  - { offset: 0xB2695, size: 0x8, addend: 0x0, symName: __ZN4core10intrinsics11size_of_val17h5da64f8447ffc3b4E, symObjAddr: 0xE88, symBinAddr: 0x342B4, symSize: 0x10 }
  - { offset: 0xB26CF, size: 0x8, addend: 0x0, symName: __ZN4core10intrinsics11size_of_val17hcc5fc20d369b7366E, symObjAddr: 0xE98, symBinAddr: 0x342C4, symSize: 0x10 }
  - { offset: 0xB2709, size: 0x8, addend: 0x0, symName: __ZN4core10intrinsics16min_align_of_val17h7dfde15be5a409afE, symObjAddr: 0xEA8, symBinAddr: 0x342D4, symSize: 0xC }
  - { offset: 0xB2743, size: 0x8, addend: 0x0, symName: __ZN4core10intrinsics16min_align_of_val17hca8f702ad273ca65E, symObjAddr: 0xEB4, symBinAddr: 0x342E0, symSize: 0xC }
  - { offset: 0xB2790, size: 0x8, addend: 0x0, symName: '__ZN4core3cmp5impls69_$LT$impl$u20$core..cmp..PartialEq$LT$$RF$B$GT$$u20$for$u20$$RF$A$GT$2eq17h385da6d177ea9b51E', symObjAddr: 0xEEC, symBinAddr: 0x342EC, symSize: 0x34 }
  - { offset: 0xB27E4, size: 0x8, addend: 0x0, symName: '__ZN4core3cmp5impls69_$LT$impl$u20$core..cmp..PartialEq$LT$$RF$B$GT$$u20$for$u20$$RF$A$GT$2eq17hfd55b586b0f77116E', symObjAddr: 0xF20, symBinAddr: 0x34320, symSize: 0x34 }
  - { offset: 0xB298B, size: 0x8, addend: 0x0, symName: '__ZN4core4iter6traits8iterator8Iterator3all5check28_$u7b$$u7b$closure$u7d$$u7d$17h56cdceb7fbf7b8b2E', symObjAddr: 0x1180, symBinAddr: 0x34580, symSize: 0x58 }
  - { offset: 0xB29EC, size: 0x8, addend: 0x0, symName: '__ZN4core4iter6traits8iterator8Iterator3all5check28_$u7b$$u7b$closure$u7d$$u7d$17hec32ea7bbafa8f1eE', symObjAddr: 0x11D8, symBinAddr: 0x345D8, symSize: 0x58 }
  - { offset: 0xB2C08, size: 0x8, addend: 0x0, symName: '__ZN4core5array76_$LT$impl$u20$core..default..Default$u20$for$u20$$u5b$T$u3b$$u20$32$u5d$$GT$7default17ha5f66056d20836eeE', symObjAddr: 0x1230, symBinAddr: 0x34630, symSize: 0x110 }
  - { offset: 0xB2F2E, size: 0x8, addend: 0x0, symName: '__ZN4core5array92_$LT$impl$u20$core..convert..AsMut$LT$$u5b$T$u5d$$GT$$u20$for$u20$$u5b$T$u3b$$u20$N$u5d$$GT$6as_mut17h7af5dc93fe860839E', symObjAddr: 0x1340, symBinAddr: 0x34740, symSize: 0x28 }
  - { offset: 0xB301A, size: 0x8, addend: 0x0, symName: __ZN4core5error5Error7provide17h1f948ac9620d6196E, symObjAddr: 0x1368, symBinAddr: 0x34768, symSize: 0x18 }
  - { offset: 0xB305D, size: 0x8, addend: 0x0, symName: __ZN4core5error5Error7type_id17h6330e1357f12d3e4E, symObjAddr: 0x1380, symBinAddr: 0x34780, symSize: 0x58 }
  - { offset: 0xB3183, size: 0x8, addend: 0x0, symName: '__ZN63_$LT$$RF$mut$u20$T$u20$as$u20$core..convert..AsRef$LT$U$GT$$GT$6as_ref17h9cb2cf91feaed1f9E', symObjAddr: 0x178C, symBinAddr: 0x34B8C, symSize: 0x28 }
  - { offset: 0xB3339, size: 0x8, addend: 0x0, symName: __ZN4rand4rngs7adapter9reseeding4fork21register_fork_handler8REGISTER17hfe4ac00e525a6a5bE, symObjAddr: 0x3BC70, symBinAddr: 0x158480, symSize: 0x0 }
  - { offset: 0xB3347, size: 0x8, addend: 0x0, symName: '__ZN4rand4rngs7adapter9reseeding4fork21register_fork_handler28_$u7b$$u7b$closure$u7d$$u7d$17h0d6b71ebd7460a59E', symObjAddr: 0xBB40, symBinAddr: 0x3EF40, symSize: 0xC4 }
  - { offset: 0xB341A, size: 0x8, addend: 0x0, symName: __ZN4rand4rngs7adapter9reseeding4fork26RESEEDING_RNG_FORK_COUNTER17hab891cd049291fafE, symObjAddr: 0x3BC68, symBinAddr: 0x158478, symSize: 0x0 }
  - { offset: 0xB3428, size: 0x8, addend: 0x0, symName: __ZN4rand4rngs7adapter9reseeding4fork16get_fork_counter17hecfdf9570f17f5f1E, symObjAddr: 0xBAB4, symBinAddr: 0x3EEB4, symSize: 0x2C }
  - { offset: 0xB3447, size: 0x8, addend: 0x0, symName: __ZN4rand4rngs7adapter9reseeding4fork12fork_handler17hb0ae1417e54a74e2E, symObjAddr: 0xBAE0, symBinAddr: 0x3EEE0, symSize: 0x3C }
  - { offset: 0xB3462, size: 0x8, addend: 0x0, symName: __ZN4rand4rngs7adapter9reseeding4fork21register_fork_handler17h46879e2d30881165E, symObjAddr: 0xBB1C, symBinAddr: 0x3EF1C, symSize: 0x24 }
  - { offset: 0xB3600, size: 0x8, addend: 0x0, symName: '__ZN99_$LT$rand..rngs..adapter..reseeding..ReseedingRng$LT$R$C$Rsdr$GT$$u20$as$u20$rand_core..RngCore$GT$10fill_bytes17h66cb5e37f72ef1e0E', symObjAddr: 0xB658, symBinAddr: 0x3EA58, symSize: 0x30 }
  - { offset: 0xB364D, size: 0x8, addend: 0x0, symName: '__ZN99_$LT$rand..rngs..adapter..reseeding..ReseedingRng$LT$R$C$Rsdr$GT$$u20$as$u20$rand_core..RngCore$GT$14try_fill_bytes17h72f6d0a14cd65ea6E', symObjAddr: 0xB688, symBinAddr: 0x3EA88, symSize: 0x50 }
  - { offset: 0xB36CD, size: 0x8, addend: 0x0, symName: '__ZN112_$LT$rand..rngs..adapter..reseeding..ReseedingCore$LT$R$C$Rsdr$GT$$u20$as$u20$rand_core..block..BlockRngCore$GT$8generate17h021c61378e33854eE', symObjAddr: 0xB6D8, symBinAddr: 0x3EAD8, symSize: 0xE8 }
  - { offset: 0xB375D, size: 0x8, addend: 0x0, symName: '__ZN4rand4rngs7adapter9reseeding29ReseedingCore$LT$R$C$Rsdr$GT$6reseed28_$u7b$$u7b$closure$u7d$$u7d$17hd07b1a716a784c56E', symObjAddr: 0xB8E4, symBinAddr: 0x3ECE4, symSize: 0x54 }
  - { offset: 0xB37BC, size: 0x8, addend: 0x0, symName: '__ZN75_$LT$rand..rngs..adapter..read..ReadError$u20$as$u20$core..fmt..Display$GT$3fmt17ha09220fd8217aa2bE', symObjAddr: 0xB550, symBinAddr: 0x3E950, symSize: 0x84 }
  - { offset: 0xB3884, size: 0x8, addend: 0x0, symName: '__ZN75_$LT$rand..rngs..adapter..read..ReadError$u20$as$u20$core..error..Error$GT$6source17h247ae67cc82c75fcE', symObjAddr: 0xB5D4, symBinAddr: 0x3E9D4, symSize: 0x2C }
  - { offset: 0xB38F1, size: 0x8, addend: 0x0, symName: '__ZN4rand4rngs6thread14THREAD_RNG_KEY29_$u7b$$u7b$constant$u7d$$u7d$28_$u7b$$u7b$closure$u7d$$u7d$3VAL17h332afd29be2f53edE', symObjAddr: 0xD460, symBinAddr: 0x158130, symSize: 0x0 }
  - { offset: 0xB3901, size: 0x8, addend: 0x0, symName: '__ZN4rand4rngs6thread14THREAD_RNG_KEY29_$u7b$$u7b$constant$u7d$$u7d$28_$u7b$$u7b$closure$u7d$$u7d$17hd10a61a96c01f194E', symObjAddr: 0xC104, symBinAddr: 0x3F504, symSize: 0x3C }
  - { offset: 0xB3943, size: 0x8, addend: 0x0, symName: __ZN4rand4rngs6thread14THREAD_RNG_KEY6__init17h2b5118e563d5ad29E, symObjAddr: 0xBFDC, symBinAddr: 0x3F3DC, symSize: 0x7C }
  - { offset: 0xB39C7, size: 0x8, addend: 0x0, symName: '__ZN4rand4rngs6thread14THREAD_RNG_KEY6__init28_$u7b$$u7b$closure$u7d$$u7d$17hd4f23d626b258a66E', symObjAddr: 0xC058, symBinAddr: 0x3F458, symSize: 0xAC }
  - { offset: 0xB3A8E, size: 0x8, addend: 0x0, symName: __ZN4rand4rngs6thread10thread_rng17h94a2d8650fb4e2f8E, symObjAddr: 0xBC18, symBinAddr: 0x3F018, symSize: 0x2C }
  - { offset: 0xB3AB2, size: 0x8, addend: 0x0, symName: '__ZN4rand4rngs6thread10thread_rng28_$u7b$$u7b$closure$u7d$$u7d$17hf519f8785450a1a4E', symObjAddr: 0xBC44, symBinAddr: 0x3F044, symSize: 0x24 }
  - { offset: 0xB3AFA, size: 0x8, addend: 0x0, symName: '__ZN72_$LT$rand..rngs..thread..ThreadRng$u20$as$u20$core..default..Default$GT$7default17h5c4e6f6a344fc692E', symObjAddr: 0xBC68, symBinAddr: 0x3F068, symSize: 0x14 }
  - { offset: 0xB3B1F, size: 0x8, addend: 0x0, symName: '__ZN68_$LT$rand..rngs..thread..ThreadRng$u20$as$u20$rand_core..RngCore$GT$10fill_bytes17h94203126005ceb8cE', symObjAddr: 0xBC7C, symBinAddr: 0x3F07C, symSize: 0x60 }
  - { offset: 0xB3C23, size: 0x8, addend: 0x0, symName: '__ZN68_$LT$rand..rngs..thread..ThreadRng$u20$as$u20$rand_core..RngCore$GT$14try_fill_bytes17h3ff9179a469ad579E', symObjAddr: 0xBCDC, symBinAddr: 0x3F0DC, symSize: 0x60 }
  - { offset: 0xB3D9D, size: 0x8, addend: 0x0, symName: '__ZN77_$LT$rand..distributions..slice..EmptySlice$u20$as$u20$core..fmt..Display$GT$3fmt17hb838acb154a76ba1E', symObjAddr: 0xB490, symBinAddr: 0x3E890, symSize: 0x44 }
  - { offset: 0xB3DEB, size: 0x8, addend: 0x0, symName: __ZN4rand13distributions7uniform16char_to_comp_u3217h98f20c8cebfda7a5E, symObjAddr: 0xB4D4, symBinAddr: 0x3E8D4, symSize: 0x7C }
  - { offset: 0xB3E76, size: 0x8, addend: 0x0, symName: '__ZN67_$LT$rand..seq..index..IndexVec$u20$as$u20$core..cmp..PartialEq$GT$2eq17h62f3bf7f64c795fdE', symObjAddr: 0xBD3C, symBinAddr: 0x3F13C, symSize: 0x220 }
  - { offset: 0xB3F69, size: 0x8, addend: 0x0, symName: '__ZN67_$LT$rand..seq..index..IndexVec$u20$as$u20$core..cmp..PartialEq$GT$2eq28_$u7b$$u7b$closure$u7d$$u7d$17h6f2fe9fe44434e42E', symObjAddr: 0xBF5C, symBinAddr: 0x3F35C, symSize: 0x40 }
  - { offset: 0xB3FCD, size: 0x8, addend: 0x0, symName: '__ZN67_$LT$rand..seq..index..IndexVec$u20$as$u20$core..cmp..PartialEq$GT$2eq28_$u7b$$u7b$closure$u7d$$u7d$17hb6e4f5d2d4aab5baE', symObjAddr: 0xBF9C, symBinAddr: 0x3F39C, symSize: 0x40 }
  - { offset: 0xB43C2, size: 0x8, addend: 0x0, symName: '__ZN72_$LT$alloc..vec..Vec$LT$T$C$A$GT$$u20$as$u20$core..ops..deref..Deref$GT$5deref17h661c54d5b69edf3bE', symObjAddr: 0x1840, symBinAddr: 0x34C40, symSize: 0x6C }
  - { offset: 0xB44F9, size: 0x8, addend: 0x0, symName: '__ZN72_$LT$alloc..vec..Vec$LT$T$C$A$GT$$u20$as$u20$core..ops..deref..Deref$GT$5deref17hb8be54f39b7611b8E', symObjAddr: 0x18AC, symBinAddr: 0x34CAC, symSize: 0x6C }
  - { offset: 0xB463D, size: 0x8, addend: 0x0, symName: '__ZN5alloc3vec10partial_eq117_$LT$impl$u20$core..cmp..PartialEq$LT$alloc..vec..Vec$LT$U$C$A2$GT$$GT$$u20$for$u20$alloc..vec..Vec$LT$T$C$A1$GT$$GT$2eq17h137822b4b0ed6e8cE', symObjAddr: 0x158C, symBinAddr: 0x3498C, symSize: 0xE8 }
  - { offset: 0xB4AD1, size: 0x8, addend: 0x0, symName: '__ZN5alloc3vec10partial_eq117_$LT$impl$u20$core..cmp..PartialEq$LT$alloc..vec..Vec$LT$U$C$A2$GT$$GT$$u20$for$u20$alloc..vec..Vec$LT$T$C$A1$GT$$GT$2eq17h433daca288229ec1E', symObjAddr: 0x1674, symBinAddr: 0x34A74, symSize: 0xE8 }
  - { offset: 0xB5100, size: 0x8, addend: 0x0, symName: '__ZN72_$LT$alloc..boxed..Box$LT$T$C$A$GT$$u20$as$u20$core..ops..drop..Drop$GT$4drop17heea58698f28391e8E', symObjAddr: 0x17B4, symBinAddr: 0x34BB4, symSize: 0x8C }
  - { offset: 0xB53DA, size: 0x8, addend: 0x0, symName: '__ZN76_$LT$rand_chacha..chacha..ChaCha12Core$u20$as$u20$rand_core..SeedableRng$GT$9from_seed17h7751077688968a7eE', symObjAddr: 0x1B98, symBinAddr: 0x34F98, symSize: 0x410 }
  - { offset: 0xB5862, size: 0x8, addend: 0x0, symName: '__ZN84_$LT$rand_chacha..chacha..ChaCha12Core$u20$as$u20$rand_core..block..BlockRngCore$GT$8generate17he6185c581751528fE', symObjAddr: 0x2014, symBinAddr: 0x35414, symSize: 0x8ED0 }
  - { offset: 0xBDBDB, size: 0x8, addend: 0x0, symName: '__ZN74_$LT$rand_core..block..BlockRng$LT$R$GT$$u20$as$u20$rand_core..RngCore$GT$10fill_bytes17h8ae8e10f1da9677fE', symObjAddr: 0x1A28, symBinAddr: 0x34E28, symSize: 0x170 }
  - { offset: 0xBDCEB, size: 0x8, addend: 0x0, symName: __ZN9rand_core11SeedableRng8from_rng17h4be3582b344e21baE, symObjAddr: 0xB020, symBinAddr: 0x3E420, symSize: 0x174 }
  - { offset: 0xBDD68, size: 0x8, addend: 0x0, symName: __ZN9rand_core11SeedableRng8from_rng17ha20a7d835ef01e21E, symObjAddr: 0xB194, symBinAddr: 0x3E594, symSize: 0x194 }
  - { offset: 0xBE357, size: 0x8, addend: 0x0, symName: __ZN3std4sync4once4Once9call_once17h3d2b6060488d68ddE, symObjAddr: 0xD10, symBinAddr: 0x3413C, symSize: 0xF4 }
  - { offset: 0xBE7F4, size: 0x8, addend: 0x0, symName: '__ZN5alloc3vec16Vec$LT$T$C$A$GT$3len17h59b42c74d6ce6944E', symObjAddr: 0x175C, symBinAddr: 0x34B5C, symSize: 0x18 }
  - { offset: 0xBE82D, size: 0x8, addend: 0x0, symName: '__ZN5alloc3vec16Vec$LT$T$C$A$GT$3len17h7332e6a9b899fec5E', symObjAddr: 0x1774, symBinAddr: 0x34B74, symSize: 0x18 }
  - { offset: 0xBED4F, size: 0x8, addend: 0x0, symName: '__ZN9rand_core5block17BlockRng$LT$R$GT$16generate_and_set17h156f059111c7c098E', symObjAddr: 0xB328, symBinAddr: 0x3E728, symSize: 0x78 }
  - { offset: 0xBED8C, size: 0x8, addend: 0x0, symName: '__ZN9rand_core5block17BlockRng$LT$R$GT$3new17hd8bfa227cc80dfdbE', symObjAddr: 0xB3A0, symBinAddr: 0x3E7A0, symSize: 0xF0 }
  - { offset: 0xBEE48, size: 0x8, addend: 0x0, symName: '__ZN4rand4rngs7adapter9reseeding28ReseedingRng$LT$R$C$Rsdr$GT$3new17h6dc7cb5b37e6af35E', symObjAddr: 0xB600, symBinAddr: 0x3EA00, symSize: 0x58 }
  - { offset: 0xBEE9F, size: 0x8, addend: 0x0, symName: '__ZN4rand4rngs7adapter9reseeding29ReseedingCore$LT$R$C$Rsdr$GT$3new17hf5fc7649f45fdee0E', symObjAddr: 0xB7C0, symBinAddr: 0x3EBC0, symSize: 0xE0 }
  - { offset: 0xBEF23, size: 0x8, addend: 0x0, symName: '__ZN4rand4rngs7adapter9reseeding29ReseedingCore$LT$R$C$Rsdr$GT$6reseed17h67a165ce521f1303E', symObjAddr: 0xB8A0, symBinAddr: 0x3ECA0, symSize: 0x44 }
  - { offset: 0xBEF69, size: 0x8, addend: 0x0, symName: '__ZN4rand4rngs7adapter9reseeding29ReseedingCore$LT$R$C$Rsdr$GT$9is_forked17h2c4d0af745f3ab37E', symObjAddr: 0xB938, symBinAddr: 0x3ED38, symSize: 0x30 }
  - { offset: 0xBEFE6, size: 0x8, addend: 0x0, symName: '__ZN4rand4rngs7adapter9reseeding29ReseedingCore$LT$R$C$Rsdr$GT$19reseed_and_generate17h4621cc2b6fa471ecE', symObjAddr: 0xB968, symBinAddr: 0x3ED68, symSize: 0x14C }
  - { offset: 0xBF0EF, size: 0x8, addend: 0x0, symName: __ZN4rand4rngs4mock7StepRng3new17h3b56ef646f0df7f1E, symObjAddr: 0xBC04, symBinAddr: 0x3F004, symSize: 0x14 }
  - { offset: 0xBF48A, size: 0x8, addend: 0x0, symName: '__ZN102_$LT$core..iter..adapters..zip..Zip$LT$A$C$B$GT$$u20$as$u20$core..iter..traits..iterator..Iterator$GT$4next17h185d248c064c8705E', symObjAddr: 0x0, symBinAddr: 0x3F540, symSize: 0x24 }
  - { offset: 0xBF5AC, size: 0x8, addend: 0x0, symName: '__ZN80_$LT$std..io..Write..write_fmt..Adapter$LT$T$GT$$u20$as$u20$core..fmt..Write$GT$9write_str17h2855c34809197e36E', symObjAddr: 0x29AC, symBinAddr: 0x417D0, symSize: 0xB8 }
  - { offset: 0xBFA24, size: 0x8, addend: 0x0, symName: __ZN3std3sys12thread_local6native4lazy7destroy17h6cb75158cf37ba92E, symObjAddr: 0x760, symBinAddr: 0x3FA1C, symSize: 0x30 }
  - { offset: 0xBFA5E, size: 0x8, addend: 0x0, symName: '__ZN3std3sys12thread_local6native4lazy7destroy28_$u7b$$u7b$closure$u7d$$u7d$17h914e41a925654779E', symObjAddr: 0x790, symBinAddr: 0x3FA4C, symSize: 0x90 }
  - { offset: 0xBFC5B, size: 0x8, addend: 0x0, symName: '__ZN81_$LT$$LP$$RP$$u20$as$u20$std..sys..thread_local..native..lazy..DestroyedState$GT$13register_dtor17h67c915499316f693E', symObjAddr: 0x2A64, symBinAddr: 0x41888, symSize: 0x34 }
  - { offset: 0xBFEE3, size: 0x8, addend: 0x0, symName: '__ZN153_$LT$core..result..Result$LT$T$C$F$GT$$u20$as$u20$core..ops..try_trait..FromResidual$LT$core..result..Result$LT$core..convert..Infallible$C$E$GT$$GT$$GT$13from_residual17h953230b3a90f2104E', symObjAddr: 0x3D0, symBinAddr: 0x3F910, symSize: 0x40 }
  - { offset: 0xC0753, size: 0x8, addend: 0x0, symName: '__ZN4core3ptr8non_null16NonNull$LT$T$GT$13new_unchecked18precondition_check17h14e515a3459f1786E', symObjAddr: 0xF74, symBinAddr: 0x40064, symSize: 0x3C }
  - { offset: 0xC125B, size: 0x8, addend: 0x0, symName: '__ZN4core3ptr9const_ptr33_$LT$impl$u20$$BP$const$u20$T$GT$7sub_ptr18precondition_check17h9ae1df950c93abbaE', symObjAddr: 0xFD4, symBinAddr: 0x400C4, symSize: 0x40 }
  - { offset: 0xC1358, size: 0x8, addend: 0x0, symName: '__ZN4core3ptr101drop_in_place$LT$std..io..error..ErrorData$LT$alloc..boxed..Box$LT$std..io..error..Custom$GT$$GT$$GT$17h07aa2ea2c25aa753E', symObjAddr: 0xC78, symBinAddr: 0x3FD88, symSize: 0x48 }
  - { offset: 0xC138A, size: 0x8, addend: 0x0, symName: '__ZN4core3ptr180drop_in_place$LT$alloc..rc..Rc$LT$core..cell..UnsafeCell$LT$rand..rngs..adapter..reseeding..ReseedingRng$LT$rand_chacha..chacha..ChaCha12Core$C$rand_core..os..OsRng$GT$$GT$$GT$$GT$17h2a417f3f79d304e5E', symObjAddr: 0xCD0, symBinAddr: 0x3FDD0, symSize: 0x24 }
  - { offset: 0xC13BC, size: 0x8, addend: 0x0, symName: '__ZN4core3ptr239drop_in_place$LT$std..sys..thread_local..native..lazy..State$LT$alloc..rc..Rc$LT$core..cell..UnsafeCell$LT$rand..rngs..adapter..reseeding..ReseedingRng$LT$rand_chacha..chacha..ChaCha12Core$C$rand_core..os..OsRng$GT$$GT$$GT$$C$$u21$$GT$$GT$17hcbdf00246275d6e9E', symObjAddr: 0xCF4, symBinAddr: 0x3FDF4, symSize: 0x58 }
  - { offset: 0xC13EE, size: 0x8, addend: 0x0, symName: '__ZN4core3ptr241drop_in_place$LT$std..sys..thread_local..native..lazy..Storage$LT$alloc..rc..Rc$LT$core..cell..UnsafeCell$LT$rand..rngs..adapter..reseeding..ReseedingRng$LT$rand_chacha..chacha..ChaCha12Core$C$rand_core..os..OsRng$GT$$GT$$GT$$C$$u21$$GT$$GT$17h67177a06eccbc357E', symObjAddr: 0xD4C, symBinAddr: 0x3FE4C, symSize: 0x24 }
  - { offset: 0xC1420, size: 0x8, addend: 0x0, symName: '__ZN4core3ptr242drop_in_place$LT$std..sys..thread_local..native..lazy..State$LT$alloc..rc..Rc$LT$core..cell..UnsafeCell$LT$rand..rngs..adapter..reseeding..ReseedingRng$LT$rand_chacha..chacha..ChaCha12Core$C$rand_core..os..OsRng$GT$$GT$$GT$$C$$LP$$RP$$GT$$GT$17h7540e0b44ecbc640E', symObjAddr: 0xD70, symBinAddr: 0x3FE70, symSize: 0x54 }
  - { offset: 0xC1452, size: 0x8, addend: 0x0, symName: '__ZN4core3ptr244drop_in_place$LT$std..sys..thread_local..native..lazy..Storage$LT$alloc..rc..Rc$LT$core..cell..UnsafeCell$LT$rand..rngs..adapter..reseeding..ReseedingRng$LT$rand_chacha..chacha..ChaCha12Core$C$rand_core..os..OsRng$GT$$GT$$GT$$C$$LP$$RP$$GT$$GT$17h2520a990df3e75f7E', symObjAddr: 0xDC4, symBinAddr: 0x3FEC4, symSize: 0x24 }
  - { offset: 0xC1484, size: 0x8, addend: 0x0, symName: '__ZN4core3ptr269drop_in_place$LT$core..cell..UnsafeCell$LT$std..sys..thread_local..native..lazy..State$LT$alloc..rc..Rc$LT$core..cell..UnsafeCell$LT$rand..rngs..adapter..reseeding..ReseedingRng$LT$rand_chacha..chacha..ChaCha12Core$C$rand_core..os..OsRng$GT$$GT$$GT$$C$$u21$$GT$$GT$$GT$17h75f8723977431d68E', symObjAddr: 0xDE8, symBinAddr: 0x3FEE8, symSize: 0x24 }
  - { offset: 0xC14B6, size: 0x8, addend: 0x0, symName: '__ZN4core3ptr272drop_in_place$LT$core..cell..UnsafeCell$LT$std..sys..thread_local..native..lazy..State$LT$alloc..rc..Rc$LT$core..cell..UnsafeCell$LT$rand..rngs..adapter..reseeding..ReseedingRng$LT$rand_chacha..chacha..ChaCha12Core$C$rand_core..os..OsRng$GT$$GT$$GT$$C$$LP$$RP$$GT$$GT$$GT$17h22df89f76a62d329E', symObjAddr: 0xE0C, symBinAddr: 0x3FF0C, symSize: 0x24 }
  - { offset: 0xC14E8, size: 0x8, addend: 0x0, symName: '__ZN4core3ptr42drop_in_place$LT$std..io..error..Error$GT$17h1fbad81f87aec1ceE', symObjAddr: 0xE30, symBinAddr: 0x3FF30, symSize: 0x24 }
  - { offset: 0xC151A, size: 0x8, addend: 0x0, symName: '__ZN4core3ptr43drop_in_place$LT$std..io..error..Custom$GT$17h3f9c2d3c735a31e3E', symObjAddr: 0xE54, symBinAddr: 0x3FF54, symSize: 0x24 }
  - { offset: 0xC154C, size: 0x8, addend: 0x0, symName: '__ZN4core3ptr57drop_in_place$LT$std..io..error..repr_bitpacked..Repr$GT$17h3e10c46ee1738fb4E', symObjAddr: 0xE88, symBinAddr: 0x3FF78, symSize: 0x24 }
  - { offset: 0xC157E, size: 0x8, addend: 0x0, symName: '__ZN4core3ptr68drop_in_place$LT$alloc..boxed..Box$LT$std..io..error..Custom$GT$$GT$17h50fb10d881398e27E', symObjAddr: 0xEAC, symBinAddr: 0x3FF9C, symSize: 0x60 }
  - { offset: 0xC15B0, size: 0x8, addend: 0x0, symName: '__ZN4core3ptr81drop_in_place$LT$core..result..Result$LT$$LP$$RP$$C$std..io..error..Error$GT$$GT$17h5497db176923a9e1E', symObjAddr: 0xF0C, symBinAddr: 0x3FFFC, symSize: 0x44 }
  - { offset: 0xC15E2, size: 0x8, addend: 0x0, symName: '__ZN4core3ptr82drop_in_place$LT$std..sys..thread_local..abort_on_dtor_unwind..DtorUnwindGuard$GT$17hc69b87d0235e5c28E', symObjAddr: 0xF50, symBinAddr: 0x40040, symSize: 0x24 }
  - { offset: 0xC1614, size: 0x8, addend: 0x0, symName: '__ZN4core3ptr97drop_in_place$LT$std..io..Write..write_fmt..Adapter$LT$std..sys..pal..unix..stdio..Stderr$GT$$GT$17hbf873946ba2d7f97E', symObjAddr: 0xFB0, symBinAddr: 0x400A0, symSize: 0x24 }
  - { offset: 0xC1AE7, size: 0x8, addend: 0x0, symName: __ZN4core3fmt5Write10write_char17h25b5b3df6580db20E, symObjAddr: 0x930, symBinAddr: 0x3FBEC, symSize: 0x70 }
  - { offset: 0xC1B65, size: 0x8, addend: 0x0, symName: __ZN4core3fmt5Write9write_fmt17h244094c2e24e80c6E, symObjAddr: 0x9A0, symBinAddr: 0x3FC5C, symSize: 0x24 }
  - { offset: 0xC1BB9, size: 0x8, addend: 0x0, symName: '__ZN75_$LT$$RF$mut$u20$W$u20$as$u20$core..fmt..Write..write_fmt..SpecWriteFmt$GT$14spec_write_fmt17h672502c9827a3b53E', symObjAddr: 0x281C, symBinAddr: 0x41640, symSize: 0x190 }
  - { offset: 0xC1E40, size: 0x8, addend: 0x0, symName: __ZN4core4sync6atomic11atomic_load17h10828799da4d51c1E, symObjAddr: 0x1B14, symBinAddr: 0x409D4, symSize: 0x14C }
  - { offset: 0xC1EB8, size: 0x8, addend: 0x0, symName: __ZN4core4sync6atomic11atomic_load17h97ca6389a77f4228E, symObjAddr: 0x1C60, symBinAddr: 0x40B20, symSize: 0x14C }
  - { offset: 0xC1F4A, size: 0x8, addend: 0x0, symName: '__ZN102_$LT$core..iter..adapters..zip..Zip$LT$A$C$B$GT$$u20$as$u20$core..iter..traits..iterator..Iterator$GT$4next17h185d248c064c8705E', symObjAddr: 0x0, symBinAddr: 0x3F540, symSize: 0x24 }
  - { offset: 0xC1F8C, size: 0x8, addend: 0x0, symName: '__ZN102_$LT$core..iter..adapters..zip..Zip$LT$A$C$B$GT$$u20$as$u20$core..iter..traits..iterator..Iterator$GT$4next17hb065c79182f049baE', symObjAddr: 0x24, symBinAddr: 0x3F564, symSize: 0x24 }
  - { offset: 0xC1FD5, size: 0x8, addend: 0x0, symName: '__ZN111_$LT$core..iter..adapters..zip..Zip$LT$A$C$B$GT$$u20$as$u20$core..iter..adapters..zip..ZipImpl$LT$A$C$B$GT$$GT$3new17h274935624a985534E', symObjAddr: 0xD8, symBinAddr: 0x3F618, symSize: 0xC4 }
  - { offset: 0xC20D9, size: 0x8, addend: 0x0, symName: '__ZN111_$LT$core..iter..adapters..zip..Zip$LT$A$C$B$GT$$u20$as$u20$core..iter..adapters..zip..ZipImpl$LT$A$C$B$GT$$GT$3new17h2a133025b40915b7E', symObjAddr: 0x19C, symBinAddr: 0x3F6DC, symSize: 0xC4 }
  - { offset: 0xC21DD, size: 0x8, addend: 0x0, symName: '__ZN111_$LT$core..iter..adapters..zip..Zip$LT$A$C$B$GT$$u20$as$u20$core..iter..adapters..zip..ZipImpl$LT$A$C$B$GT$$GT$4next17hcb39a2f274d49b7bE', symObjAddr: 0x260, symBinAddr: 0x3F7A0, symSize: 0xB8 }
  - { offset: 0xC2239, size: 0x8, addend: 0x0, symName: '__ZN111_$LT$core..iter..adapters..zip..Zip$LT$A$C$B$GT$$u20$as$u20$core..iter..adapters..zip..ZipImpl$LT$A$C$B$GT$$GT$4next17he149200841d5b192E', symObjAddr: 0x318, symBinAddr: 0x3F858, symSize: 0xB8 }
  - { offset: 0xC23B8, size: 0x8, addend: 0x0, symName: __ZN4core4iter8adapters3zip27TrustedRandomAccessNoCoerce4size17h256aefcb9c024333E, symObjAddr: 0x185C, symBinAddr: 0x4094C, symSize: 0x2C }
  - { offset: 0xC23F2, size: 0x8, addend: 0x0, symName: __ZN4core4iter8adapters3zip27TrustedRandomAccessNoCoerce4size17h432d5ccfbe9f26c1E, symObjAddr: 0x1888, symBinAddr: 0x40978, symSize: 0x2C }
  - { offset: 0xC2441, size: 0x8, addend: 0x0, symName: __ZN4core4iter6traits8iterator8Iterator3all17h984c7c0bea37b7dfE, symObjAddr: 0x13BC, symBinAddr: 0x404AC, symSize: 0x3C }
  - { offset: 0xC2495, size: 0x8, addend: 0x0, symName: __ZN4core4iter6traits8iterator8Iterator3all17hebd8ec0f2418382fE, symObjAddr: 0x13F8, symBinAddr: 0x404E8, symSize: 0x3C }
  - { offset: 0xC24E9, size: 0x8, addend: 0x0, symName: __ZN4core4iter6traits8iterator8Iterator3zip17hc2985e0010f2d0b2E, symObjAddr: 0x1434, symBinAddr: 0x40524, symSize: 0xCC }
  - { offset: 0xC2576, size: 0x8, addend: 0x0, symName: __ZN4core4iter6traits8iterator8Iterator3zip17hce78d6f39faced4eE, symObjAddr: 0x1500, symBinAddr: 0x405F0, symSize: 0xCC }
  - { offset: 0xC2603, size: 0x8, addend: 0x0, symName: __ZN4core4iter6traits8iterator8Iterator8try_fold17h6a7c32b67d51895eE, symObjAddr: 0x15CC, symBinAddr: 0x406BC, symSize: 0x148 }
  - { offset: 0xC26CA, size: 0x8, addend: 0x0, symName: __ZN4core4iter6traits8iterator8Iterator8try_fold17he1808fe3d5d4d931E, symObjAddr: 0x1714, symBinAddr: 0x40804, symSize: 0x148 }
  - { offset: 0xC27D5, size: 0x8, addend: 0x0, symName: '__ZN63_$LT$I$u20$as$u20$core..iter..traits..collect..IntoIterator$GT$9into_iter17hda194c534f15a585E', symObjAddr: 0x2534, symBinAddr: 0x413E4, symSize: 0x1C }
  - { offset: 0xC280F, size: 0x8, addend: 0x0, symName: '__ZN63_$LT$I$u20$as$u20$core..iter..traits..collect..IntoIterator$GT$9into_iter17he37b84a9b621abc3E', symObjAddr: 0x2550, symBinAddr: 0x41400, symSize: 0x1C }
  - { offset: 0xC28ED, size: 0x8, addend: 0x0, symName: '__ZN110_$LT$core..ops..range..RangeFrom$LT$usize$GT$$u20$as$u20$core..slice..index..SliceIndex$LT$$u5b$T$u5d$$GT$$GT$5index17hfd3d149828c4b44dE', symObjAddr: 0x48, symBinAddr: 0x3F588, symSize: 0x90 }
  - { offset: 0xC2C1E, size: 0x8, addend: 0x0, symName: '__ZN91_$LT$core..slice..iter..Iter$LT$T$GT$$u20$as$u20$core..iter..traits..iterator..Iterator$GT$24__iterator_get_unchecked17h3313dec384730cbdE', symObjAddr: 0x2A98, symBinAddr: 0x418BC, symSize: 0x28 }
  - { offset: 0xC2CCF, size: 0x8, addend: 0x0, symName: '__ZN91_$LT$core..slice..iter..Iter$LT$T$GT$$u20$as$u20$core..iter..traits..iterator..Iterator$GT$24__iterator_get_unchecked17hf3bb787014519dc1E', symObjAddr: 0x2AC0, symBinAddr: 0x418E4, symSize: 0x28 }
  - { offset: 0xC2D80, size: 0x8, addend: 0x0, symName: '__ZN91_$LT$core..slice..iter..Iter$LT$T$GT$$u20$as$u20$core..iter..traits..iterator..Iterator$GT$9size_hint17h0cb682ff5fe523e2E', symObjAddr: 0x2AE8, symBinAddr: 0x4190C, symSize: 0xC0 }
  - { offset: 0xC2E93, size: 0x8, addend: 0x0, symName: '__ZN91_$LT$core..slice..iter..Iter$LT$T$GT$$u20$as$u20$core..iter..traits..iterator..Iterator$GT$9size_hint17h440985433b3b5678E', symObjAddr: 0x2BA8, symBinAddr: 0x419CC, symSize: 0xC0 }
  - { offset: 0xC325D, size: 0x8, addend: 0x0, symName: '__ZN4core3ops8function6FnOnce40call_once$u7b$$u7b$vtable.shim$u7d$$u7d$17hc36d70944ad19c48E', symObjAddr: 0xB70, symBinAddr: 0x3FC80, symSize: 0x30 }
  - { offset: 0xC32A2, size: 0x8, addend: 0x0, symName: __ZN4core3ops8function6FnOnce9call_once17h8fdc1a84eae8e49bE, symObjAddr: 0xBA0, symBinAddr: 0x3FCB0, symSize: 0x4C }
  - { offset: 0xC32E7, size: 0x8, addend: 0x0, symName: __ZN4core3ops8function6FnOnce9call_once17h96b2c8776f587a2cE, symObjAddr: 0xBEC, symBinAddr: 0x3FCFC, symSize: 0x4C }
  - { offset: 0xC3330, size: 0x8, addend: 0x0, symName: __ZN4core3ops8function6FnOnce9call_once17h9cc2c308d362c4c7E, symObjAddr: 0xC38, symBinAddr: 0x3FD48, symSize: 0x1C }
  - { offset: 0xC3379, size: 0x8, addend: 0x0, symName: __ZN4core3ops8function6FnOnce9call_once17hd477f9c8caea5cb6E, symObjAddr: 0xC54, symBinAddr: 0x3FD64, symSize: 0x24 }
  - { offset: 0xC4039, size: 0x8, addend: 0x0, symName: __ZN4core4char7methods15encode_utf8_raw17hcf7de80fbd6d9bf3E, symObjAddr: 0x1014, symBinAddr: 0x40104, symSize: 0x3A8 }
  - { offset: 0xC45F4, size: 0x8, addend: 0x0, symName: '__ZN89_$LT$rand..distributions..weighted_index..WeightedError$u20$as$u20$core..fmt..Display$GT$3fmt17h27509932144f3933E', symObjAddr: 0x2CA8, symBinAddr: 0x41ACC, symSize: 0xCC }
  - { offset: 0xC4642, size: 0x8, addend: 0x0, symName: '__ZN85_$LT$rand..distributions..bernoulli..BernoulliError$u20$as$u20$core..fmt..Display$GT$3fmt17hda38df1573f10a37E', symObjAddr: 0x2C68, symBinAddr: 0x41A8C, symSize: 0x40 }
  - { offset: 0xC495B, size: 0x8, addend: 0x0, symName: __ZN5alloc2rc10RcInnerPtr10inc_strong17h6c17bee14c32cbd9E, symObjAddr: 0x2034, symBinAddr: 0x40EE4, symSize: 0xB0 }
  - { offset: 0xC4B6E, size: 0x8, addend: 0x0, symName: __ZN5alloc2rc10RcInnerPtr4weak17hbd07b6f74996b848E, symObjAddr: 0x20E4, symBinAddr: 0x40F94, symSize: 0x30 }
  - { offset: 0xC4BF7, size: 0x8, addend: 0x0, symName: __ZN5alloc2rc10RcInnerPtr6strong17he9c2c3d47a43acfbE, symObjAddr: 0x2114, symBinAddr: 0x40FC4, symSize: 0x30 }
  - { offset: 0xC4DBE, size: 0x8, addend: 0x0, symName: '__ZN65_$LT$alloc..rc..Rc$LT$T$C$A$GT$$u20$as$u20$core..clone..Clone$GT$5clone17h223fdfe50ab1ad7fE', symObjAddr: 0x25F8, symBinAddr: 0x4141C, symSize: 0x58 }
  - { offset: 0xC4E96, size: 0x8, addend: 0x0, symName: '__ZN68_$LT$alloc..rc..Rc$LT$T$C$A$GT$$u20$as$u20$core..ops..drop..Drop$GT$4drop17hd9bada4e31015648E', symObjAddr: 0x2650, symBinAddr: 0x41474, symSize: 0x1CC }
  - { offset: 0xC5700, size: 0x8, addend: 0x0, symName: __ZN5alloc5alloc15exchange_malloc17h222349d1d8657e0bE, symObjAddr: 0x2218, symBinAddr: 0x410C8, symSize: 0x90 }
  - { offset: 0xC5865, size: 0x8, addend: 0x0, symName: __ZN5alloc5alloc5alloc17he57cb9efa374ce6eE, symObjAddr: 0x22A8, symBinAddr: 0x41158, symSize: 0x80 }
  - { offset: 0xC5D2C, size: 0x8, addend: 0x0, symName: '__ZN3std3sys12thread_local6native4lazy20Storage$LT$T$C$D$GT$10initialize17h6117edb473096db0E', symObjAddr: 0x410, symBinAddr: 0xEAA6C, symSize: 0x284 }
  - { offset: 0xC604C, size: 0x8, addend: 0x0, symName: '__ZN3std3sys12thread_local6native4lazy20Storage$LT$T$C$D$GT$11get_or_init17h3121c02cebe9035aE', symObjAddr: 0x694, symBinAddr: 0x3F950, symSize: 0xCC }
  - { offset: 0xC61BF, size: 0x8, addend: 0x0, symName: '__ZN3std6thread5local17LocalKey$LT$T$GT$4with17ha896184cd6adabcfE', symObjAddr: 0x820, symBinAddr: 0x3FADC, symSize: 0x40 }
  - { offset: 0xC6271, size: 0x8, addend: 0x0, symName: '__ZN3std6thread5local17LocalKey$LT$T$GT$8try_with17h1bcd23697fe8d44cE', symObjAddr: 0x860, symBinAddr: 0x3FB1C, symSize: 0xD0 }
  - { offset: 0xC67AC, size: 0x8, addend: 0x0, symName: __ZN4core4sync6atomic11AtomicUsize4load17h6c13312e954324c8E, symObjAddr: 0x18B4, symBinAddr: 0x409A4, symSize: 0x30 }
  - { offset: 0xC6903, size: 0x8, addend: 0x0, symName: '__ZN4core5slice4iter13Iter$LT$T$GT$3new17h6ecca5a18d4d9bb4E', symObjAddr: 0x1DAC, symBinAddr: 0x40C6C, symSize: 0x50 }
  - { offset: 0xC6AAE, size: 0x8, addend: 0x0, symName: '__ZN4core5slice4iter13Iter$LT$T$GT$3new17he1a914fddcdde844E', symObjAddr: 0x1DFC, symBinAddr: 0x40CBC, symSize: 0x50 }
  - { offset: 0xC6BFD, size: 0x8, addend: 0x0, symName: '__ZN4core6option15Option$LT$T$GT$4take17h850b35b1202124c3E', symObjAddr: 0x1E4C, symBinAddr: 0x40D0C, symSize: 0x2C }
  - { offset: 0xC6CE3, size: 0x8, addend: 0x0, symName: '__ZN4core6result19Result$LT$T$C$E$GT$14unwrap_or_else17he51b0a0083cffd6eE', symObjAddr: 0x1E78, symBinAddr: 0x40D38, symSize: 0x80 }
  - { offset: 0xC6D93, size: 0x8, addend: 0x0, symName: '__ZN4core6result19Result$LT$T$C$E$GT$3map17h2b50cb93d794eba4E', symObjAddr: 0x1EF8, symBinAddr: 0x40DB8, symSize: 0xA0 }
  - { offset: 0xC6E31, size: 0x8, addend: 0x0, symName: '__ZN4core6result19Result$LT$T$C$E$GT$6expect17hf92fc5d105f17aedE', symObjAddr: 0x1F98, symBinAddr: 0x40E58, symSize: 0x8C }
  - { offset: 0xC704B, size: 0x8, addend: 0x0, symName: '__ZN5alloc2rc11Rc$LT$T$GT$3new17hb770745400cec7ffE', symObjAddr: 0x2144, symBinAddr: 0x40FF4, symSize: 0xD4 }
  - { offset: 0xC75C7, size: 0x8, addend: 0x0, symName: __ZN5alloc5alloc6Global10alloc_impl17h1b0a8f0ca5660612E, symObjAddr: 0x2328, symBinAddr: 0x411D8, symSize: 0x20C }
  - { offset: 0xC81CC, size: 0x8, addend: 0x0, symName: '__ZN101_$LT$core..slice..iter..ChunksExactMut$LT$T$GT$$u20$as$u20$core..iter..traits..iterator..Iterator$GT$4next17h87ab7bea2f3bf873E', symObjAddr: 0x0, symBinAddr: 0x41B98, symSize: 0x118 }
  - { offset: 0xC83AC, size: 0x8, addend: 0x0, symName: '__ZN42_$LT$$RF$T$u20$as$u20$core..fmt..Debug$GT$3fmt17hfd4d6e56fdd02321E', symObjAddr: 0xC9C, symBinAddr: 0x42834, symSize: 0x30 }
  - { offset: 0xC853E, size: 0x8, addend: 0x0, symName: __ZN4core9panicking13assert_failed17hd8276cf0b4d11ebaE, symObjAddr: 0x1B18, symBinAddr: 0xEACF0, symSize: 0x3C }
  - { offset: 0xC8CA0, size: 0x8, addend: 0x0, symName: __ZN4core3ptr4read17ha01b89d9d6846f45E, symObjAddr: 0x1000, symBinAddr: 0x4294C, symSize: 0x1C }
  - { offset: 0xC8CEC, size: 0x8, addend: 0x0, symName: '__ZN4core3ptr9const_ptr33_$LT$impl$u20$$BP$const$u20$T$GT$7sub_ptr18precondition_check17hc40be139e6a6031aE', symObjAddr: 0x101C, symBinAddr: 0x42968, symSize: 0x40 }
  - { offset: 0xC8EA7, size: 0x8, addend: 0x0, symName: '__ZN101_$LT$core..slice..iter..ChunksExactMut$LT$T$GT$$u20$as$u20$core..iter..traits..iterator..Iterator$GT$4next17h87ab7bea2f3bf873E', symObjAddr: 0x0, symBinAddr: 0x41B98, symSize: 0x118 }
  - { offset: 0xC92E8, size: 0x8, addend: 0x0, symName: '__ZN4core5slice4iter95_$LT$impl$u20$core..iter..traits..collect..IntoIterator$u20$for$u20$$RF$mut$u20$$u5b$T$u5d$$GT$9into_iter17ha6bc1ee7b2de449aE', symObjAddr: 0x1A54, symBinAddr: 0x433A0, symSize: 0x50 }
  - { offset: 0xC9490, size: 0x8, addend: 0x0, symName: '__ZN91_$LT$core..slice..iter..Iter$LT$T$GT$$u20$as$u20$core..iter..traits..iterator..Iterator$GT$24__iterator_get_unchecked17h9a8278641e906cadE', symObjAddr: 0x21F8, symBinAddr: 0x43B08, symSize: 0x28 }
  - { offset: 0xC9541, size: 0x8, addend: 0x0, symName: '__ZN91_$LT$core..slice..iter..Iter$LT$T$GT$$u20$as$u20$core..iter..traits..iterator..Iterator$GT$9size_hint17hcb71cc0476cbf537E', symObjAddr: 0x2220, symBinAddr: 0x43B30, symSize: 0xC0 }
  - { offset: 0xC968F, size: 0x8, addend: 0x0, symName: '__ZN94_$LT$core..slice..iter..IterMut$LT$T$GT$$u20$as$u20$core..iter..traits..iterator..Iterator$GT$4next17h3c8b601e0931c288E', symObjAddr: 0x22E0, symBinAddr: 0x43BF0, symSize: 0xCC }
  - { offset: 0xC9853, size: 0x8, addend: 0x0, symName: '__ZN106_$LT$core..ops..range..Range$LT$usize$GT$$u20$as$u20$core..slice..index..SliceIndex$LT$$u5b$T$u5d$$GT$$GT$13get_unchecked18precondition_check17h4cb9718e78425335E', symObjAddr: 0x220, symBinAddr: 0x41DB8, symSize: 0x60 }
  - { offset: 0xC98A2, size: 0x8, addend: 0x0, symName: '__ZN106_$LT$core..ops..range..Range$LT$usize$GT$$u20$as$u20$core..slice..index..SliceIndex$LT$$u5b$T$u5d$$GT$$GT$17get_unchecked_mut18precondition_check17hb7e0753b83bc88acE', symObjAddr: 0x280, symBinAddr: 0x41E18, symSize: 0x60 }
  - { offset: 0xC9A0D, size: 0x8, addend: 0x0, symName: '__ZN110_$LT$core..ops..range..RangeFrom$LT$usize$GT$$u20$as$u20$core..slice..index..SliceIndex$LT$$u5b$T$u5d$$GT$$GT$5index17h8ba70679e1d12c59E', symObjAddr: 0x48C, symBinAddr: 0x42024, symSize: 0x90 }
  - { offset: 0xC9B90, size: 0x8, addend: 0x0, symName: '__ZN110_$LT$core..ops..range..RangeFrom$LT$usize$GT$$u20$as$u20$core..slice..index..SliceIndex$LT$$u5b$T$u5d$$GT$$GT$9index_mut17h39a0041833fa733aE', symObjAddr: 0x51C, symBinAddr: 0x420B4, symSize: 0xA8 }
  - { offset: 0xCA08D, size: 0x8, addend: 0x0, symName: '__ZN4core5slice29_$LT$impl$u20$$u5b$T$u5d$$GT$16chunks_exact_mut17hb891973f4788e9adE', symObjAddr: 0x162C, symBinAddr: 0x42F78, symSize: 0x114 }
  - { offset: 0xCA19D, size: 0x8, addend: 0x0, symName: '__ZN4core5slice29_$LT$impl$u20$$u5b$T$u5d$$GT$22split_at_mut_unchecked17hc3dd3da6df637aa3E', symObjAddr: 0x1740, symBinAddr: 0x4308C, symSize: 0xF8 }
  - { offset: 0xCA3EA, size: 0x8, addend: 0x0, symName: '__ZN4core5slice29_$LT$impl$u20$$u5b$T$u5d$$GT$22split_at_mut_unchecked18precondition_check17h3fded087f568ac27E', symObjAddr: 0x1838, symBinAddr: 0x43184, symSize: 0x40 }
  - { offset: 0xCA424, size: 0x8, addend: 0x0, symName: '__ZN4core5slice29_$LT$impl$u20$$u5b$T$u5d$$GT$4iter17hb92ecb61bb3976deE', symObjAddr: 0x1878, symBinAddr: 0x431C4, symSize: 0x28 }
  - { offset: 0xCA4EA, size: 0x8, addend: 0x0, symName: __ZN4core5slice3raw18from_raw_parts_mut18precondition_check17he846bd39107b254bE, symObjAddr: 0x18A0, symBinAddr: 0x431EC, symSize: 0x164 }
  - { offset: 0xCA6CB, size: 0x8, addend: 0x0, symName: '__ZN102_$LT$core..iter..adapters..zip..Zip$LT$A$C$B$GT$$u20$as$u20$core..iter..traits..iterator..Iterator$GT$24__iterator_get_unchecked17h1f3732a9f8d18993E', symObjAddr: 0x118, symBinAddr: 0x41CB0, symSize: 0x28 }
  - { offset: 0xCA71C, size: 0x8, addend: 0x0, symName: '__ZN102_$LT$core..iter..adapters..zip..Zip$LT$A$C$B$GT$$u20$as$u20$core..iter..traits..iterator..Iterator$GT$24__iterator_get_unchecked17h8330e1a06f589202E', symObjAddr: 0x140, symBinAddr: 0x41CD8, symSize: 0x28 }
  - { offset: 0xCA76D, size: 0x8, addend: 0x0, symName: '__ZN102_$LT$core..iter..adapters..zip..Zip$LT$A$C$B$GT$$u20$as$u20$core..iter..traits..iterator..Iterator$GT$24__iterator_get_unchecked17hecb0009de1090a49E', symObjAddr: 0x168, symBinAddr: 0x41D00, symSize: 0x28 }
  - { offset: 0xCA7BE, size: 0x8, addend: 0x0, symName: '__ZN102_$LT$core..iter..adapters..zip..Zip$LT$A$C$B$GT$$u20$as$u20$core..iter..traits..iterator..Iterator$GT$4next17hfb32e18917341002E', symObjAddr: 0x190, symBinAddr: 0x41D28, symSize: 0x24 }
  - { offset: 0xCA800, size: 0x8, addend: 0x0, symName: '__ZN102_$LT$core..iter..adapters..zip..Zip$LT$A$C$B$GT$$u20$as$u20$core..iter..traits..iterator..Iterator$GT$9size_hint17h5092ece7cc42ddf2E', symObjAddr: 0x1B4, symBinAddr: 0x41D4C, symSize: 0x24 }
  - { offset: 0xCA842, size: 0x8, addend: 0x0, symName: '__ZN102_$LT$core..iter..adapters..zip..Zip$LT$A$C$B$GT$$u20$as$u20$core..iter..traits..iterator..Iterator$GT$9size_hint17h5a0c5f25466f1a6dE', symObjAddr: 0x1D8, symBinAddr: 0x41D70, symSize: 0x24 }
  - { offset: 0xCA884, size: 0x8, addend: 0x0, symName: '__ZN102_$LT$core..iter..adapters..zip..Zip$LT$A$C$B$GT$$u20$as$u20$core..iter..traits..iterator..Iterator$GT$9size_hint17ha071edf46a651160E', symObjAddr: 0x1FC, symBinAddr: 0x41D94, symSize: 0x24 }
  - { offset: 0xCA8CD, size: 0x8, addend: 0x0, symName: '__ZN111_$LT$core..iter..adapters..zip..Zip$LT$A$C$B$GT$$u20$as$u20$core..iter..adapters..zip..ZipImpl$LT$A$C$B$GT$$GT$13get_unchecked17h9717b192ec60f102E', symObjAddr: 0x5C4, symBinAddr: 0x4215C, symSize: 0x90 }
  - { offset: 0xCA939, size: 0x8, addend: 0x0, symName: '__ZN111_$LT$core..iter..adapters..zip..Zip$LT$A$C$B$GT$$u20$as$u20$core..iter..adapters..zip..ZipImpl$LT$A$C$B$GT$$GT$13get_unchecked17ha0336c7619bf5d4dE', symObjAddr: 0x654, symBinAddr: 0x421EC, symSize: 0x9C }
  - { offset: 0xCA9A5, size: 0x8, addend: 0x0, symName: '__ZN111_$LT$core..iter..adapters..zip..Zip$LT$A$C$B$GT$$u20$as$u20$core..iter..adapters..zip..ZipImpl$LT$A$C$B$GT$$GT$13get_unchecked17he56a524df4cd239bE', symObjAddr: 0x6F0, symBinAddr: 0x42288, symSize: 0x7C }
  - { offset: 0xCAA20, size: 0x8, addend: 0x0, symName: '__ZN111_$LT$core..iter..adapters..zip..Zip$LT$A$C$B$GT$$u20$as$u20$core..iter..adapters..zip..ZipImpl$LT$A$C$B$GT$$GT$3new17h0f5bdb4ee1cd21d2E', symObjAddr: 0x76C, symBinAddr: 0x42304, symSize: 0xE8 }
  - { offset: 0xCAB26, size: 0x8, addend: 0x0, symName: '__ZN111_$LT$core..iter..adapters..zip..Zip$LT$A$C$B$GT$$u20$as$u20$core..iter..adapters..zip..ZipImpl$LT$A$C$B$GT$$GT$3new17h7b203b5149005a38E', symObjAddr: 0x854, symBinAddr: 0x423EC, symSize: 0xC4 }
  - { offset: 0xCAC2A, size: 0x8, addend: 0x0, symName: '__ZN111_$LT$core..iter..adapters..zip..Zip$LT$A$C$B$GT$$u20$as$u20$core..iter..adapters..zip..ZipImpl$LT$A$C$B$GT$$GT$3new17hce8820eaa0006a4cE', symObjAddr: 0x918, symBinAddr: 0x424B0, symSize: 0xE8 }
  - { offset: 0xCAD30, size: 0x8, addend: 0x0, symName: '__ZN111_$LT$core..iter..adapters..zip..Zip$LT$A$C$B$GT$$u20$as$u20$core..iter..adapters..zip..ZipImpl$LT$A$C$B$GT$$GT$3new17heb52ed6e0a6fff27E', symObjAddr: 0xA00, symBinAddr: 0x42598, symSize: 0xF0 }
  - { offset: 0xCAE36, size: 0x8, addend: 0x0, symName: '__ZN111_$LT$core..iter..adapters..zip..Zip$LT$A$C$B$GT$$u20$as$u20$core..iter..adapters..zip..ZipImpl$LT$A$C$B$GT$$GT$4next17h4a1adfefc5f60517E', symObjAddr: 0xAF0, symBinAddr: 0x42688, symSize: 0xD4 }
  - { offset: 0xCAE92, size: 0x8, addend: 0x0, symName: '__ZN111_$LT$core..iter..adapters..zip..Zip$LT$A$C$B$GT$$u20$as$u20$core..iter..adapters..zip..ZipImpl$LT$A$C$B$GT$$GT$9size_hint17h3a6b7737b5612fdeE', symObjAddr: 0xBC4, symBinAddr: 0x4275C, symSize: 0x48 }
  - { offset: 0xCAEF6, size: 0x8, addend: 0x0, symName: '__ZN111_$LT$core..iter..adapters..zip..Zip$LT$A$C$B$GT$$u20$as$u20$core..iter..adapters..zip..ZipImpl$LT$A$C$B$GT$$GT$9size_hint17h70162462e93c840bE', symObjAddr: 0xC0C, symBinAddr: 0x427A4, symSize: 0x48 }
  - { offset: 0xCAF5A, size: 0x8, addend: 0x0, symName: '__ZN111_$LT$core..iter..adapters..zip..Zip$LT$A$C$B$GT$$u20$as$u20$core..iter..adapters..zip..ZipImpl$LT$A$C$B$GT$$GT$9size_hint17hca0e09186cb6cf14E', symObjAddr: 0xC54, symBinAddr: 0x427EC, symSize: 0x48 }
  - { offset: 0xCB1FD, size: 0x8, addend: 0x0, symName: __ZN4core4iter8adapters3zip27TrustedRandomAccessNoCoerce4size17h3b62ead830c51d8aE, symObjAddr: 0x134C, symBinAddr: 0x42C98, symSize: 0x2C }
  - { offset: 0xCB237, size: 0x8, addend: 0x0, symName: __ZN4core4iter8adapters3zip27TrustedRandomAccessNoCoerce4size17h73b19f8c164f9c4dE, symObjAddr: 0x1378, symBinAddr: 0x42CC4, symSize: 0x2C }
  - { offset: 0xCB271, size: 0x8, addend: 0x0, symName: __ZN4core4iter8adapters3zip27TrustedRandomAccessNoCoerce4size17hef2500886e26b6f5E, symObjAddr: 0x13A4, symBinAddr: 0x42CF0, symSize: 0x2C }
  - { offset: 0xCB2AB, size: 0x8, addend: 0x0, symName: __ZN4core4iter8adapters3zip27TrustedRandomAccessNoCoerce4size17hf404c59b62c7adbeE, symObjAddr: 0x13D0, symBinAddr: 0x42D1C, symSize: 0x2C }
  - { offset: 0xCB2F4, size: 0x8, addend: 0x0, symName: '__ZN47_$LT$u32$u20$as$u20$core..iter..range..Step$GT$17forward_unchecked17hded6eb1a454df2e3E', symObjAddr: 0xCCC, symBinAddr: 0x42864, symSize: 0x54 }
  - { offset: 0xCB36F, size: 0x8, addend: 0x0, symName: '__ZN4core4iter5range101_$LT$impl$u20$core..iter..traits..iterator..Iterator$u20$for$u20$core..ops..range..Range$LT$A$GT$$GT$4next17h28cd3ea932186bf0E', symObjAddr: 0x105C, symBinAddr: 0x429A8, symSize: 0x24 }
  - { offset: 0xCB3B0, size: 0x8, addend: 0x0, symName: '__ZN89_$LT$core..ops..range..Range$LT$T$GT$$u20$as$u20$core..iter..range..RangeIteratorImpl$GT$9spec_next17hbd7513ab39f2c47bE', symObjAddr: 0x1E1C, symBinAddr: 0x4372C, symSize: 0x90 }
  - { offset: 0xCB446, size: 0x8, addend: 0x0, symName: __ZN4core4iter6traits8iterator8Iterator3zip17h2a7846e3c255f717E, symObjAddr: 0x1080, symBinAddr: 0x429CC, symSize: 0xB0 }
  - { offset: 0xCB4D3, size: 0x8, addend: 0x0, symName: __ZN4core4iter6traits8iterator8Iterator3zip17hbdea45f6e5d90245E, symObjAddr: 0x1130, symBinAddr: 0x42A7C, symSize: 0xBC }
  - { offset: 0xCB55F, size: 0x8, addend: 0x0, symName: __ZN4core4iter6traits8iterator8Iterator3zip17head40e62d56ed4d7E, symObjAddr: 0x11EC, symBinAddr: 0x42B38, symSize: 0xB0 }
  - { offset: 0xCB5EC, size: 0x8, addend: 0x0, symName: __ZN4core4iter6traits8iterator8Iterator3zip17heb6b9fa341dd8ea1E, symObjAddr: 0x129C, symBinAddr: 0x42BE8, symSize: 0xB0 }
  - { offset: 0xCB687, size: 0x8, addend: 0x0, symName: '__ZN63_$LT$I$u20$as$u20$core..iter..traits..collect..IntoIterator$GT$9into_iter17h08a082221ba28bb4E', symObjAddr: 0x1CD4, symBinAddr: 0x435E4, symSize: 0x14 }
  - { offset: 0xCB6C1, size: 0x8, addend: 0x0, symName: '__ZN63_$LT$I$u20$as$u20$core..iter..traits..collect..IntoIterator$GT$9into_iter17hcb4fde577260ea26E', symObjAddr: 0x1CE8, symBinAddr: 0x435F8, symSize: 0x30 }
  - { offset: 0xCB7B7, size: 0x8, addend: 0x0, symName: '__ZN49_$LT$$RF$T$u20$as$u20$core..ops..deref..Deref$GT$5deref17hb5b24d47c8bf1704E', symObjAddr: 0xD20, symBinAddr: 0x428B8, symSize: 0x20 }
  - { offset: 0xCBA9A, size: 0x8, addend: 0x0, symName: '__ZN4core3num21_$LT$impl$u20$u32$GT$13unchecked_add18precondition_check17h9e5dfb8e1c367b85E', symObjAddr: 0xFA4, symBinAddr: 0x42900, symSize: 0x4C }
  - { offset: 0xCBC47, size: 0x8, addend: 0x0, symName: __ZN4core10intrinsics11size_of_val17hb2bf565be19311c8E, symObjAddr: 0xD40, symBinAddr: 0x428D8, symSize: 0xC }
  - { offset: 0xCC2F4, size: 0x8, addend: 0x0, symName: __ZN4core3mem11size_of_val17hbcdae8ad3975dff3E, symObjAddr: 0xF88, symBinAddr: 0x428E4, symSize: 0x1C }
  - { offset: 0xCC3FE, size: 0x8, addend: 0x0, symName: '__ZN4core5array85_$LT$impl$u20$core..ops..index..Index$LT$I$GT$$u20$for$u20$$u5b$T$u3b$$u20$N$u5d$$GT$5index17h1d6853848ed9e677E', symObjAddr: 0x13FC, symBinAddr: 0x42D48, symSize: 0xBC }
  - { offset: 0xCC5B0, size: 0x8, addend: 0x0, symName: '__ZN4core5array85_$LT$impl$u20$core..ops..index..Index$LT$I$GT$$u20$for$u20$$u5b$T$u3b$$u20$N$u5d$$GT$5index17h27fc4ad504339974E', symObjAddr: 0x14B8, symBinAddr: 0x42E04, symSize: 0x50 }
  - { offset: 0xCC634, size: 0x8, addend: 0x0, symName: '__ZN4core5array88_$LT$impl$u20$core..ops..index..IndexMut$LT$I$GT$$u20$for$u20$$u5b$T$u3b$$u20$N$u5d$$GT$9index_mut17h65fdf1c2aeaf7921E', symObjAddr: 0x1508, symBinAddr: 0x42E54, symSize: 0x50 }
  - { offset: 0xCC6B1, size: 0x8, addend: 0x0, symName: '__ZN4core5array88_$LT$impl$u20$core..ops..index..IndexMut$LT$I$GT$$u20$for$u20$$u5b$T$u3b$$u20$N$u5d$$GT$9index_mut17h889fddffb23b3f6dE', symObjAddr: 0x1558, symBinAddr: 0x42EA4, symSize: 0x50 }
  - { offset: 0xCC73B, size: 0x8, addend: 0x0, symName: '__ZN4core5array8equality103_$LT$impl$u20$core..cmp..PartialEq$LT$$u5b$U$u3b$$u20$N$u5d$$GT$$u20$for$u20$$u5b$T$u3b$$u20$N$u5d$$GT$2eq17hdca9c96e380a9ab3E', symObjAddr: 0x15A8, symBinAddr: 0x42EF4, symSize: 0x2C }
  - { offset: 0xCC793, size: 0x8, addend: 0x0, symName: '__ZN69_$LT$T$u20$as$u20$core..array..equality..SpecArrayEq$LT$U$C$_$GT$$GT$7spec_eq17he0f1984e9e4a6fc1E', symObjAddr: 0x1D18, symBinAddr: 0x43628, symSize: 0x48 }
  - { offset: 0xCC7EC, size: 0x8, addend: 0x0, symName: '__ZN4core5array98_$LT$impl$u20$core..iter..traits..collect..IntoIterator$u20$for$u20$$RF$$u5b$T$u3b$$u20$N$u5d$$GT$9into_iter17h6a6e1d524a622308E', symObjAddr: 0x15D4, symBinAddr: 0x42F20, symSize: 0x58 }
  - { offset: 0xCC9FE, size: 0x8, addend: 0x0, symName: '__ZN50_$LT$T$u20$as$u20$core..convert..Into$LT$U$GT$$GT$4into17h2d68197f633608cfE', symObjAddr: 0x1B54, symBinAddr: 0x43464, symSize: 0xD0 }
  - { offset: 0xCCA84, size: 0x8, addend: 0x0, symName: '__ZN50_$LT$T$u20$as$u20$core..convert..Into$LT$U$GT$$GT$4into17h4b0ab62cc027cd40E', symObjAddr: 0x1C24, symBinAddr: 0x43534, symSize: 0x24 }
  - { offset: 0xCCAC8, size: 0x8, addend: 0x0, symName: '__ZN50_$LT$T$u20$as$u20$core..convert..Into$LT$U$GT$$GT$4into17h63b6e57f71864666E', symObjAddr: 0x1C48, symBinAddr: 0x43558, symSize: 0x24 }
  - { offset: 0xCCB0C, size: 0x8, addend: 0x0, symName: '__ZN50_$LT$T$u20$as$u20$core..convert..Into$LT$U$GT$$GT$4into17h66c6955a57b01190E', symObjAddr: 0x1C6C, symBinAddr: 0x4357C, symSize: 0xC }
  - { offset: 0xCCB3F, size: 0x8, addend: 0x0, symName: '__ZN50_$LT$T$u20$as$u20$core..convert..Into$LT$U$GT$$GT$4into17h66c6955a57b01190E', symObjAddr: 0x1C6C, symBinAddr: 0x4357C, symSize: 0xC }
  - { offset: 0xCCB70, size: 0x8, addend: 0x0, symName: '__ZN50_$LT$T$u20$as$u20$core..convert..Into$LT$U$GT$$GT$4into17hb53b1957e05bc764E', symObjAddr: 0x1C78, symBinAddr: 0x43588, symSize: 0x1C }
  - { offset: 0xCCBD4, size: 0x8, addend: 0x0, symName: '__ZN50_$LT$T$u20$as$u20$core..convert..Into$LT$U$GT$$GT$4into17hc9b3a17a75d68a88E', symObjAddr: 0x1C94, symBinAddr: 0x435A4, symSize: 0x24 }
  - { offset: 0xCCC18, size: 0x8, addend: 0x0, symName: '__ZN50_$LT$T$u20$as$u20$core..convert..Into$LT$U$GT$$GT$4into17he301f465b9955bdbE', symObjAddr: 0x1CB8, symBinAddr: 0x435C8, symSize: 0x1C }
  - { offset: 0xCCDEE, size: 0x8, addend: 0x0, symName: __ZN10ppv_lite867generic5dmap217ha13363aed39436f8E, symObjAddr: 0x2E0, symBinAddr: 0x41E78, symSize: 0x1AC }
  - { offset: 0xCCFA8, size: 0x8, addend: 0x0, symName: '__ZN76_$LT$ppv_lite86..generic..u32x4_generic$u20$as$u20$core..ops..arith..Add$GT$3add28_$u7b$$u7b$closure$u7d$$u7d$17hf35406a4d4194f15E', symObjAddr: 0x1D60, symBinAddr: 0x43670, symSize: 0x24 }
  - { offset: 0xCD060, size: 0x8, addend: 0x0, symName: '__ZN77_$LT$ppv_lite86..generic..u32x4_generic$u20$as$u20$core..ops..bit..BitXor$GT$6bitxor28_$u7b$$u7b$closure$u7d$$u7d$17h4db7c5b8380bd225E', symObjAddr: 0x1D84, symBinAddr: 0x43694, symSize: 0x30 }
  - { offset: 0xCD0E8, size: 0x8, addend: 0x0, symName: '__ZN80_$LT$ppv_lite86..generic..u32x4_generic$u20$as$u20$ppv_lite86..types..Swap64$GT$6swap6428_$u7b$$u7b$closure$u7d$$u7d$17hc33a57d3dbca7befE', symObjAddr: 0x1DB4, symBinAddr: 0x436C4, symSize: 0x28 }
  - { offset: 0xCD15A, size: 0x8, addend: 0x0, symName: '__ZN84_$LT$ppv_lite86..generic..u32x4_generic$u20$as$u20$ppv_lite86..types..StoreBytes$GT$14unsafe_read_le28_$u7b$$u7b$closure$u7d$$u7d$17h6a4c593216e10703E', symObjAddr: 0x1DDC, symBinAddr: 0x436EC, symSize: 0x20 }
  - { offset: 0xCD1A5, size: 0x8, addend: 0x0, symName: '__ZN84_$LT$ppv_lite86..generic..u32x4_generic$u20$as$u20$ppv_lite86..types..StoreBytes$GT$8write_le28_$u7b$$u7b$closure$u7d$$u7d$17h8bdddda9deaeb87fE', symObjAddr: 0x1DFC, symBinAddr: 0x4370C, symSize: 0x20 }
  - { offset: 0xCD260, size: 0x8, addend: 0x0, symName: '__ZN90_$LT$ppv_lite86..generic..u32x4_generic$u20$as$u20$ppv_lite86..types..RotateEachWord32$GT$24rotate_each_word_right1628_$u7b$$u7b$closure$u7d$$u7d$17h108956aa41a47e91E', symObjAddr: 0x2148, symBinAddr: 0x43A58, symSize: 0x2C }
  - { offset: 0xCD2D4, size: 0x8, addend: 0x0, symName: '__ZN90_$LT$ppv_lite86..generic..u32x4_generic$u20$as$u20$ppv_lite86..types..RotateEachWord32$GT$24rotate_each_word_right2028_$u7b$$u7b$closure$u7d$$u7d$17h0221c2842ccda436E', symObjAddr: 0x2174, symBinAddr: 0x43A84, symSize: 0x2C }
  - { offset: 0xCD348, size: 0x8, addend: 0x0, symName: '__ZN90_$LT$ppv_lite86..generic..u32x4_generic$u20$as$u20$ppv_lite86..types..RotateEachWord32$GT$24rotate_each_word_right2428_$u7b$$u7b$closure$u7d$$u7d$17h23c8fc441fb571ccE', symObjAddr: 0x21A0, symBinAddr: 0x43AB0, symSize: 0x2C }
  - { offset: 0xCD3BC, size: 0x8, addend: 0x0, symName: '__ZN90_$LT$ppv_lite86..generic..u32x4_generic$u20$as$u20$ppv_lite86..types..RotateEachWord32$GT$24rotate_each_word_right2528_$u7b$$u7b$closure$u7d$$u7d$17h83b7cab1adfbc7c5E', symObjAddr: 0x21CC, symBinAddr: 0x43ADC, symSize: 0x2C }
  - { offset: 0xCE2FA, size: 0x8, addend: 0x0, symName: '__ZN4core5slice4iter13Iter$LT$T$GT$3new17h4af2562c3ecc93ebE', symObjAddr: 0x1A04, symBinAddr: 0x43350, symSize: 0x50 }
  - { offset: 0xCE675, size: 0x8, addend: 0x0, symName: '__ZN8zerocopy9FromBytes9read_from28_$u7b$$u7b$closure$u7d$$u7d$17h460b201368712be8E', symObjAddr: 0x20F0, symBinAddr: 0x43A00, symSize: 0x58 }
  - { offset: 0xCE71A, size: 0x8, addend: 0x0, symName: __ZN8zerocopy9FromBytes9read_from17h08357a298fc9c40fE, symObjAddr: 0x20B0, symBinAddr: 0x439C0, symSize: 0x40 }
  - { offset: 0xCE855, size: 0x8, addend: 0x0, symName: __ZN8zerocopy7AsBytes8write_to17h0a2e9b84705b2b6dE, symObjAddr: 0x1FD0, symBinAddr: 0x438E0, symSize: 0xB0 }
  - { offset: 0xCE8F6, size: 0x8, addend: 0x0, symName: __ZN8zerocopy9ByteSlice6as_ptr17he1aab5a2a5c7cec1E, symObjAddr: 0x2080, symBinAddr: 0x43990, symSize: 0x30 }
  - { offset: 0xCE932, size: 0x8, addend: 0x0, symName: '__ZN4core6option15Option$LT$T$GT$3map17h2904bb40fb241da1E', symObjAddr: 0x1AA4, symBinAddr: 0x433F0, symSize: 0x74 }
  - { offset: 0xCE9E3, size: 0x8, addend: 0x0, symName: '__ZN8zerocopy16Ref$LT$B$C$T$GT$3new17h2a04273294802773E', symObjAddr: 0x1EAC, symBinAddr: 0x437BC, symSize: 0xEC }
  - { offset: 0xCEA81, size: 0x8, addend: 0x0, symName: '__ZN8zerocopy16Ref$LT$B$C$T$GT$4read17h5b8a45ae18522ed5E', symObjAddr: 0x1F98, symBinAddr: 0x438A8, symSize: 0x38 }
  - { offset: 0xCEF38, size: 0x8, addend: 0x0, symName: '__ZN97_$LT$rand_chacha..chacha..Array64$LT$T$GT$$u20$as$u20$core..convert..AsRef$LT$$u5b$T$u5d$$GT$$GT$6as_ref17h6d5e14fd2b31bc65E', symObjAddr: 0x27E4, symBinAddr: 0x440F4, symSize: 0x1C }
  - { offset: 0xCEF77, size: 0x8, addend: 0x0, symName: '__ZN97_$LT$rand_chacha..chacha..Array64$LT$T$GT$$u20$as$u20$core..convert..AsMut$LT$$u5b$T$u5d$$GT$$GT$6as_mut17had06ddc66f711defE', symObjAddr: 0x2800, symBinAddr: 0x44110, symSize: 0x1C }
  - { offset: 0xCEFB6, size: 0x8, addend: 0x0, symName: '__ZN80_$LT$rand_chacha..chacha..Array64$LT$T$GT$$u20$as$u20$core..default..Default$GT$7default17he8e8ea7d9ddb8870E', symObjAddr: 0x299C, symBinAddr: 0x442AC, symSize: 0x234 }
  - { offset: 0xCF511, size: 0x8, addend: 0x0, symName: '__ZN70_$LT$rand_chacha..chacha..ChaCha20Core$u20$as$u20$core..fmt..Debug$GT$3fmt17h02817c66ef2a6fd4E', symObjAddr: 0x2BD0, symBinAddr: 0x444E0, symSize: 0x44 }
  - { offset: 0xCF555, size: 0x8, addend: 0x0, symName: '__ZN84_$LT$rand_chacha..chacha..ChaCha20Core$u20$as$u20$rand_core..block..BlockRngCore$GT$8generate17h413199fece4ba9baE', symObjAddr: 0x2C14, symBinAddr: 0x44524, symSize: 0x84F0 }
  - { offset: 0xD6637, size: 0x8, addend: 0x0, symName: '__ZN76_$LT$rand_chacha..chacha..ChaCha20Core$u20$as$u20$rand_core..SeedableRng$GT$9from_seed17hc0a2691e387db5faE', symObjAddr: 0xB104, symBinAddr: 0x4CA14, symSize: 0x410 }
  - { offset: 0xD6ABF, size: 0x8, addend: 0x0, symName: '__ZN75_$LT$rand_chacha..chacha..ChaCha20Rng$u20$as$u20$rand_core..SeedableRng$GT$9from_seed17h6db13ec0c816b810E', symObjAddr: 0xB514, symBinAddr: 0x4CE24, symSize: 0x7C }
  - { offset: 0xD6B9D, size: 0x8, addend: 0x0, symName: '__ZN113_$LT$rand_chacha..chacha..ChaCha20Rng$u20$as$u20$core..convert..From$LT$rand_chacha..chacha..ChaCha20Core$GT$$GT$4from17hb61662070268acdcE', symObjAddr: 0xBDA8, symBinAddr: 0x4D6B8, symSize: 0x44 }
  - { offset: 0xD6BD5, size: 0x8, addend: 0x0, symName: '__ZN73_$LT$rand_chacha..chacha..ChaCha20Rng$u20$as$u20$core..cmp..PartialEq$GT$2eq17h8f59f5066dda60cfE', symObjAddr: 0xBDEC, symBinAddr: 0x4D6FC, symSize: 0x60 }
  - { offset: 0xD6C63, size: 0x8, addend: 0x0, symName: '__ZN128_$LT$rand_chacha..chacha..abstract20..ChaCha20Rng$u20$as$u20$core..convert..From$LT$$RF$rand_chacha..chacha..ChaCha20Rng$GT$$GT$4from17hb5fd9af44a783f82E', symObjAddr: 0xBE4C, symBinAddr: 0x4D75C, symSize: 0x74 }
  - { offset: 0xD6C9A, size: 0x8, addend: 0x0, symName: '__ZN11rand_chacha6chacha10abstract20138_$LT$impl$u20$core..convert..From$LT$$RF$rand_chacha..chacha..abstract20..ChaCha20Rng$GT$$u20$for$u20$rand_chacha..chacha..ChaCha20Rng$GT$4from17he54030487069ed1cE', symObjAddr: 0xBEC0, symBinAddr: 0x4D7D0, symSize: 0xA8 }
  - { offset: 0xD6CF1, size: 0x8, addend: 0x0, symName: '__ZN85_$LT$rand_chacha..chacha..abstract20..ChaCha20Rng$u20$as$u20$core..cmp..PartialEq$GT$2eq17h4b1d1bb453080507E', symObjAddr: 0xBF68, symBinAddr: 0x4D878, symSize: 0xB4 }
  - { offset: 0xD6D6A, size: 0x8, addend: 0x0, symName: '__ZN70_$LT$rand_chacha..chacha..ChaCha12Core$u20$as$u20$core..fmt..Debug$GT$3fmt17hf3a19057bd95e59bE', symObjAddr: 0xC01C, symBinAddr: 0x4D92C, symSize: 0x44 }
  - { offset: 0xD6DAE, size: 0x8, addend: 0x0, symName: '__ZN84_$LT$rand_chacha..chacha..ChaCha12Core$u20$as$u20$rand_core..block..BlockRngCore$GT$8generate17h2fe5a2d280b1b603E', symObjAddr: 0xC060, symBinAddr: 0x4D970, symSize: 0x84F0 }
  - { offset: 0xDDE90, size: 0x8, addend: 0x0, symName: '__ZN76_$LT$rand_chacha..chacha..ChaCha12Core$u20$as$u20$rand_core..SeedableRng$GT$9from_seed17hb9e6691631fd46f5E', symObjAddr: 0x14550, symBinAddr: 0x55E60, symSize: 0x410 }
  - { offset: 0xDE318, size: 0x8, addend: 0x0, symName: '__ZN75_$LT$rand_chacha..chacha..ChaCha12Rng$u20$as$u20$rand_core..SeedableRng$GT$9from_seed17h00c6b05a66b4b0beE', symObjAddr: 0x14960, symBinAddr: 0x56270, symSize: 0x7C }
  - { offset: 0xDE3F6, size: 0x8, addend: 0x0, symName: '__ZN113_$LT$rand_chacha..chacha..ChaCha12Rng$u20$as$u20$core..convert..From$LT$rand_chacha..chacha..ChaCha12Core$GT$$GT$4from17h0baf61202b0ecc29E', symObjAddr: 0x151F4, symBinAddr: 0x56A80, symSize: 0x44 }
  - { offset: 0xDE42E, size: 0x8, addend: 0x0, symName: '__ZN73_$LT$rand_chacha..chacha..ChaCha12Rng$u20$as$u20$core..cmp..PartialEq$GT$2eq17hd753a9aa98645ef4E', symObjAddr: 0x15238, symBinAddr: 0x56AC4, symSize: 0x60 }
  - { offset: 0xDE4BC, size: 0x8, addend: 0x0, symName: '__ZN128_$LT$rand_chacha..chacha..abstract12..ChaCha12Rng$u20$as$u20$core..convert..From$LT$$RF$rand_chacha..chacha..ChaCha12Rng$GT$$GT$4from17h9e3bd10673a6d2d6E', symObjAddr: 0x15298, symBinAddr: 0x56B24, symSize: 0x74 }
  - { offset: 0xDE4F3, size: 0x8, addend: 0x0, symName: '__ZN11rand_chacha6chacha10abstract12138_$LT$impl$u20$core..convert..From$LT$$RF$rand_chacha..chacha..abstract12..ChaCha12Rng$GT$$u20$for$u20$rand_chacha..chacha..ChaCha12Rng$GT$4from17hd1931dbb5d3b59adE', symObjAddr: 0x1530C, symBinAddr: 0x56B98, symSize: 0xA8 }
  - { offset: 0xDE57C, size: 0x8, addend: 0x0, symName: '__ZN69_$LT$rand_chacha..chacha..ChaCha8Core$u20$as$u20$core..fmt..Debug$GT$3fmt17h937ee2399a5ebe05E', symObjAddr: 0x15468, symBinAddr: 0x56C40, symSize: 0x44 }
  - { offset: 0xDE5C0, size: 0x8, addend: 0x0, symName: '__ZN83_$LT$rand_chacha..chacha..ChaCha8Core$u20$as$u20$rand_core..block..BlockRngCore$GT$8generate17hc9d069a3e4be6752E', symObjAddr: 0x154AC, symBinAddr: 0x56C84, symSize: 0x84F0 }
  - { offset: 0xE56A2, size: 0x8, addend: 0x0, symName: '__ZN75_$LT$rand_chacha..chacha..ChaCha8Core$u20$as$u20$rand_core..SeedableRng$GT$9from_seed17h1e6dd7360c5f60cbE', symObjAddr: 0x1D99C, symBinAddr: 0x5F174, symSize: 0x410 }
  - { offset: 0xE5B2A, size: 0x8, addend: 0x0, symName: '__ZN74_$LT$rand_chacha..chacha..ChaCha8Rng$u20$as$u20$rand_core..SeedableRng$GT$9from_seed17h2d5533a25da1e63aE', symObjAddr: 0x1DDAC, symBinAddr: 0x5F584, symSize: 0x7C }
  - { offset: 0xE5C08, size: 0x8, addend: 0x0, symName: '__ZN111_$LT$rand_chacha..chacha..ChaCha8Rng$u20$as$u20$core..convert..From$LT$rand_chacha..chacha..ChaCha8Core$GT$$GT$4from17h5b85233fac8b9c22E', symObjAddr: 0x1E640, symBinAddr: 0x5FD94, symSize: 0x44 }
  - { offset: 0xE5C40, size: 0x8, addend: 0x0, symName: '__ZN72_$LT$rand_chacha..chacha..ChaCha8Rng$u20$as$u20$core..cmp..PartialEq$GT$2eq17h1d83afdf3d3f3264E', symObjAddr: 0x1E684, symBinAddr: 0x5FDD8, symSize: 0x60 }
  - { offset: 0xE5CCE, size: 0x8, addend: 0x0, symName: '__ZN125_$LT$rand_chacha..chacha..abstract8..ChaCha8Rng$u20$as$u20$core..convert..From$LT$$RF$rand_chacha..chacha..ChaCha8Rng$GT$$GT$4from17h16bb546aab847a21E', symObjAddr: 0x1E6E4, symBinAddr: 0x5FE38, symSize: 0x74 }
  - { offset: 0xE5D05, size: 0x8, addend: 0x0, symName: '__ZN11rand_chacha6chacha9abstract8135_$LT$impl$u20$core..convert..From$LT$$RF$rand_chacha..chacha..abstract8..ChaCha8Rng$GT$$u20$for$u20$rand_chacha..chacha..ChaCha8Rng$GT$4from17h0b0da3bc46147ac4E', symObjAddr: 0x1E758, symBinAddr: 0x5FEAC, symSize: 0xA8 }
  - { offset: 0xE5E8C, size: 0x8, addend: 0x0, symName: __ZN11rand_chacha4guts10read_u32le17hf71f0b2c8a359634E, symObjAddr: 0x281C, symBinAddr: 0x4412C, symSize: 0x180 }
  - { offset: 0xE6509, size: 0x8, addend: 0x0, symName: '__ZN9rand_core5block17BlockRng$LT$R$GT$16generate_and_set17h03fa7edd3a82b988E', symObjAddr: 0x23AC, symBinAddr: 0x43CBC, symSize: 0x78 }
  - { offset: 0xE6554, size: 0x8, addend: 0x0, symName: '__ZN9rand_core5block17BlockRng$LT$R$GT$16generate_and_set17h33e06de5d21f4300E', symObjAddr: 0x2424, symBinAddr: 0x43D34, symSize: 0x78 }
  - { offset: 0xE659F, size: 0x8, addend: 0x0, symName: '__ZN9rand_core5block17BlockRng$LT$R$GT$16generate_and_set17h73b91b3123329b9dE', symObjAddr: 0x249C, symBinAddr: 0x43DAC, symSize: 0x78 }
  - { offset: 0xE65DC, size: 0x8, addend: 0x0, symName: '__ZN9rand_core5block17BlockRng$LT$R$GT$3new17h2031cc00c5161634E', symObjAddr: 0x2514, symBinAddr: 0x43E24, symSize: 0xF0 }
  - { offset: 0xE6621, size: 0x8, addend: 0x0, symName: '__ZN9rand_core5block17BlockRng$LT$R$GT$3new17h5b688c52cb790b2dE', symObjAddr: 0x2604, symBinAddr: 0x43F14, symSize: 0xF0 }
  - { offset: 0xE6666, size: 0x8, addend: 0x0, symName: '__ZN9rand_core5block17BlockRng$LT$R$GT$3new17hfdbfdfcbb50dd5a3E', symObjAddr: 0x26F4, symBinAddr: 0x44004, symSize: 0xF0 }
  - { offset: 0xE68A6, size: 0x8, addend: 0x0, symName: __ZN11rand_chacha6chacha11ChaCha20Rng12get_word_pos17he73a4b364c7d914eE, symObjAddr: 0xB590, symBinAddr: 0x4CEA0, symSize: 0x1EC }
  - { offset: 0xE6B24, size: 0x8, addend: 0x0, symName: __ZN11rand_chacha6chacha11ChaCha20Rng12set_word_pos17h0dbd0f98988596dcE, symObjAddr: 0xB77C, symBinAddr: 0x4D08C, symSize: 0x154 }
  - { offset: 0xE6CDF, size: 0x8, addend: 0x0, symName: __ZN11rand_chacha6chacha11ChaCha20Rng10set_stream17h02707eb629417e82E, symObjAddr: 0xB8D0, symBinAddr: 0x4D1E0, symSize: 0x130 }
  - { offset: 0xE6EB2, size: 0x8, addend: 0x0, symName: __ZN11rand_chacha6chacha11ChaCha20Rng10get_stream17h9882bfe3b85a7829E, symObjAddr: 0xBA00, symBinAddr: 0x4D310, symSize: 0x84 }
  - { offset: 0xE7006, size: 0x8, addend: 0x0, symName: __ZN11rand_chacha6chacha11ChaCha20Rng8get_seed17h2dd5d92b9cb52d95E, symObjAddr: 0xBA84, symBinAddr: 0x4D394, symSize: 0x324 }
  - { offset: 0xE7385, size: 0x8, addend: 0x0, symName: __ZN11rand_chacha6chacha11ChaCha12Rng12get_word_pos17he3a8e67c75ef2843E, symObjAddr: 0x149DC, symBinAddr: 0x562EC, symSize: 0x1EC }
  - { offset: 0xE75E3, size: 0x8, addend: 0x0, symName: __ZN11rand_chacha6chacha11ChaCha12Rng12set_word_pos17h800543118bec3fefE, symObjAddr: 0x14BC8, symBinAddr: 0x564D8, symSize: 0x154 }
  - { offset: 0xE777E, size: 0x8, addend: 0x0, symName: __ZN11rand_chacha6chacha11ChaCha12Rng10set_stream17h2f2858407de59552E, symObjAddr: 0x14D1C, symBinAddr: 0x5662C, symSize: 0x130 }
  - { offset: 0xE793D, size: 0x8, addend: 0x0, symName: __ZN11rand_chacha6chacha11ChaCha12Rng8get_seed17h6e266807db34597bE, symObjAddr: 0x14ED0, symBinAddr: 0x5675C, symSize: 0x324 }
  - { offset: 0xE7CBC, size: 0x8, addend: 0x0, symName: __ZN11rand_chacha6chacha10ChaCha8Rng12get_word_pos17h8a139f858bfb29daE, symObjAddr: 0x1DE28, symBinAddr: 0x5F600, symSize: 0x1EC }
  - { offset: 0xE7F1A, size: 0x8, addend: 0x0, symName: __ZN11rand_chacha6chacha10ChaCha8Rng12set_word_pos17hb26d4e168b4251acE, symObjAddr: 0x1E014, symBinAddr: 0x5F7EC, symSize: 0x154 }
  - { offset: 0xE80B5, size: 0x8, addend: 0x0, symName: __ZN11rand_chacha6chacha10ChaCha8Rng10set_stream17hd07daffd72785286E, symObjAddr: 0x1E168, symBinAddr: 0x5F940, symSize: 0x130 }
  - { offset: 0xE8274, size: 0x8, addend: 0x0, symName: __ZN11rand_chacha6chacha10ChaCha8Rng8get_seed17h46b668d84d72fed5E, symObjAddr: 0x1E31C, symBinAddr: 0x5FA70, symSize: 0x324 }
  - { offset: 0xE88B6, size: 0x8, addend: 0x0, symName: __ZN4core3fmt9Arguments9new_const17haf4b811b85b3fabdE, symObjAddr: 0x0, symBinAddr: 0x5FF54, symSize: 0x48 }
  - { offset: 0xE8E53, size: 0x8, addend: 0x0, symName: __ZN4core3fmt9Arguments9new_const17haf4b811b85b3fabdE, symObjAddr: 0x0, symBinAddr: 0x5FF54, symSize: 0x48 }
  - { offset: 0xE8E84, size: 0x8, addend: 0x0, symName: '__ZN63_$LT$byteorder..BigEndian$u20$as$u20$core..default..Default$GT$7default17h944c60c06176da85E', symObjAddr: 0x48, symBinAddr: 0x5FF9C, symSize: 0x30 }
  - { offset: 0xE8EA6, size: 0x8, addend: 0x0, symName: '__ZN66_$LT$byteorder..LittleEndian$u20$as$u20$core..default..Default$GT$7default17ha437859fbcd74587E', symObjAddr: 0x78, symBinAddr: 0x5FFCC, symSize: 0x30 }
  - { offset: 0xE8EE1, size: 0x8, addend: 0x0, symName: '__ZN106_$LT$core..ops..range..Range$LT$usize$GT$$u20$as$u20$core..slice..index..SliceIndex$LT$$u5b$T$u5d$$GT$$GT$9index_mut17h448b3d91e84f6ea3E', symObjAddr: 0x0, symBinAddr: 0x5FFFC, symSize: 0xC8 }
  - { offset: 0xE8F85, size: 0x8, addend: 0x0, symName: '__ZN9rand_core5error5Error4code28_$u7b$$u7b$closure$u7d$$u7d$17hb5e25f7cb69769deE', symObjAddr: 0x2500, symBinAddr: 0x61C18, symSize: 0x18 }
  - { offset: 0xE8FC6, size: 0x8, addend: 0x0, symName: '__ZN60_$LT$rand_core..error..Error$u20$as$u20$core..fmt..Debug$GT$3fmt17hb6b6d89f991485e5E', symObjAddr: 0x2518, symBinAddr: 0x61C30, symSize: 0x84 }
  - { offset: 0xE908E, size: 0x8, addend: 0x0, symName: '__ZN62_$LT$rand_core..error..Error$u20$as$u20$core..fmt..Display$GT$3fmt17hb111ed4960bc4c29E', symObjAddr: 0x259C, symBinAddr: 0x61CB4, symSize: 0x84 }
  - { offset: 0xE9156, size: 0x8, addend: 0x0, symName: '__ZN94_$LT$rand_core..error..Error$u20$as$u20$core..convert..From$LT$getrandom..error..Error$GT$$GT$4from17h53811a1fad02b57dE', symObjAddr: 0x2620, symBinAddr: 0x61D38, symSize: 0x64 }
  - { offset: 0xE91AA, size: 0x8, addend: 0x0, symName: '__ZN62_$LT$rand_core..error..Error$u20$as$u20$core..error..Error$GT$6source17h7d9507ad05cc9b6cE', symObjAddr: 0x2684, symBinAddr: 0x61D9C, symSize: 0x34 }
  - { offset: 0xE91DF, size: 0x8, addend: 0x0, symName: '__ZN9rand_core5error102_$LT$impl$u20$core..convert..From$LT$rand_core..error..Error$GT$$u20$for$u20$std..io..error..Error$GT$4from17h6d0effd91bc326a2E', symObjAddr: 0x26B8, symBinAddr: 0x61DD0, symSize: 0x104 }
  - { offset: 0xE922A, size: 0x8, addend: 0x0, symName: '__ZN66_$LT$rand_core..error..ErrorCode$u20$as$u20$core..fmt..Display$GT$3fmt17h20e430d01f74a71aE', symObjAddr: 0x27BC, symBinAddr: 0x61ED4, symSize: 0x84 }
  - { offset: 0xE92F9, size: 0x8, addend: 0x0, symName: '__ZN52_$LT$u32$u20$as$u20$rand_core..impls..Observable$GT$11to_le_bytes17h868cc95710a69865E', symObjAddr: 0x2840, symBinAddr: 0x61F58, symSize: 0x30 }
  - { offset: 0xE9327, size: 0x8, addend: 0x0, symName: '__ZN52_$LT$u32$u20$as$u20$rand_core..impls..Observable$GT$13as_byte_slice17h97c13f93fbcfb9c9E', symObjAddr: 0x2870, symBinAddr: 0x61F88, symSize: 0x70 }
  - { offset: 0xE9392, size: 0x8, addend: 0x0, symName: '__ZN52_$LT$u64$u20$as$u20$rand_core..impls..Observable$GT$11to_le_bytes17hac06a77bb4096813E', symObjAddr: 0x28E0, symBinAddr: 0x61FF8, symSize: 0x30 }
  - { offset: 0xE93C0, size: 0x8, addend: 0x0, symName: '__ZN52_$LT$u64$u20$as$u20$rand_core..impls..Observable$GT$13as_byte_slice17h8e959cf4ad106657E', symObjAddr: 0x2910, symBinAddr: 0x62028, symSize: 0x70 }
  - { offset: 0xE9425, size: 0x8, addend: 0x0, symName: __ZN9rand_core5impls15fill_via_chunks17hba5bd7c65eaab659E, symObjAddr: 0x2980, symBinAddr: 0x62098, symSize: 0x268 }
  - { offset: 0xE97B3, size: 0x8, addend: 0x0, symName: __ZN9rand_core5impls15fill_via_chunks17hda9a040c1af73385E, symObjAddr: 0x2BE8, symBinAddr: 0x62300, symSize: 0x268 }
  - { offset: 0xE9B41, size: 0x8, addend: 0x0, symName: __ZN9rand_core5impls19fill_via_u32_chunks17h0c10a6ae21ca8b36E, symObjAddr: 0x2E50, symBinAddr: 0x62568, symSize: 0x34 }
  - { offset: 0xE9B7E, size: 0x8, addend: 0x0, symName: __ZN9rand_core5impls19fill_via_u64_chunks17hd979b71b0b267e3eE, symObjAddr: 0x2E84, symBinAddr: 0x6259C, symSize: 0x34 }
  - { offset: 0xE9BBB, size: 0x8, addend: 0x0, symName: __ZN9rand_core5impls17next_u32_via_fill17h4704afc9f305e16fE, symObjAddr: 0x2EB8, symBinAddr: 0x625D0, symSize: 0x4C }
  - { offset: 0xE9C11, size: 0x8, addend: 0x0, symName: __ZN9rand_core5impls17next_u64_via_fill17hf643e3ba08b9eed2E, symObjAddr: 0x2F04, symBinAddr: 0x6261C, symSize: 0x4C }
  - { offset: 0xE9C74, size: 0x8, addend: 0x0, symName: '__ZN59_$LT$rand_core..os..OsRng$u20$as$u20$rand_core..RngCore$GT$8next_u3217he5e30dd990ffe8d5E', symObjAddr: 0x2F50, symBinAddr: 0x62668, symSize: 0x24 }
  - { offset: 0xE9CA2, size: 0x8, addend: 0x0, symName: '__ZN59_$LT$rand_core..os..OsRng$u20$as$u20$rand_core..RngCore$GT$8next_u6417h7b9520d39198324cE', symObjAddr: 0x2F74, symBinAddr: 0x6268C, symSize: 0x24 }
  - { offset: 0xE9CD0, size: 0x8, addend: 0x0, symName: '__ZN59_$LT$rand_core..os..OsRng$u20$as$u20$rand_core..RngCore$GT$10fill_bytes17h19418382694ce232E', symObjAddr: 0x2F98, symBinAddr: 0x626B0, symSize: 0x100 }
  - { offset: 0xE9DA6, size: 0x8, addend: 0x0, symName: '__ZN59_$LT$rand_core..os..OsRng$u20$as$u20$rand_core..RngCore$GT$14try_fill_bytes17hca290df1e07769b1E', symObjAddr: 0x3098, symBinAddr: 0x627B0, symSize: 0x84 }
  - { offset: 0xE9E36, size: 0x8, addend: 0x0, symName: __ZN9rand_core11SeedableRng13seed_from_u645pcg3217hba3c869e997207baE, symObjAddr: 0x311C, symBinAddr: 0x62834, symSize: 0xD0 }
  - { offset: 0xE9F66, size: 0x8, addend: 0x0, symName: '__ZN60_$LT$dyn$u20$rand_core..RngCore$u20$as$u20$std..io..Read$GT$4read17h89baaeeb06ee288dE', symObjAddr: 0x31EC, symBinAddr: 0x62904, symSize: 0xAC }
  - { offset: 0xEA05F, size: 0x8, addend: 0x0, symName: __ZN9getrandom16getrandom_uninit17h17706588c7bac223E, symObjAddr: 0x22B8, symBinAddr: 0x619D0, symSize: 0xA4 }
  - { offset: 0xEA0CD, size: 0x8, addend: 0x0, symName: __ZN9getrandom9getrandom17hccf98e1c222c96ddE, symObjAddr: 0x235C, symBinAddr: 0x61A74, symSize: 0x98 }
  - { offset: 0xEA195, size: 0x8, addend: 0x0, symName: '__ZN4core3num7nonzero95_$LT$impl$u20$core..convert..From$LT$core..num..nonzero..NonZero$LT$T$GT$$GT$$u20$for$u20$T$GT$4from17h91ee95e54719fe14E', symObjAddr: 0x1494, symBinAddr: 0x60C74, symSize: 0x10 }
  - { offset: 0xEA1D6, size: 0x8, addend: 0x0, symName: '__ZN75_$LT$core..num..nonzero..NonZero$LT$T$GT$$u20$as$u20$core..fmt..Display$GT$3fmt17h66fd3f01985cc9f2E', symObjAddr: 0x209C, symBinAddr: 0x617B4, symSize: 0x3C }
  - { offset: 0xEA551, size: 0x8, addend: 0x0, symName: '__ZN4core3num21_$LT$impl$u20$u32$GT$11to_le_bytes17h75d1b75bae5e4309E', symObjAddr: 0x1424, symBinAddr: 0x60C1C, symSize: 0x18 }
  - { offset: 0xEA5D3, size: 0x8, addend: 0x0, symName: '__ZN4core3num21_$LT$impl$u20$u32$GT$13from_le_bytes17h6248a26b8af7926cE', symObjAddr: 0x143C, symBinAddr: 0x60C34, symSize: 0x20 }
  - { offset: 0xEA686, size: 0x8, addend: 0x0, symName: '__ZN4core3num21_$LT$impl$u20$u64$GT$13from_le_bytes17h5e4010a769c25ae6E', symObjAddr: 0x1474, symBinAddr: 0x60C54, symSize: 0x20 }
  - { offset: 0xEABC0, size: 0x8, addend: 0x0, symName: __ZN4core3cmp3Ord3min17h307a79f04d063832E, symObjAddr: 0x10B0, symBinAddr: 0x60AB8, symSize: 0x24 }
  - { offset: 0xEAC0B, size: 0x8, addend: 0x0, symName: __ZN4core3cmp3min17h0c459e85e924fcb5E, symObjAddr: 0x10D4, symBinAddr: 0x60ADC, symSize: 0x24 }
  - { offset: 0xEAC55, size: 0x8, addend: 0x0, symName: __ZN4core3cmp6min_by17hfa62bda014f805ceE, symObjAddr: 0x115C, symBinAddr: 0x60B00, symSize: 0xC8 }
  - { offset: 0xEB046, size: 0x8, addend: 0x0, symName: '__ZN4core3ptr8non_null16NonNull$LT$T$GT$13new_unchecked18precondition_check17h080cebfa81beb73bE', symObjAddr: 0x16B4, symBinAddr: 0x60E58, symSize: 0x3C }
  - { offset: 0xEB86B, size: 0x8, addend: 0x0, symName: '__ZN4core3ptr118drop_in_place$LT$alloc..boxed..Box$LT$dyn$u20$core..error..Error$u2b$core..marker..Sync$u2b$core..marker..Send$GT$$GT$17he835f13e0080726dE', symObjAddr: 0x14D0, symBinAddr: 0x60C84, symSize: 0x80 }
  - { offset: 0xEB8A3, size: 0x8, addend: 0x0, symName: __ZN4core3ptr13read_volatile18precondition_check17ha6e24f2d6fadf01aE, symObjAddr: 0x1550, symBinAddr: 0x60D04, symSize: 0xEC }
  - { offset: 0xEBA0E, size: 0x8, addend: 0x0, symName: '__ZN4core3ptr44drop_in_place$LT$rand_core..error..Error$GT$17h783c9b7b2bcf4be3E', symObjAddr: 0x164C, symBinAddr: 0x60DF0, symSize: 0x24 }
  - { offset: 0xEBA40, size: 0x8, addend: 0x0, symName: '__ZN4core3ptr83drop_in_place$LT$core..result..Result$LT$$LP$$RP$$C$rand_core..error..Error$GT$$GT$17h7d0125156c41fcd3E', symObjAddr: 0x1670, symBinAddr: 0x60E14, symSize: 0x44 }
  - { offset: 0xEBA72, size: 0x8, addend: 0x0, symName: '__ZN4core3ptr93drop_in_place$LT$dyn$u20$core..error..Error$u2b$core..marker..Sync$u2b$core..marker..Send$GT$17hd99b63019e100694E', symObjAddr: 0x16F0, symBinAddr: 0x60E94, symSize: 0x48 }
  - { offset: 0xEC1A8, size: 0x8, addend: 0x0, symName: '__ZN106_$LT$core..ops..range..Range$LT$usize$GT$$u20$as$u20$core..slice..index..SliceIndex$LT$$u5b$T$u5d$$GT$$GT$9index_mut17h448b3d91e84f6ea3E', symObjAddr: 0x0, symBinAddr: 0x5FFFC, symSize: 0xC8 }
  - { offset: 0xEC3B3, size: 0x8, addend: 0x0, symName: '__ZN108_$LT$core..ops..range..RangeTo$LT$usize$GT$$u20$as$u20$core..slice..index..SliceIndex$LT$$u5b$T$u5d$$GT$$GT$9index_mut17haf4e4de1db7737faE', symObjAddr: 0xC8, symBinAddr: 0x600C4, symSize: 0x54 }
  - { offset: 0xEC7D8, size: 0x8, addend: 0x0, symName: '__ZN4core5slice29_$LT$impl$u20$$u5b$T$u5d$$GT$15copy_from_slice17h1711c274b99c504dE', symObjAddr: 0x1808, symBinAddr: 0x60FAC, symSize: 0xA4 }
  - { offset: 0xEC8AD, size: 0x8, addend: 0x0, symName: '__ZN4core5slice29_$LT$impl$u20$$u5b$T$u5d$$GT$8is_empty17h8c4f15f377b75595E', symObjAddr: 0x18AC, symBinAddr: 0x61050, symSize: 0x1C }
  - { offset: 0xEC8EC, size: 0x8, addend: 0x0, symName: __ZN4core5slice3raw14from_raw_parts17h34cb1718dfb77133E, symObjAddr: 0x18C8, symBinAddr: 0x6106C, symSize: 0x50 }
  - { offset: 0xEC939, size: 0x8, addend: 0x0, symName: __ZN4core5slice3raw14from_raw_parts18precondition_check17hc0efd9b77e2d5a98E, symObjAddr: 0x1918, symBinAddr: 0x610BC, symSize: 0x164 }
  - { offset: 0xECB0E, size: 0x8, addend: 0x0, symName: '__ZN153_$LT$core..result..Result$LT$T$C$F$GT$$u20$as$u20$core..ops..try_trait..FromResidual$LT$core..result..Result$LT$core..convert..Infallible$C$E$GT$$GT$$GT$13from_residual17h5806077d165f3d85E', symObjAddr: 0x1A8, symBinAddr: 0x601A4, symSize: 0x48 }
  - { offset: 0xECB7C, size: 0x8, addend: 0x0, symName: '__ZN153_$LT$core..result..Result$LT$T$C$F$GT$$u20$as$u20$core..ops..try_trait..FromResidual$LT$core..result..Result$LT$core..convert..Infallible$C$E$GT$$GT$$GT$13from_residual17h819343e38368ac63E', symObjAddr: 0x1F0, symBinAddr: 0x601EC, symSize: 0x38 }
  - { offset: 0xECBE9, size: 0x8, addend: 0x0, symName: '__ZN153_$LT$core..result..Result$LT$T$C$F$GT$$u20$as$u20$core..ops..try_trait..FromResidual$LT$core..result..Result$LT$core..convert..Infallible$C$E$GT$$GT$$GT$13from_residual17h8b67451ff9a30197E', symObjAddr: 0x228, symBinAddr: 0x60224, symSize: 0x24 }
  - { offset: 0xECC56, size: 0x8, addend: 0x0, symName: '__ZN153_$LT$core..result..Result$LT$T$C$F$GT$$u20$as$u20$core..ops..try_trait..FromResidual$LT$core..result..Result$LT$core..convert..Infallible$C$E$GT$$GT$$GT$13from_residual17hdc4e6ec10b5a7470E', symObjAddr: 0x24C, symBinAddr: 0x60248, symSize: 0x24 }
  - { offset: 0xECF97, size: 0x8, addend: 0x0, symName: '__ZN79_$LT$core..result..Result$LT$T$C$E$GT$$u20$as$u20$core..ops..try_trait..Try$GT$6branch17h24feedcfd1ec6fe2E', symObjAddr: 0x20D8, symBinAddr: 0x617F0, symSize: 0x48 }
  - { offset: 0xED019, size: 0x8, addend: 0x0, symName: '__ZN79_$LT$core..result..Result$LT$T$C$E$GT$$u20$as$u20$core..ops..try_trait..Try$GT$6branch17h300650ad4846fa80E', symObjAddr: 0x2120, symBinAddr: 0x61838, symSize: 0x64 }
  - { offset: 0xED09D, size: 0x8, addend: 0x0, symName: '__ZN79_$LT$core..result..Result$LT$T$C$E$GT$$u20$as$u20$core..ops..try_trait..Try$GT$6branch17hee94f6dae8658715E', symObjAddr: 0x2184, symBinAddr: 0x6189C, symSize: 0x74 }
  - { offset: 0xED61E, size: 0x8, addend: 0x0, symName: '__ZN35_$LT$dyn$u20$core..error..Error$GT$2is17h1e634db91967e150E', symObjAddr: 0x270, symBinAddr: 0x6026C, symSize: 0x10C }
  - { offset: 0xED79A, size: 0x8, addend: 0x0, symName: '__ZN35_$LT$dyn$u20$core..error..Error$GT$2is17h32345fdec8c9f0dbE', symObjAddr: 0x37C, symBinAddr: 0x60378, symSize: 0x10C }
  - { offset: 0xED973, size: 0x8, addend: 0x0, symName: __ZN4core5error5Error11description17ha624a7195c37682bE, symObjAddr: 0x1754, symBinAddr: 0x60EF8, symSize: 0x20 }
  - { offset: 0xED9AB, size: 0x8, addend: 0x0, symName: __ZN4core5error5Error5cause17he10522250ee54c73E, symObjAddr: 0x1774, symBinAddr: 0x60F18, symSize: 0x24 }
  - { offset: 0xED9E3, size: 0x8, addend: 0x0, symName: __ZN4core5error5Error7provide17h9232aea90c47013fE, symObjAddr: 0x1798, symBinAddr: 0x60F3C, symSize: 0x18 }
  - { offset: 0xEDA26, size: 0x8, addend: 0x0, symName: __ZN4core5error5Error7type_id17h47b9a499a79a88e6E, symObjAddr: 0x17B0, symBinAddr: 0x60F54, symSize: 0x58 }
  - { offset: 0xEDAB6, size: 0x8, addend: 0x0, symName: '__ZN81_$LT$dyn$u20$core..error..Error$u2b$core..marker..Sync$u2b$core..marker..Send$GT$12downcast_ref17h77d3ca8ecb3cf9f5E', symObjAddr: 0x21F8, symBinAddr: 0x61910, symSize: 0x60 }
  - { offset: 0xEDB1F, size: 0x8, addend: 0x0, symName: '__ZN81_$LT$dyn$u20$core..error..Error$u2b$core..marker..Sync$u2b$core..marker..Send$GT$12downcast_ref17haa5ce54b40144390E', symObjAddr: 0x2258, symBinAddr: 0x61970, symSize: 0x60 }
  - { offset: 0xEDC37, size: 0x8, addend: 0x0, symName: __ZN4core4hint21unreachable_unchecked18precondition_check17hb2452e5ad8d93265E, symObjAddr: 0x1738, symBinAddr: 0x60EDC, symSize: 0x1C }
  - { offset: 0xEDC59, size: 0x8, addend: 0x0, symName: __ZN4core10intrinsics11size_of_val17ha66c9c8c74ebcfacE, symObjAddr: 0xE88, symBinAddr: 0x608A0, symSize: 0x10 }
  - { offset: 0xEDC93, size: 0x8, addend: 0x0, symName: __ZN4core10intrinsics16min_align_of_val17hf19b00ada49c978cE, symObjAddr: 0xE98, symBinAddr: 0x608B0, symSize: 0x10 }
  - { offset: 0xEDCD3, size: 0x8, addend: 0x0, symName: __ZN4core10intrinsics19copy_nonoverlapping18precondition_check17h49500fe4b1ed9898E, symObjAddr: 0xEA8, symBinAddr: 0x608C0, symSize: 0x1EC }
  - { offset: 0xEDFFA, size: 0x8, addend: 0x0, symName: __ZN4core10intrinsics7type_id17h672d86506c999510E, symObjAddr: 0x1094, symBinAddr: 0x60AAC, symSize: 0x4 }
  - { offset: 0xEE024, size: 0x8, addend: 0x0, symName: __ZN4core10intrinsics7type_id17hb7c3c1c3b0302ba3E, symObjAddr: 0x1098, symBinAddr: 0x60AB0, symSize: 0x4 }
  - { offset: 0xEE04E, size: 0x8, addend: 0x0, symName: __ZN4core10intrinsics7type_id17hd1c792b2e7333f03E, symObjAddr: 0x109C, symBinAddr: 0x60AB4, symSize: 0x4 }
  - { offset: 0xEE1EC, size: 0x8, addend: 0x0, symName: __ZN4core9ub_checks17is_nonoverlapping7runtime17h14244383d7e2652cE, symObjAddr: 0x1ACC, symBinAddr: 0x61270, symSize: 0xE4 }
  - { offset: 0xEE696, size: 0x8, addend: 0x0, symName: '__ZN50_$LT$T$u20$as$u20$core..convert..Into$LT$U$GT$$GT$4into17hcc03944d0e30a968E', symObjAddr: 0x1BB0, symBinAddr: 0x61354, symSize: 0x2C }
  - { offset: 0xEEACD, size: 0x8, addend: 0x0, symName: '__ZN3std2io5error14repr_bitpacked4Repr4data28_$u7b$$u7b$closure$u7d$$u7d$17hbfeecb50eb9f667fE', symObjAddr: 0xCA0, symBinAddr: 0x606B8, symSize: 0x14 }
  - { offset: 0xEEB08, size: 0x8, addend: 0x0, symName: __ZN3std2io5error14repr_bitpacked11decode_repr17hf370bef3b90bb3d5E, symObjAddr: 0x488, symBinAddr: 0x60484, symSize: 0x234 }
  - { offset: 0xEF18E, size: 0x8, addend: 0x0, symName: '__ZN146_$LT$alloc..boxed..Box$LT$dyn$u20$core..error..Error$u2b$core..marker..Sync$u2b$core..marker..Send$GT$$u20$as$u20$core..convert..From$LT$E$GT$$GT$4from17h60eb7a45f44ddabdE', symObjAddr: 0x11C, symBinAddr: 0x60118, symSize: 0x8C }
  - { offset: 0xEF1EF, size: 0x8, addend: 0x0, symName: '__ZN67_$LT$alloc..boxed..Box$LT$T$C$A$GT$$u20$as$u20$core..fmt..Debug$GT$3fmt17hd6013fe2d56c6c3eE', symObjAddr: 0x1F84, symBinAddr: 0x6169C, symSize: 0x3C }
  - { offset: 0xEF24A, size: 0x8, addend: 0x0, symName: '__ZN69_$LT$alloc..boxed..Box$LT$T$C$A$GT$$u20$as$u20$core..fmt..Display$GT$3fmt17hd860e73bb064827eE', symObjAddr: 0x1FC0, symBinAddr: 0x616D8, symSize: 0x3C }
  - { offset: 0xEF2A5, size: 0x8, addend: 0x0, symName: '__ZN72_$LT$alloc..boxed..Box$LT$T$C$A$GT$$u20$as$u20$core..ops..drop..Drop$GT$4drop17h23d61f29f7604974E', symObjAddr: 0x1FFC, symBinAddr: 0x61714, symSize: 0xA0 }
  - { offset: 0xEF51C, size: 0x8, addend: 0x0, symName: __ZN5alloc5alloc15exchange_malloc17h4f92aa1dae5ec68cE, symObjAddr: 0x1BDC, symBinAddr: 0x61380, symSize: 0x90 }
  - { offset: 0xEF681, size: 0x8, addend: 0x0, symName: __ZN5alloc5alloc5alloc17hd5a2c3282866a7daE, symObjAddr: 0x1C6C, symBinAddr: 0x61410, symSize: 0x80 }
  - { offset: 0xEFBAC, size: 0x8, addend: 0x0, symName: __ZN3std2io5error14repr_bitpacked4Repr6new_os17h524b7570c4a5a22cE, symObjAddr: 0xCB4, symBinAddr: 0x606CC, symSize: 0x6C }
  - { offset: 0xEFCA3, size: 0x8, addend: 0x0, symName: __ZN3std2io5error5Error12raw_os_error17ha697cd9c2e400d29E, symObjAddr: 0xD20, symBinAddr: 0x60738, symSize: 0xE8 }
  - { offset: 0xEFD16, size: 0x8, addend: 0x0, symName: __ZN3std2io5error5Error17from_raw_os_error17h0c3552625e9b2fd3E, symObjAddr: 0xE08, symBinAddr: 0x60820, symSize: 0x20 }
  - { offset: 0xEFD3B, size: 0x8, addend: 0x0, symName: __ZN3std2io5error5Error3new17hf94acf1061dffeb9E, symObjAddr: 0xE28, symBinAddr: 0x60840, symSize: 0x60 }
  - { offset: 0xEFDC0, size: 0x8, addend: 0x0, symName: __ZN4core3fmt9Arguments6new_v117h5a34fb6c0a284233E, symObjAddr: 0x1224, symBinAddr: 0x60BC8, symSize: 0x54 }
  - { offset: 0xEFEFE, size: 0x8, addend: 0x0, symName: '__ZN4core6option15Option$LT$T$GT$3map17ha1e1468a7b5deac1E', symObjAddr: 0x1A7C, symBinAddr: 0x61220, symSize: 0x50 }
  - { offset: 0xF0276, size: 0x8, addend: 0x0, symName: __ZN5alloc5alloc6Global10alloc_impl17h78d591e62a278fd3E, symObjAddr: 0x1CEC, symBinAddr: 0x61490, symSize: 0x20C }
  - { offset: 0xF096D, size: 0x8, addend: 0x0, symName: __ZN9rand_core5error5Error12raw_os_error17h8a3bb35c31e29953E, symObjAddr: 0x23F4, symBinAddr: 0x61B0C, symSize: 0xD8 }
  - { offset: 0xF09DE, size: 0x8, addend: 0x0, symName: __ZN9rand_core5error5Error4code17hac4f5320a361f922E, symObjAddr: 0x24CC, symBinAddr: 0x61BE4, symSize: 0x34 }
  - { offset: 0xF0E38, size: 0x8, addend: 0x0, symName: '__ZN146_$LT$alloc..boxed..Box$LT$dyn$u20$core..error..Error$u2b$core..marker..Sync$u2b$core..marker..Send$GT$$u20$as$u20$core..convert..From$LT$E$GT$$GT$4from17he86ecdf9e02c3a55E', symObjAddr: 0x0, symBinAddr: 0x629B0, symSize: 0x64 }
  - { offset: 0xF0E9B, size: 0x8, addend: 0x0, symName: __ZN9getrandom5error14internal_error17h29bd5e916de68b93E, symObjAddr: 0xECC, symBinAddr: 0x63690, symSize: 0x4C }
  - { offset: 0xF0EED, size: 0x8, addend: 0x0, symName: '__ZN60_$LT$getrandom..error..Error$u20$as$u20$core..fmt..Debug$GT$3fmt17h83078acfe2531488E', symObjAddr: 0xF74, symBinAddr: 0x63738, symSize: 0x208 }
  - { offset: 0xF0FA5, size: 0x8, addend: 0x0, symName: '__ZN62_$LT$getrandom..error..Error$u20$as$u20$core..fmt..Display$GT$3fmt17hd3832d2ee5c07774E', symObjAddr: 0x117C, symBinAddr: 0x63940, symSize: 0x224 }
  - { offset: 0xF115D, size: 0x8, addend: 0x0, symName: '__ZN109_$LT$getrandom..error..Error$u20$as$u20$core..convert..From$LT$core..num..nonzero..NonZero$LT$u32$GT$$GT$$GT$4from17hcea0f6fb601b0da3E', symObjAddr: 0x13A0, symBinAddr: 0x63B64, symSize: 0x10 }
  - { offset: 0xF118C, size: 0x8, addend: 0x0, symName: __ZN9getrandom5error13internal_desc17h8855839e06e076bdE, symObjAddr: 0x13B0, symBinAddr: 0x63B74, symSize: 0x18C }
  - { offset: 0xF11BA, size: 0x8, addend: 0x0, symName: __ZN9getrandom5error6os_err17haa79ca2150ff75bcE, symObjAddr: 0x15A8, symBinAddr: 0x63D6C, symSize: 0x14C }
  - { offset: 0xF13C0, size: 0x8, addend: 0x0, symName: '__ZN9getrandom5error6os_err28_$u7b$$u7b$closure$u7d$$u7d$17haef3ed476700f42eE', symObjAddr: 0x16F4, symBinAddr: 0x63EB8, symSize: 0x28 }
  - { offset: 0xF1429, size: 0x8, addend: 0x0, symName: '__ZN9getrandom11error_impls102_$LT$impl$u20$core..convert..From$LT$getrandom..error..Error$GT$$u20$for$u20$std..io..error..Error$GT$4from17h75bafdfc3e1d31f3E', symObjAddr: 0x153C, symBinAddr: 0x63D00, symSize: 0x6C }
  - { offset: 0xF147D, size: 0x8, addend: 0x0, symName: __ZN9getrandom3imp15getrandom_inner17h3c93450e1611b066E, symObjAddr: 0x171C, symBinAddr: 0x63EE0, symSize: 0x58 }
  - { offset: 0xF158B, size: 0x8, addend: 0x0, symName: '__ZN4core3num7nonzero16NonZero$LT$T$GT$13new_unchecked18precondition_check17h810b742d80c6f05cE', symObjAddr: 0x4FC, symBinAddr: 0x62D00, symSize: 0x1C }
  - { offset: 0xF198D, size: 0x8, addend: 0x0, symName: '__ZN42_$LT$$RF$T$u20$as$u20$core..fmt..Debug$GT$3fmt17hdd60a80f7f32348dE', symObjAddr: 0x140, symBinAddr: 0x62AF0, symSize: 0x3C }
  - { offset: 0xF19E4, size: 0x8, addend: 0x0, symName: '__ZN4core3fmt3num50_$LT$impl$u20$core..fmt..Debug$u20$for$u20$i32$GT$3fmt17h33f8eefe51a5923dE', symObjAddr: 0x198, symBinAddr: 0x62B48, symSize: 0x90 }
  - { offset: 0xF1A84, size: 0x8, addend: 0x0, symName: '__ZN4core3fmt3num50_$LT$impl$u20$core..fmt..Debug$u20$for$u20$u32$GT$3fmt17h34cf2ac4620c3760E', symObjAddr: 0x228, symBinAddr: 0x62BD8, symSize: 0x90 }
  - { offset: 0xF1E77, size: 0x8, addend: 0x0, symName: '__ZN4core3ptr8non_null16NonNull$LT$T$GT$13new_unchecked18precondition_check17he9ce23ae4ac5d7cdE', symObjAddr: 0x654, symBinAddr: 0x62E18, symSize: 0x3C }
  - { offset: 0xF2281, size: 0x8, addend: 0x0, symName: '__ZN4core3ptr9const_ptr33_$LT$impl$u20$$BP$const$u20$T$GT$7sub_ptr18precondition_check17h7f8305840327a91cE', symObjAddr: 0x690, symBinAddr: 0x62E54, symSize: 0x40 }
  - { offset: 0xF230E, size: 0x8, addend: 0x0, symName: __ZN4core3ptr13read_volatile18precondition_check17haebe12c449480800E, symObjAddr: 0x528, symBinAddr: 0x62D2C, symSize: 0xEC }
  - { offset: 0xF2EEC, size: 0x8, addend: 0x0, symName: __ZN4core10intrinsics23is_val_statically_known17h010b4331dd48fc8bE, symObjAddr: 0x17C, symBinAddr: 0x62B2C, symSize: 0x18 }
  - { offset: 0xF2F26, size: 0x8, addend: 0x0, symName: __ZN4core10intrinsics7type_id17heda5423560233fd6E, symObjAddr: 0x194, symBinAddr: 0x62B44, symSize: 0x4 }
  - { offset: 0xF2F91, size: 0x8, addend: 0x0, symName: __ZN4core4hint16assert_unchecked18precondition_check17h1ff528978d79559cE, symObjAddr: 0x6D0, symBinAddr: 0x62E94, symSize: 0x38 }
  - { offset: 0xF2FE6, size: 0x8, addend: 0x0, symName: __ZN4core5error5Error11description17h0f2f855f16eeb12dE, symObjAddr: 0x708, symBinAddr: 0x62ECC, symSize: 0x20 }
  - { offset: 0xF301E, size: 0x8, addend: 0x0, symName: __ZN4core5error5Error5cause17h0b0360213922bd24E, symObjAddr: 0x728, symBinAddr: 0x62EEC, symSize: 0x24 }
  - { offset: 0xF3056, size: 0x8, addend: 0x0, symName: __ZN4core5error5Error6source17ha2314774cb673d13E, symObjAddr: 0x74C, symBinAddr: 0x62F10, symSize: 0x24 }
  - { offset: 0xF308E, size: 0x8, addend: 0x0, symName: __ZN4core5error5Error7provide17h8ae1f3cccd5bbd8dE, symObjAddr: 0x770, symBinAddr: 0x62F34, symSize: 0x18 }
  - { offset: 0xF30D1, size: 0x8, addend: 0x0, symName: __ZN4core5error5Error7type_id17h8292135c86b7ea8eE, symObjAddr: 0x788, symBinAddr: 0x62F4C, symSize: 0x58 }
  - { offset: 0xF31F7, size: 0x8, addend: 0x0, symName: '__ZN4core5slice29_$LT$impl$u20$$u5b$T$u5d$$GT$4iter17hb188084641ec6473E', symObjAddr: 0x7E0, symBinAddr: 0x62FA4, symSize: 0x28 }
  - { offset: 0xF32F2, size: 0x8, addend: 0x0, symName: '__ZN91_$LT$core..slice..iter..Iter$LT$T$GT$$u20$as$u20$core..iter..traits..iterator..Iterator$GT$4next17ha15ec18901f61d6cE', symObjAddr: 0xC3C, symBinAddr: 0x63400, symSize: 0xCC }
  - { offset: 0xF34D1, size: 0x8, addend: 0x0, symName: '__ZN91_$LT$core..slice..iter..Iter$LT$T$GT$$u20$as$u20$core..iter..traits..iterator..Iterator$GT$8position17h9d54c6bdc81478d0E', symObjAddr: 0xD08, symBinAddr: 0x634CC, symSize: 0x1C4 }
  - { offset: 0xF3802, size: 0x8, addend: 0x0, symName: '__ZN50_$LT$T$u20$as$u20$core..convert..Into$LT$U$GT$$GT$4into17ha746280925e8dd64E', symObjAddr: 0x900, symBinAddr: 0x630C4, symSize: 0x20 }
  - { offset: 0xF3DDF, size: 0x8, addend: 0x0, symName: '__ZN146_$LT$alloc..boxed..Box$LT$dyn$u20$core..error..Error$u2b$core..marker..Sync$u2b$core..marker..Send$GT$$u20$as$u20$core..convert..From$LT$E$GT$$GT$4from17he86ecdf9e02c3a55E', symObjAddr: 0x0, symBinAddr: 0x629B0, symSize: 0x64 }
  - { offset: 0xF3EA0, size: 0x8, addend: 0x0, symName: __ZN5alloc5alloc15exchange_malloc17ha09fc9ff22e4488eE, symObjAddr: 0x920, symBinAddr: 0x630E4, symSize: 0x90 }
  - { offset: 0xF4005, size: 0x8, addend: 0x0, symName: __ZN5alloc5alloc5alloc17h5dfb19b1b51c63edE, symObjAddr: 0x9B0, symBinAddr: 0x63174, symSize: 0x80 }
  - { offset: 0xF4322, size: 0x8, addend: 0x0, symName: __ZN3std2io5error14repr_bitpacked4Repr6new_os17hbe868e617663677aE, symObjAddr: 0x64, symBinAddr: 0x62A14, symSize: 0x6C }
  - { offset: 0xF43E6, size: 0x8, addend: 0x0, symName: __ZN3std2io5error5Error17from_raw_os_error17h5bb1adfc67b8f7e0E, symObjAddr: 0xD0, symBinAddr: 0x62A80, symSize: 0x20 }
  - { offset: 0xF440B, size: 0x8, addend: 0x0, symName: __ZN3std2io5error5Error3new17heb6c1e0158b54d6cE, symObjAddr: 0xF0, symBinAddr: 0x62AA0, symSize: 0x50 }
  - { offset: 0xF44BF, size: 0x8, addend: 0x0, symName: __ZN4core3fmt9Arguments6new_v117h890b0286937b1b09E, symObjAddr: 0x2B8, symBinAddr: 0x62C68, symSize: 0x50 }
  - { offset: 0xF4540, size: 0x8, addend: 0x0, symName: '__ZN4core3num7nonzero16NonZero$LT$T$GT$13new_unchecked17hb385b530b3eb4effE', symObjAddr: 0x4B4, symBinAddr: 0x62CB8, symSize: 0x48 }
  - { offset: 0xF459E, size: 0x8, addend: 0x0, symName: '__ZN4core3num7nonzero16NonZero$LT$T$GT$3get17h8e0adde2cc3dc552E', symObjAddr: 0x518, symBinAddr: 0x62D1C, symSize: 0x10 }
  - { offset: 0xF4707, size: 0x8, addend: 0x0, symName: '__ZN4core5slice4iter13Iter$LT$T$GT$3new17ha97a2b93a5742e36E', symObjAddr: 0x808, symBinAddr: 0x62FCC, symSize: 0x50 }
  - { offset: 0xF4856, size: 0x8, addend: 0x0, symName: '__ZN4core6option15Option$LT$T$GT$9unwrap_or17h81c0cd60ba24b698E', symObjAddr: 0x858, symBinAddr: 0x6301C, symSize: 0x48 }
  - { offset: 0xF48B5, size: 0x8, addend: 0x0, symName: '__ZN4core6result19Result$LT$T$C$E$GT$2ok17hd4db1c86b0fb1904E', symObjAddr: 0x8A0, symBinAddr: 0x63064, symSize: 0x60 }
  - { offset: 0xF4BF5, size: 0x8, addend: 0x0, symName: __ZN5alloc5alloc6Global10alloc_impl17h6d956577e4cc768dE, symObjAddr: 0xA30, symBinAddr: 0x631F4, symSize: 0x20C }
  - { offset: 0xF52A7, size: 0x8, addend: 0x0, symName: __ZN9getrandom5error5Error12raw_os_error17hc11cd6d99ee34ab6E, symObjAddr: 0xF18, symBinAddr: 0x636DC, symSize: 0x5C }
  - { offset: 0xF54FF, size: 0x8, addend: 0x0, symName: '__ZN108_$LT$alloc..collections..btree..map..Iter$LT$K$C$V$GT$$u20$as$u20$core..iter..traits..iterator..Iterator$GT$4next17h380e721ced43b158E', symObjAddr: 0x0, symBinAddr: 0x63F38, symSize: 0x128 }
  - { offset: 0xF59D5, size: 0x8, addend: 0x0, symName: '__ZN5alloc11collections5btree4node208Handle$LT$alloc..collections..btree..node..NodeRef$LT$alloc..collections..btree..node..marker..Mut$C$K$C$V$C$alloc..collections..btree..node..marker..Leaf$GT$$C$alloc..collections..btree..node..marker..KV$GT$5split17h4f618c259c5cee7aE', symObjAddr: 0xE398, symBinAddr: 0x71F80, symSize: 0x1CC }
  - { offset: 0xF5EBD, size: 0x8, addend: 0x0, symName: '__ZN5alloc11collections5btree4node208Handle$LT$alloc..collections..btree..node..NodeRef$LT$alloc..collections..btree..node..marker..Mut$C$K$C$V$C$alloc..collections..btree..node..marker..Leaf$GT$$C$alloc..collections..btree..node..marker..KV$GT$5split17hfdd307c1c405c789E', symObjAddr: 0xE564, symBinAddr: 0x7214C, symSize: 0x1D8 }
  - { offset: 0xF63C6, size: 0x8, addend: 0x0, symName: '__ZN5alloc11collections5btree4node212Handle$LT$alloc..collections..btree..node..NodeRef$LT$alloc..collections..btree..node..marker..Mut$C$K$C$V$C$alloc..collections..btree..node..marker..Internal$GT$$C$alloc..collections..btree..node..marker..KV$GT$5split17ha17bd7e2997974d6E', symObjAddr: 0xE73C, symBinAddr: 0x72324, symSize: 0x29C }
  - { offset: 0xF6AE2, size: 0x8, addend: 0x0, symName: '__ZN5alloc11collections5btree4node212Handle$LT$alloc..collections..btree..node..NodeRef$LT$alloc..collections..btree..node..marker..Mut$C$K$C$V$C$alloc..collections..btree..node..marker..Internal$GT$$C$alloc..collections..btree..node..marker..KV$GT$5split17hd601f0954beaa341E', symObjAddr: 0xE9D8, symBinAddr: 0x725C0, symSize: 0x2A8 }
  - { offset: 0xF7257, size: 0x8, addend: 0x0, symName: '__ZN5alloc11collections5btree6remove259_$LT$impl$u20$alloc..collections..btree..node..Handle$LT$alloc..collections..btree..node..NodeRef$LT$alloc..collections..btree..node..marker..Mut$C$K$C$V$C$alloc..collections..btree..node..marker..Leaf$GT$$C$alloc..collections..btree..node..marker..KV$GT$$GT$14remove_leaf_kv17h2cdf4f104f483823E', symObjAddr: 0xF3FC, symBinAddr: 0x72FE4, symSize: 0x5B8 }
  - { offset: 0xF7FA8, size: 0x8, addend: 0x0, symName: '__ZN5alloc11collections5btree6remove259_$LT$impl$u20$alloc..collections..btree..node..Handle$LT$alloc..collections..btree..node..NodeRef$LT$alloc..collections..btree..node..marker..Mut$C$K$C$V$C$alloc..collections..btree..node..marker..Leaf$GT$$C$alloc..collections..btree..node..marker..KV$GT$$GT$14remove_leaf_kv17h3deb9fc7a3aa1550E', symObjAddr: 0xF9B4, symBinAddr: 0x7359C, symSize: 0x5B8 }
  - { offset: 0xF9B63, size: 0x8, addend: 0x0, symName: '__ZN5alloc11collections5btree4node29BalancingContext$LT$K$C$V$GT$15bulk_steal_left17hdc94d53ba07810ffE', symObjAddr: 0xEC80, symBinAddr: 0x72868, symSize: 0x288 }
  - { offset: 0xFA1E4, size: 0x8, addend: 0x0, symName: '__ZN5alloc11collections5btree4node29BalancingContext$LT$K$C$V$GT$16bulk_steal_right17h5d5fffb3ab2a0c7aE', symObjAddr: 0xEF08, symBinAddr: 0x72AF0, symSize: 0x2A8 }
  - { offset: 0xFA957, size: 0x8, addend: 0x0, symName: '__ZN5alloc11collections5btree4node29BalancingContext$LT$K$C$V$GT$8do_merge17h824a468f43834281E', symObjAddr: 0xF1B0, symBinAddr: 0x72D98, symSize: 0x24C }
  - { offset: 0xFB16D, size: 0x8, addend: 0x0, symName: '__ZN108_$LT$alloc..collections..btree..map..Iter$LT$K$C$V$GT$$u20$as$u20$core..iter..traits..iterator..Iterator$GT$4next17h380e721ced43b158E', symObjAddr: 0x0, symBinAddr: 0x63F38, symSize: 0x128 }
  - { offset: 0xFB573, size: 0x8, addend: 0x0, symName: '__ZN5alloc11collections5btree3map25BTreeMap$LT$K$C$V$C$A$GT$6insert17h0a70bca9711a18b5E', symObjAddr: 0xCA38, symBinAddr: 0x70620, symSize: 0x968 }
  - { offset: 0xFCD7D, size: 0x8, addend: 0x0, symName: '__ZN5alloc11collections5btree3map25BTreeMap$LT$K$C$V$C$A$GT$6insert17h6e22cf22fe3042adE', symObjAddr: 0xD3A0, symBinAddr: 0x70F88, symSize: 0x9A4 }
  - { offset: 0xFE714, size: 0x8, addend: 0x0, symName: '__ZN5alloc11collections5btree3map25IntoIter$LT$K$C$V$C$A$GT$10dying_next17h13082a5d04fe4511E', symObjAddr: 0xDD44, symBinAddr: 0x7192C, symSize: 0x21C }
  - { offset: 0xFEB33, size: 0x8, addend: 0x0, symName: '__ZN5alloc11collections5btree3map25IntoIter$LT$K$C$V$C$A$GT$10dying_next17h3a85406856f4a655E', symObjAddr: 0xDF60, symBinAddr: 0x71B48, symSize: 0x21C }
  - { offset: 0xFEF52, size: 0x8, addend: 0x0, symName: '__ZN5alloc11collections5btree3map25IntoIter$LT$K$C$V$C$A$GT$10dying_next17h93a4b9636a6cbfd1E', symObjAddr: 0xE17C, symBinAddr: 0x71D64, symSize: 0x21C }
  - { offset: 0xFF378, size: 0x8, addend: 0x0, symName: '__ZN94_$LT$alloc..collections..btree..map..BTreeMap$LT$K$C$V$C$A$GT$$u20$as$u20$core..fmt..Debug$GT$3fmt17h21325d5af747c42eE', symObjAddr: 0x18AC8, symBinAddr: 0x7C33C, symSize: 0xB8 }
  - { offset: 0xFFBA6, size: 0x8, addend: 0x0, symName: '__ZN5alloc7raw_vec19RawVec$LT$T$C$A$GT$8grow_one17h0a6f82c7ec224786E', symObjAddr: 0x1070C, symBinAddr: 0x73F80, symSize: 0xB8 }
  - { offset: 0xFFD0F, size: 0x8, addend: 0x0, symName: '__ZN5alloc7raw_vec19RawVec$LT$T$C$A$GT$8grow_one17h111f858b591129f7E', symObjAddr: 0x107C4, symBinAddr: 0x74038, symSize: 0xA8 }
  - { offset: 0xFFE6A, size: 0x8, addend: 0x0, symName: '__ZN5alloc7raw_vec19RawVec$LT$T$C$A$GT$8grow_one17h25873754c127e39cE', symObjAddr: 0x1086C, symBinAddr: 0x740E0, symSize: 0xA8 }
  - { offset: 0xFFFC5, size: 0x8, addend: 0x0, symName: '__ZN5alloc7raw_vec19RawVec$LT$T$C$A$GT$8grow_one17h28b8804c7bd49e0fE', symObjAddr: 0x10914, symBinAddr: 0x74188, symSize: 0xBC }
  - { offset: 0x100120, size: 0x8, addend: 0x0, symName: '__ZN5alloc7raw_vec19RawVec$LT$T$C$A$GT$8grow_one17h3b18bb389b18f86dE', symObjAddr: 0x109D0, symBinAddr: 0x74244, symSize: 0xBC }
  - { offset: 0x10027B, size: 0x8, addend: 0x0, symName: '__ZN5alloc7raw_vec19RawVec$LT$T$C$A$GT$8grow_one17h3ceae9ff0d875136E', symObjAddr: 0x10A8C, symBinAddr: 0x74300, symSize: 0xBC }
  - { offset: 0x1003D6, size: 0x8, addend: 0x0, symName: '__ZN5alloc7raw_vec19RawVec$LT$T$C$A$GT$8grow_one17h63b6a703b9cd7bf4E', symObjAddr: 0x10B48, symBinAddr: 0x743BC, symSize: 0xBC }
  - { offset: 0x100531, size: 0x8, addend: 0x0, symName: '__ZN5alloc7raw_vec19RawVec$LT$T$C$A$GT$8grow_one17h75dff49665ba074bE', symObjAddr: 0x10C04, symBinAddr: 0x74478, symSize: 0xB8 }
  - { offset: 0x10068C, size: 0x8, addend: 0x0, symName: '__ZN5alloc7raw_vec19RawVec$LT$T$C$A$GT$8grow_one17h783cfe0233c2c686E', symObjAddr: 0x10CBC, symBinAddr: 0x74530, symSize: 0xA8 }
  - { offset: 0x1007E7, size: 0x8, addend: 0x0, symName: '__ZN5alloc7raw_vec19RawVec$LT$T$C$A$GT$8grow_one17h8436c1b7cb10ac4fE', symObjAddr: 0x10D64, symBinAddr: 0x745D8, symSize: 0xA8 }
  - { offset: 0x100942, size: 0x8, addend: 0x0, symName: '__ZN5alloc7raw_vec19RawVec$LT$T$C$A$GT$8grow_one17hc9e68aa1c8981acfE', symObjAddr: 0x10E0C, symBinAddr: 0x74680, symSize: 0xC8 }
  - { offset: 0x100A9D, size: 0x8, addend: 0x0, symName: '__ZN5alloc7raw_vec19RawVec$LT$T$C$A$GT$8grow_one17hcb8b8c9a1628bbffE', symObjAddr: 0x10ED4, symBinAddr: 0x74748, symSize: 0xB8 }
  - { offset: 0x100BF8, size: 0x8, addend: 0x0, symName: '__ZN5alloc7raw_vec19RawVec$LT$T$C$A$GT$8grow_one17he685c0e2db5e0d3fE', symObjAddr: 0x10F8C, symBinAddr: 0x74800, symSize: 0xA8 }
  - { offset: 0x100D37, size: 0x8, addend: 0x0, symName: '__ZN5alloc7raw_vec19RawVec$LT$T$C$A$GT$8grow_one17hf8ab8dac8b9e3ea0E', symObjAddr: 0x11034, symBinAddr: 0x748A8, symSize: 0x9C }
  - { offset: 0x101C59, size: 0x8, addend: 0x0, symName: __ZN5alloc7raw_vec11finish_grow17h66795cd977834b08E, symObjAddr: 0x102F8, symBinAddr: 0x73EE0, symSize: 0xA0 }
  - { offset: 0x101CEE, size: 0x8, addend: 0x0, symName: '__ZN5alloc7raw_vec19RawVec$LT$T$C$A$GT$7reserve21do_reserve_and_handle17h4f81d44af8abb0caE', symObjAddr: 0x10398, symBinAddr: 0xEAFFC, symSize: 0xA8 }
  - { offset: 0x101E2D, size: 0x8, addend: 0x0, symName: '__ZN5alloc7raw_vec19RawVec$LT$T$C$A$GT$7reserve21do_reserve_and_handle17h8ce13c2a5addf58eE', symObjAddr: 0x10440, symBinAddr: 0xEB0A4, symSize: 0x9C }
  - { offset: 0x101F55, size: 0x8, addend: 0x0, symName: '__ZN5alloc7raw_vec19RawVec$LT$T$C$A$GT$7reserve21do_reserve_and_handle17h9b2233567c2eced7E', symObjAddr: 0x104DC, symBinAddr: 0xEB140, symSize: 0xBC }
  - { offset: 0x102094, size: 0x8, addend: 0x0, symName: '__ZN5alloc7raw_vec19RawVec$LT$T$C$A$GT$7reserve21do_reserve_and_handle17hf58c83ead0cd0ea3E', symObjAddr: 0x10598, symBinAddr: 0xEB1FC, symSize: 0xBC }
  - { offset: 0x1021D3, size: 0x8, addend: 0x0, symName: '__ZN5alloc7raw_vec19RawVec$LT$T$C$A$GT$7reserve21do_reserve_and_handle17hfd6241453cea34ddE', symObjAddr: 0x10654, symBinAddr: 0xEB2B8, symSize: 0xB8 }
  - { offset: 0x1037CD, size: 0x8, addend: 0x0, symName: '__ZN65_$LT$alloc..vec..Vec$LT$T$C$A$GT$$u20$as$u20$core..fmt..Debug$GT$3fmt17h19089a342e622337E', symObjAddr: 0x17E00, symBinAddr: 0x7B674, symSize: 0x74 }
  - { offset: 0x1038C1, size: 0x8, addend: 0x0, symName: '__ZN65_$LT$alloc..vec..Vec$LT$T$C$A$GT$$u20$as$u20$core..fmt..Debug$GT$3fmt17ha91d5bc36977ddb9E', symObjAddr: 0x17E74, symBinAddr: 0x7B6E8, symSize: 0x70 }
  - { offset: 0x10411F, size: 0x8, addend: 0x0, symName: '__ZN64_$LT$alloc..ffi..c_str..NulError$u20$as$u20$core..fmt..Debug$GT$3fmt17h430dfd1c5ba0adcbE', symObjAddr: 0x17D44, symBinAddr: 0x7B5B8, symSize: 0x4C }
  - { offset: 0x10431B, size: 0x8, addend: 0x0, symName: '__ZN5alloc4sync16Arc$LT$T$C$A$GT$9drop_slow17h29edeeddbdff6215E', symObjAddr: 0xFF6C, symBinAddr: 0x73B54, symSize: 0xC8 }
  - { offset: 0x1044B2, size: 0x8, addend: 0x0, symName: '__ZN5alloc4sync16Arc$LT$T$C$A$GT$9drop_slow17h39a5917f4d7fdd95E', symObjAddr: 0x10034, symBinAddr: 0x73C1C, symSize: 0x80 }
  - { offset: 0x1046CD, size: 0x8, addend: 0x0, symName: '__ZN5alloc4sync16Arc$LT$T$C$A$GT$9drop_slow17h3cfe0c594dfb021aE', symObjAddr: 0x100B4, symBinAddr: 0x73C9C, symSize: 0xA0 }
  - { offset: 0x10497D, size: 0x8, addend: 0x0, symName: '__ZN5alloc4sync16Arc$LT$T$C$A$GT$9drop_slow17hbbbc9526cd5f2494E', symObjAddr: 0x10154, symBinAddr: 0x73D3C, symSize: 0x94 }
  - { offset: 0x104C0F, size: 0x8, addend: 0x0, symName: '__ZN5alloc4sync16Arc$LT$T$C$A$GT$9drop_slow17hbfc05961fd2cc5eaE', symObjAddr: 0x101E8, symBinAddr: 0x73DD0, symSize: 0x48 }
  - { offset: 0x104D1A, size: 0x8, addend: 0x0, symName: '__ZN5alloc4sync16Arc$LT$T$C$A$GT$9drop_slow17hd72512d6ca5eee4dE', symObjAddr: 0x10230, symBinAddr: 0x73E18, symSize: 0xC8 }
  - { offset: 0x105956, size: 0x8, addend: 0x0, symName: '__ZN58_$LT$alloc..string..String$u20$as$u20$core..fmt..Debug$GT$3fmt17h73852553c5b08b95E', symObjAddr: 0xC860, symBinAddr: 0x70448, symSize: 0x1C }
  - { offset: 0x105AC9, size: 0x8, addend: 0x0, symName: '__ZN58_$LT$alloc..string..String$u20$as$u20$core..fmt..Write$GT$10write_char17hf975c7b3bfbf111eE', symObjAddr: 0xC87C, symBinAddr: 0x70464, symSize: 0x144 }
  - { offset: 0x105CC9, size: 0x8, addend: 0x0, symName: '__ZN58_$LT$alloc..string..String$u20$as$u20$core..fmt..Write$GT$9write_str17h66397e8869c81ea8E', symObjAddr: 0xC9C0, symBinAddr: 0x705A8, symSize: 0x78 }
  - { offset: 0x105DF7, size: 0x8, addend: 0x0, symName: '__ZN60_$LT$alloc..string..String$u20$as$u20$core..fmt..Display$GT$3fmt17h0956531b748f31a7E', symObjAddr: 0x17D28, symBinAddr: 0x7B59C, symSize: 0x1C }
  - { offset: 0x105ED0, size: 0x8, addend: 0x0, symName: '__ZN66_$LT$alloc..borrow..Cow$LT$B$GT$$u20$as$u20$core..fmt..Display$GT$3fmt17hce404dc723b181c3E', symObjAddr: 0x17EE4, symBinAddr: 0x7B758, symSize: 0x1C }
  - { offset: 0x10718F, size: 0x8, addend: 0x0, symName: '__ZN4core3ptr100drop_in_place$LT$core..option..Option$LT$std..sys..pal..unix..process..process_common..Stdio$GT$$GT$17ha6aae41d333d0e38E', symObjAddr: 0x1728, symBinAddr: 0x65660, symSize: 0x28 }
  - { offset: 0x107229, size: 0x8, addend: 0x0, symName: '__ZN4core3ptr104drop_in_place$LT$alloc..vec..Vec$LT$$LP$usize$C$std..backtrace_rs..symbolize..gimli..Mapping$RP$$GT$$GT$17h253534882523aad0E', symObjAddr: 0x1750, symBinAddr: 0x65688, symSize: 0xC4 }
  - { offset: 0x1073C9, size: 0x8, addend: 0x0, symName: '__ZN4core3ptr107drop_in_place$LT$alloc..vec..Vec$LT$$LP$std..ffi..os_str..OsString$C$std..ffi..os_str..OsString$RP$$GT$$GT$17h9f6b018397a2fedaE', symObjAddr: 0x1814, symBinAddr: 0x6574C, symSize: 0x94 }
  - { offset: 0x107636, size: 0x8, addend: 0x0, symName: '__ZN4core3ptr107drop_in_place$LT$core..option..Option$LT$std..sys..pal..unix..process..process_common..CStringArray$GT$$GT$17hd6e8baab0673636aE', symObjAddr: 0x18A8, symBinAddr: 0x657E0, symSize: 0xB0 }
  - { offset: 0x107872, size: 0x8, addend: 0x0, symName: '__ZN4core3ptr108drop_in_place$LT$alloc..collections..btree..map..BTreeMap$LT$u64$C$gimli..read..abbrev..Abbreviation$GT$$GT$17h9aafa9881d9e0790E', symObjAddr: 0x1958, symBinAddr: 0x65890, symSize: 0xB0 }
  - { offset: 0x107A29, size: 0x8, addend: 0x0, symName: '__ZN4core3ptr112drop_in_place$LT$$LP$std..ffi..os_str..OsString$C$core..option..Option$LT$std..ffi..os_str..OsString$GT$$RP$$GT$17hab672d22cde163cfE', symObjAddr: 0x1A08, symBinAddr: 0x65940, symSize: 0x58 }
  - { offset: 0x107B8A, size: 0x8, addend: 0x0, symName: '__ZN4core3ptr118drop_in_place$LT$$LT$std..backtrace..Backtrace$u20$as$u20$core..fmt..Display$GT$..fmt..$u7b$$u7b$closure$u7d$$u7d$$GT$17hc0597c46e0a7600bE', symObjAddr: 0x1A60, symBinAddr: 0x65998, symSize: 0x40 }
  - { offset: 0x107C9B, size: 0x8, addend: 0x0, symName: '__ZN4core3ptr123drop_in_place$LT$addr2line..Context$LT$gimli..read..endian_slice..EndianSlice$LT$gimli..endianity..LittleEndian$GT$$GT$$GT$17h53ccf6acf3913804E', symObjAddr: 0x1AA0, symBinAddr: 0x659D8, symSize: 0x124 }
  - { offset: 0x107FD9, size: 0x8, addend: 0x0, symName: '__ZN4core3ptr123drop_in_place$LT$addr2line..ResUnit$LT$gimli..read..endian_slice..EndianSlice$LT$gimli..endianity..LittleEndian$GT$$GT$$GT$17h55eb63d7d70716ceE', symObjAddr: 0x1BC4, symBinAddr: 0x65AFC, symSize: 0xE8 }
  - { offset: 0x1081C9, size: 0x8, addend: 0x0, symName: '__ZN4core3ptr123drop_in_place$LT$addr2line..SupUnit$LT$gimli..read..endian_slice..EndianSlice$LT$gimli..endianity..LittleEndian$GT$$GT$$GT$17hf4b796c5b327f0d1E', symObjAddr: 0x1CAC, symBinAddr: 0x65BE4, symSize: 0x58 }
  - { offset: 0x10829E, size: 0x8, addend: 0x0, symName: '__ZN4core3ptr124drop_in_place$LT$alloc..collections..btree..map..BTreeMap$LT$std..ffi..os_str..OsString$C$std..ffi..os_str..OsString$GT$$GT$17h600124bea2a836b4E', symObjAddr: 0x1D04, symBinAddr: 0x65C3C, symSize: 0xC4 }
  - { offset: 0x1084A0, size: 0x8, addend: 0x0, symName: '__ZN4core3ptr124drop_in_place$LT$alloc..collections..btree..map..IntoIter$LT$std..ffi..os_str..OsString$C$std..ffi..os_str..OsString$GT$$GT$17h98ce2e503241475fE', symObjAddr: 0x1DC8, symBinAddr: 0x65D00, symSize: 0x94 }
  - { offset: 0x10864B, size: 0x8, addend: 0x0, symName: '__ZN4core3ptr127drop_in_place$LT$std..sync..poison..PoisonError$LT$std..sync..mutex..MutexGuard$LT$std..sync..barrier..BarrierState$GT$$GT$$GT$17h45e5acfab59aa126E', symObjAddr: 0x1E5C, symBinAddr: 0x65D94, symSize: 0x5C }
  - { offset: 0x1087A4, size: 0x8, addend: 0x0, symName: '__ZN4core3ptr130drop_in_place$LT$gimli..read..dwarf..Dwarf$LT$gimli..read..endian_slice..EndianSlice$LT$gimli..endianity..LittleEndian$GT$$GT$$GT$17h042d8a4df53708fcE', symObjAddr: 0x1EB8, symBinAddr: 0x65DF0, symSize: 0x5C }
  - { offset: 0x108840, size: 0x8, addend: 0x0, symName: '__ZN4core3ptr131drop_in_place$LT$alloc..boxed..Box$LT$dyn$u20$core..ops..function..FnOnce$LT$$LP$$RP$$GT$$u2b$Output$u20$$u3d$$u20$$LP$$RP$$GT$$GT$17h3e55900ade591debE', symObjAddr: 0x1F14, symBinAddr: 0x65E4C, symSize: 0x78 }
  - { offset: 0x108935, size: 0x8, addend: 0x0, symName: '__ZN4core3ptr137drop_in_place$LT$gimli..read..dwarf..Unit$LT$gimli..read..endian_slice..EndianSlice$LT$gimli..endianity..LittleEndian$GT$$C$usize$GT$$GT$17he80e5a2d4e297f7bE', symObjAddr: 0x1F8C, symBinAddr: 0x65EC4, symSize: 0x58 }
  - { offset: 0x108A0F, size: 0x8, addend: 0x0, symName: '__ZN4core3ptr144drop_in_place$LT$alloc..vec..Vec$LT$core..option..Option$LT$core..option..Option$LT$std..backtrace_rs..symbolize..gimli..Mapping$GT$$GT$$GT$$GT$17h58401c526e8896beE', symObjAddr: 0x1FE4, symBinAddr: 0x65F1C, symSize: 0x10C }
  - { offset: 0x108BB9, size: 0x8, addend: 0x0, symName: '__ZN4core3ptr146drop_in_place$LT$alloc..vec..Vec$LT$addr2line..ResUnit$LT$gimli..read..endian_slice..EndianSlice$LT$gimli..endianity..LittleEndian$GT$$GT$$GT$$GT$17h2f045312a0670fbbE', symObjAddr: 0x20F0, symBinAddr: 0x66028, symSize: 0xC4 }
  - { offset: 0x108D25, size: 0x8, addend: 0x0, symName: '__ZN4core3ptr146drop_in_place$LT$alloc..vec..Vec$LT$addr2line..SupUnit$LT$gimli..read..endian_slice..EndianSlice$LT$gimli..endianity..LittleEndian$GT$$GT$$GT$$GT$17ha3d3d49b42524e49E', symObjAddr: 0x21B4, symBinAddr: 0x660EC, symSize: 0x118 }
  - { offset: 0x108F26, size: 0x8, addend: 0x0, symName: '__ZN4core3ptr152drop_in_place$LT$alloc..collections..btree..map..BTreeMap$LT$std..ffi..os_str..OsString$C$core..option..Option$LT$std..ffi..os_str..OsString$GT$$GT$$GT$17h11b8380250ea986eE', symObjAddr: 0x22CC, symBinAddr: 0x66204, symSize: 0xD0 }
  - { offset: 0x109141, size: 0x8, addend: 0x0, symName: '__ZN4core3ptr158drop_in_place$LT$alloc..boxed..Box$LT$$u5b$addr2line..ResUnit$LT$gimli..read..endian_slice..EndianSlice$LT$gimli..endianity..LittleEndian$GT$$GT$$u5d$$GT$$GT$17haeff567923c42315E', symObjAddr: 0x239C, symBinAddr: 0x662D4, symSize: 0xB4 }
  - { offset: 0x109244, size: 0x8, addend: 0x0, symName: '__ZN4core3ptr158drop_in_place$LT$alloc..boxed..Box$LT$$u5b$addr2line..SupUnit$LT$gimli..read..endian_slice..EndianSlice$LT$gimli..endianity..LittleEndian$GT$$GT$$u5d$$GT$$GT$17h7595630e3dbd339dE', symObjAddr: 0x2450, symBinAddr: 0x66388, symSize: 0x108 }
  - { offset: 0x1093F8, size: 0x8, addend: 0x0, symName: '__ZN4core3ptr159drop_in_place$LT$alloc..sync..ArcInner$LT$gimli..read..dwarf..Dwarf$LT$gimli..read..endian_slice..EndianSlice$LT$gimli..endianity..LittleEndian$GT$$GT$$GT$$GT$17h3d3cc9cef00c82acE', symObjAddr: 0x2558, symBinAddr: 0x66490, symSize: 0x5C }
  - { offset: 0x109514, size: 0x8, addend: 0x0, symName: '__ZN4core3ptr174drop_in_place$LT$core..result..Result$LT$addr2line..FrameIter$LT$gimli..read..endian_slice..EndianSlice$LT$gimli..endianity..LittleEndian$GT$$GT$$C$gimli..read..Error$GT$$GT$17hded63d249d5899ceE', symObjAddr: 0x25B4, symBinAddr: 0x664EC, symSize: 0x44 }
  - { offset: 0x109628, size: 0x8, addend: 0x0, symName: '__ZN4core3ptr175drop_in_place$LT$std..sync..reentrant_lock..ReentrantLockGuard$LT$core..cell..RefCell$LT$std..io..buffered..linewriter..LineWriter$LT$std..io..stdio..StdoutRaw$GT$$GT$$GT$$GT$17hea0bfcaeaf4424abE', symObjAddr: 0x25F8, symBinAddr: 0x66530, symSize: 0x3C }
  - { offset: 0x10976C, size: 0x8, addend: 0x0, symName: '__ZN4core3ptr181drop_in_place$LT$core..option..Option$LT$gimli..read..line..IncompleteLineProgram$LT$gimli..read..endian_slice..EndianSlice$LT$gimli..endianity..LittleEndian$GT$$C$usize$GT$$GT$$GT$17hfda766512fe187a4E', symObjAddr: 0x2634, symBinAddr: 0x6656C, symSize: 0x94 }
  - { offset: 0x109A53, size: 0x8, addend: 0x0, symName: '__ZN4core3ptr184drop_in_place$LT$core..result..Result$LT$addr2line..function..Functions$LT$gimli..read..endian_slice..EndianSlice$LT$gimli..endianity..LittleEndian$GT$$GT$$C$gimli..read..Error$GT$$GT$17h37dd9e9767196236E', symObjAddr: 0x26C8, symBinAddr: 0x66600, symSize: 0xD8 }
  - { offset: 0x109D11, size: 0x8, addend: 0x0, symName: '__ZN4core3ptr205drop_in_place$LT$$LT$alloc..boxed..Box$LT$dyn$u20$core..error..Error$u2b$core..marker..Sync$u2b$core..marker..Send$GT$$u20$as$u20$core..convert..From$LT$alloc..string..String$GT$$GT$..from..StringError$GT$17he302d9342890b1a1E', symObjAddr: 0x27A0, symBinAddr: 0x666D8, symSize: 0x28 }
  - { offset: 0x109DED, size: 0x8, addend: 0x0, symName: '__ZN4core3ptr215drop_in_place$LT$std..sys..thread_local..native..lazy..State$LT$core..cell..Cell$LT$core..option..Option$LT$alloc..sync..Arc$LT$std..sync..mutex..Mutex$LT$alloc..vec..Vec$LT$u8$GT$$GT$$GT$$GT$$GT$$C$$LP$$RP$$GT$$GT$17h123a451c0999642bE', symObjAddr: 0x27C8, symBinAddr: 0x66700, symSize: 0x44 }
  - { offset: 0x109EB7, size: 0x8, addend: 0x0, symName: '__ZN4core3ptr250drop_in_place$LT$$LP$gimli..read..UnitOffset$C$addr2line..lazy..LazyCell$LT$core..result..Result$LT$addr2line..function..Function$LT$gimli..read..endian_slice..EndianSlice$LT$gimli..endianity..LittleEndian$GT$$GT$$C$gimli..read..Error$GT$$GT$$RP$$GT$17hc03c8ae24db21262E', symObjAddr: 0x280C, symBinAddr: 0x66744, symSize: 0x64 }
  - { offset: 0x109ECF, size: 0x8, addend: 0x0, symName: '__ZN4core3ptr250drop_in_place$LT$$LP$gimli..read..UnitOffset$C$addr2line..lazy..LazyCell$LT$core..result..Result$LT$addr2line..function..Function$LT$gimli..read..endian_slice..EndianSlice$LT$gimli..endianity..LittleEndian$GT$$GT$$C$gimli..read..Error$GT$$GT$$RP$$GT$17hc03c8ae24db21262E', symObjAddr: 0x280C, symBinAddr: 0x66744, symSize: 0x64 }
  - { offset: 0x109EE5, size: 0x8, addend: 0x0, symName: '__ZN4core3ptr250drop_in_place$LT$$LP$gimli..read..UnitOffset$C$addr2line..lazy..LazyCell$LT$core..result..Result$LT$addr2line..function..Function$LT$gimli..read..endian_slice..EndianSlice$LT$gimli..endianity..LittleEndian$GT$$GT$$C$gimli..read..Error$GT$$GT$$RP$$GT$17hc03c8ae24db21262E', symObjAddr: 0x280C, symBinAddr: 0x66744, symSize: 0x64 }
  - { offset: 0x109EFB, size: 0x8, addend: 0x0, symName: '__ZN4core3ptr250drop_in_place$LT$$LP$gimli..read..UnitOffset$C$addr2line..lazy..LazyCell$LT$core..result..Result$LT$addr2line..function..Function$LT$gimli..read..endian_slice..EndianSlice$LT$gimli..endianity..LittleEndian$GT$$GT$$C$gimli..read..Error$GT$$GT$$RP$$GT$17hc03c8ae24db21262E', symObjAddr: 0x280C, symBinAddr: 0x66744, symSize: 0x64 }
  - { offset: 0x10A04B, size: 0x8, addend: 0x0, symName: '__ZN4core3ptr273drop_in_place$LT$alloc..vec..Vec$LT$$LP$gimli..read..UnitOffset$C$addr2line..lazy..LazyCell$LT$core..result..Result$LT$addr2line..function..Function$LT$gimli..read..endian_slice..EndianSlice$LT$gimli..endianity..LittleEndian$GT$$GT$$C$gimli..read..Error$GT$$GT$$RP$$GT$$GT$17ha8abef46e58360eaE', symObjAddr: 0x2870, symBinAddr: 0x667A8, symSize: 0xAC }
  - { offset: 0x10A27E, size: 0x8, addend: 0x0, symName: '__ZN4core3ptr275drop_in_place$LT$gimli..read..line..LineRows$LT$gimli..read..endian_slice..EndianSlice$LT$gimli..endianity..LittleEndian$GT$$C$gimli..read..line..IncompleteLineProgram$LT$gimli..read..endian_slice..EndianSlice$LT$gimli..endianity..LittleEndian$GT$$C$usize$GT$$C$usize$GT$$GT$17hc2f64fbb18e292e5E', symObjAddr: 0x291C, symBinAddr: 0x66854, symSize: 0x88 }
  - { offset: 0x10A4CB, size: 0x8, addend: 0x0, symName: '__ZN4core3ptr280drop_in_place$LT$$LT$alloc..collections..btree..map..IntoIter$LT$K$C$V$C$A$GT$$u20$as$u20$core..ops..drop..Drop$GT$..drop..DropGuard$LT$u64$C$core..result..Result$LT$alloc..sync..Arc$LT$gimli..read..abbrev..Abbreviations$GT$$C$gimli..read..Error$GT$$C$alloc..alloc..Global$GT$$GT$17h1439662b570573ffE', symObjAddr: 0x29A4, symBinAddr: 0x668DC, symSize: 0x70 }
  - { offset: 0x10A624, size: 0x8, addend: 0x0, symName: '__ZN4core3ptr285drop_in_place$LT$alloc..boxed..Box$LT$$u5b$$LP$gimli..read..UnitOffset$C$addr2line..lazy..LazyCell$LT$core..result..Result$LT$addr2line..function..Function$LT$gimli..read..endian_slice..EndianSlice$LT$gimli..endianity..LittleEndian$GT$$GT$$C$gimli..read..Error$GT$$GT$$RP$$u5d$$GT$$GT$17h6f16ee0bf76e2c5eE', symObjAddr: 0x2A14, symBinAddr: 0x6694C, symSize: 0x9C }
  - { offset: 0x10A63C, size: 0x8, addend: 0x0, symName: '__ZN4core3ptr285drop_in_place$LT$alloc..boxed..Box$LT$$u5b$$LP$gimli..read..UnitOffset$C$addr2line..lazy..LazyCell$LT$core..result..Result$LT$addr2line..function..Function$LT$gimli..read..endian_slice..EndianSlice$LT$gimli..endianity..LittleEndian$GT$$GT$$C$gimli..read..Error$GT$$GT$$RP$$u5d$$GT$$GT$17h6f16ee0bf76e2c5eE', symObjAddr: 0x2A14, symBinAddr: 0x6694C, symSize: 0x9C }
  - { offset: 0x10B0F4, size: 0x8, addend: 0x0, symName: '__ZN4core3ptr37drop_in_place$LT$std..env..VarsOs$GT$17hfbf8e037b1dbf7e2E', symObjAddr: 0x2AB0, symBinAddr: 0x669E8, symSize: 0xAC }
  - { offset: 0x10B3D5, size: 0x8, addend: 0x0, symName: '__ZN4core3ptr383drop_in_place$LT$core..result..Result$LT$core..option..Option$LT$alloc..boxed..Box$LT$$LP$alloc..sync..Arc$LT$gimli..read..dwarf..Dwarf$LT$gimli..read..endian_slice..EndianSlice$LT$gimli..endianity..LittleEndian$GT$$GT$$GT$$C$gimli..read..dwarf..Unit$LT$gimli..read..endian_slice..EndianSlice$LT$gimli..endianity..LittleEndian$GT$$C$usize$GT$$RP$$GT$$GT$$C$gimli..read..Error$GT$$GT$17h689b89efe2545051E', symObjAddr: 0x2B5C, symBinAddr: 0x66A94, symSize: 0xE0 }
  - { offset: 0x10B5D7, size: 0x8, addend: 0x0, symName: '__ZN4core3ptr39drop_in_place$LT$std..path..PathBuf$GT$17h8669f26f09f7dd17E', symObjAddr: 0x2C3C, symBinAddr: 0x66B74, symSize: 0x28 }
  - { offset: 0x10B6E4, size: 0x8, addend: 0x0, symName: '__ZN4core3ptr40drop_in_place$LT$std..process..Child$GT$17h5f7b4444abf325e3E', symObjAddr: 0x2C64, symBinAddr: 0x66B9C, symSize: 0x54 }
  - { offset: 0x10B8B0, size: 0x8, addend: 0x0, symName: '__ZN4core3ptr40drop_in_place$LT$std..thread..Thread$GT$17hf842247fe5ef611bE', symObjAddr: 0x2CB8, symBinAddr: 0x66BF0, symSize: 0x34 }
  - { offset: 0x10B987, size: 0x8, addend: 0x0, symName: '__ZN4core3ptr41drop_in_place$LT$std..panicking..Hook$GT$17h0ae09bc0744f6ee2E', symObjAddr: 0x2CEC, symBinAddr: 0x66C24, symSize: 0x7C }
  - { offset: 0x10BA8B, size: 0x8, addend: 0x0, symName: '__ZN4core3ptr42drop_in_place$LT$alloc..string..String$GT$17h2bdc281c3e06b9b4E', symObjAddr: 0x2D68, symBinAddr: 0x66CA0, symSize: 0x28 }
  - { offset: 0x10BB5E, size: 0x8, addend: 0x0, symName: '__ZN4core3ptr42drop_in_place$LT$std..io..error..Error$GT$17h66da0c864c23f321E', symObjAddr: 0x2D90, symBinAddr: 0x66CC8, symSize: 0xB4 }
  - { offset: 0x10BDA6, size: 0x8, addend: 0x0, symName: '__ZN4core3ptr44drop_in_place$LT$object..read..ObjectMap$GT$17h03e18fe98342abb3E', symObjAddr: 0x2E44, symBinAddr: 0x66D7C, symSize: 0x58 }
  - { offset: 0x10BEF2, size: 0x8, addend: 0x0, symName: '__ZN4core3ptr44drop_in_place$LT$std..backtrace..Capture$GT$17h48168e1f45ca2b2bE', symObjAddr: 0x2E9C, symBinAddr: 0x66DD4, symSize: 0x6C }
  - { offset: 0x10BFDA, size: 0x8, addend: 0x0, symName: '__ZN4core3ptr44drop_in_place$LT$std..thread..PanicGuard$GT$17h1312448f04ad0e90E', symObjAddr: 0x2F08, symBinAddr: 0x66E40, symSize: 0x44 }
  - { offset: 0x10C030, size: 0x8, addend: 0x0, symName: '__ZN4core3ptr44drop_in_place$LT$std..thread..ThreadName$GT$17hab820ca5e4f374ffE', symObjAddr: 0x2F4C, symBinAddr: 0x66E84, symSize: 0x3C }
  - { offset: 0x10C0E4, size: 0x8, addend: 0x0, symName: '__ZN4core3ptr46drop_in_place$LT$alloc..vec..Vec$LT$u8$GT$$GT$17h9055b3468c3a90fbE', symObjAddr: 0x2F88, symBinAddr: 0x66EC0, symSize: 0x28 }
  - { offset: 0x10C168, size: 0x8, addend: 0x0, symName: '__ZN4core3ptr46drop_in_place$LT$std..io..stdio..StdinLock$GT$17hbfffac18fffc2726E', symObjAddr: 0x2FB0, symBinAddr: 0x66EE8, symSize: 0x68 }
  - { offset: 0x10C2AC, size: 0x8, addend: 0x0, symName: '__ZN4core3ptr47drop_in_place$LT$alloc..ffi..c_str..CString$GT$17h09f9d3a5bc22fb4eE', symObjAddr: 0x3018, symBinAddr: 0x66F50, symSize: 0x30 }
  - { offset: 0x10C332, size: 0x8, addend: 0x0, symName: '__ZN4core3ptr47drop_in_place$LT$std..ffi..os_str..OsString$GT$17hd5810fb33971ba15E', symObjAddr: 0x3048, symBinAddr: 0x66F80, symSize: 0x28 }
  - { offset: 0x10C3C6, size: 0x8, addend: 0x0, symName: '__ZN4core3ptr48drop_in_place$LT$alloc..ffi..c_str..NulError$GT$17h46a83d046097c550E', symObjAddr: 0x3070, symBinAddr: 0x66FA8, symSize: 0x28 }
  - { offset: 0x10C453, size: 0x8, addend: 0x0, symName: '__ZN4core3ptr49drop_in_place$LT$std..sys..pal..unix..os..Env$GT$17h65a5fd2065d4ef70E', symObjAddr: 0x3098, symBinAddr: 0x66FD0, symSize: 0xAC }
  - { offset: 0x10C771, size: 0x8, addend: 0x0, symName: '__ZN4core3ptr51drop_in_place$LT$std..backtrace..BacktraceFrame$GT$17ha9fa824a418d74abE', symObjAddr: 0x3144, symBinAddr: 0x6707C, symSize: 0xE4 }
  - { offset: 0x10C9FF, size: 0x8, addend: 0x0, symName: '__ZN4core3ptr52drop_in_place$LT$std..backtrace..BacktraceSymbol$GT$17hed71c80503b6a4bfE', symObjAddr: 0x3228, symBinAddr: 0x67160, symSize: 0x90 }
  - { offset: 0x10CBEA, size: 0x8, addend: 0x0, symName: '__ZN4core3ptr52drop_in_place$LT$std..sys..pal..unix..args..Args$GT$17h1c274da0896687fcE', symObjAddr: 0x32B8, symBinAddr: 0x671F0, symSize: 0x98 }
  - { offset: 0x10CDEC, size: 0x8, addend: 0x0, symName: '__ZN4core3ptr54drop_in_place$LT$std..sys..pal..unix..fd..FileDesc$GT$17h116cf9af1b7fc5b4E', symObjAddr: 0x3350, symBinAddr: 0x67288, symSize: 0x14 }
  - { offset: 0x10CE58, size: 0x8, addend: 0x0, symName: '__ZN4core3ptr55drop_in_place$LT$gimli..read..abbrev..Abbreviations$GT$17h3b916c846c1de88eE', symObjAddr: 0x3364, symBinAddr: 0x6729C, symSize: 0x84 }
  - { offset: 0x10CFD7, size: 0x8, addend: 0x0, symName: '__ZN4core3ptr57drop_in_place$LT$std..sys_common..process..CommandEnv$GT$17h7608ace43f81fdfbE', symObjAddr: 0x33E8, symBinAddr: 0x67320, symSize: 0x10 }
  - { offset: 0x10D01C, size: 0x8, addend: 0x0, symName: '__ZN4core3ptr60drop_in_place$LT$gimli..read..abbrev..AbbreviationsCache$GT$17h195bc5886a3cba73E', symObjAddr: 0x33F8, symBinAddr: 0x67330, symSize: 0xB8 }
  - { offset: 0x10D1C2, size: 0x8, addend: 0x0, symName: '__ZN4core3ptr62drop_in_place$LT$std..sys..sync..rwlock..queue..PanicGuard$GT$17h113a9e410f86a791E', symObjAddr: 0x34B0, symBinAddr: 0x673E8, symSize: 0x44 }
  - { offset: 0x10D226, size: 0x8, addend: 0x0, symName: '__ZN4core3ptr65drop_in_place$LT$alloc..vec..Vec$LT$alloc..string..String$GT$$GT$17h351373962ac2533cE', symObjAddr: 0x34F4, symBinAddr: 0x6742C, symSize: 0x80 }
  - { offset: 0x10D384, size: 0x8, addend: 0x0, symName: '__ZN4core3ptr65drop_in_place$LT$std..backtrace_rs..symbolize..gimli..Mapping$GT$17hdebbc932edf637b1E', symObjAddr: 0x3574, symBinAddr: 0x674AC, symSize: 0x70 }
  - { offset: 0x10D440, size: 0x8, addend: 0x0, symName: '__ZN4core3ptr67drop_in_place$LT$alloc..vec..Vec$LT$addr2line..LineSequence$GT$$GT$17h900e9b805767614aE', symObjAddr: 0x35E4, symBinAddr: 0x6751C, symSize: 0x84 }
  - { offset: 0x10D591, size: 0x8, addend: 0x0, symName: '__ZN4core3ptr70drop_in_place$LT$alloc..vec..Vec$LT$alloc..ffi..c_str..CString$GT$$GT$17hc4fa5b230988aa4fE', symObjAddr: 0x3668, symBinAddr: 0x675A0, symSize: 0x80 }
  - { offset: 0x10D73C, size: 0x8, addend: 0x0, symName: '__ZN4core3ptr70drop_in_place$LT$std..backtrace_rs..symbolize..gimli..stash..Stash$GT$17hfda4ee9ca87f1e17E', symObjAddr: 0x3768, symBinAddr: 0x67620, symSize: 0xB8 }
  - { offset: 0x10D9FB, size: 0x8, addend: 0x0, symName: '__ZN4core3ptr71drop_in_place$LT$std..backtrace_rs..symbolize..gimli..macho..Object$GT$17hc9c9d4664f9fd6c6E', symObjAddr: 0x3820, symBinAddr: 0x676D8, symSize: 0x15C }
  - { offset: 0x10DD2F, size: 0x8, addend: 0x0, symName: '__ZN4core3ptr71drop_in_place$LT$std..panicking..rust_panic_without_hook..RewrapBox$GT$17h961ae12e9ec46dc2E', symObjAddr: 0x397C, symBinAddr: 0x67834, symSize: 0x6C }
  - { offset: 0x10DE33, size: 0x8, addend: 0x0, symName: '__ZN4core3ptr71drop_in_place$LT$std..sync..rwlock..RwLockReadGuard$LT$$LP$$RP$$GT$$GT$17h45f1291f936a8561E', symObjAddr: 0x39E8, symBinAddr: 0x678A0, symSize: 0x64 }
  - { offset: 0x10DEDD, size: 0x8, addend: 0x0, symName: '__ZN4core3ptr72drop_in_place$LT$core..option..Option$LT$object..read..ObjectMap$GT$$GT$17h9796204f57a7df34E', symObjAddr: 0x3A4C, symBinAddr: 0x67904, symSize: 0x64 }
  - { offset: 0x10E016, size: 0x8, addend: 0x0, symName: '__ZN4core3ptr73drop_in_place$LT$core..option..Option$LT$std..process..ChildStdin$GT$$GT$17hec364ac5f40fca72E', symObjAddr: 0x3AB0, symBinAddr: 0x67968, symSize: 0x24 }
  - { offset: 0x10E09D, size: 0x8, addend: 0x0, symName: '__ZN4core3ptr75drop_in_place$LT$core..option..Option$LT$alloc..ffi..c_str..CString$GT$$GT$17h28ec0891bcdda9e4E', symObjAddr: 0x3AD4, symBinAddr: 0x6798C, symSize: 0x34 }
  - { offset: 0x10E13A, size: 0x8, addend: 0x0, symName: '__ZN4core3ptr77drop_in_place$LT$alloc..boxed..Box$LT$$u5b$alloc..string..String$u5d$$GT$$GT$17h2fa2f701f6afddedE', symObjAddr: 0x3B08, symBinAddr: 0x679C0, symSize: 0x70 }
  - { offset: 0x10E152, size: 0x8, addend: 0x0, symName: '__ZN4core3ptr77drop_in_place$LT$alloc..boxed..Box$LT$$u5b$alloc..string..String$u5d$$GT$$GT$17h2fa2f701f6afddedE', symObjAddr: 0x3B08, symBinAddr: 0x679C0, symSize: 0x70 }
  - { offset: 0x10E25B, size: 0x8, addend: 0x0, symName: '__ZN4core3ptr77drop_in_place$LT$std..panicking..begin_panic_handler..FormatStringPayload$GT$17h38dc2e09ecc99534E', symObjAddr: 0x3B78, symBinAddr: 0x67A30, symSize: 0x34 }
  - { offset: 0x10E316, size: 0x8, addend: 0x0, symName: '__ZN4core3ptr77drop_in_place$LT$std..sys..pal..unix..process..process_common..ChildPipes$GT$17ha12161ad34df7d0dE', symObjAddr: 0x3BAC, symBinAddr: 0x67A64, symSize: 0x78 }
  - { offset: 0x10E432, size: 0x8, addend: 0x0, symName: '__ZN4core3ptr77drop_in_place$LT$std..sys..pal..unix..process..process_common..StdioPipes$GT$17h56b1f4a050b4814bE', symObjAddr: 0x3C24, symBinAddr: 0x67ADC, symSize: 0x54 }
  - { offset: 0x10E59D, size: 0x8, addend: 0x0, symName: '__ZN4core3ptr78drop_in_place$LT$core..result..Result$LT$usize$C$std..io..error..Error$GT$$GT$17hfb72410404fa87e3E', symObjAddr: 0x3C78, symBinAddr: 0x67B30, symSize: 0x24 }
  - { offset: 0x10E5B1, size: 0x8, addend: 0x0, symName: '__ZN4core3ptr79drop_in_place$LT$std..sys..pal..unix..process..process_common..CStringArray$GT$17hc8e8b36df8eff980E', symObjAddr: 0x3C9C, symBinAddr: 0x67B54, symSize: 0x98 }
  - { offset: 0x10E782, size: 0x8, addend: 0x0, symName: '__ZN4core3ptr81drop_in_place$LT$core..result..Result$LT$$LP$$RP$$C$std..io..error..Error$GT$$GT$17he77271fcf12bbc18E', symObjAddr: 0x3D34, symBinAddr: 0x67BEC, symSize: 0x20 }
  - { offset: 0x10E796, size: 0x8, addend: 0x0, symName: '__ZN4core3ptr84drop_in_place$LT$$LP$std..ffi..os_str..OsString$C$std..ffi..os_str..OsString$RP$$GT$17ha1448b66f8115b70E', symObjAddr: 0x3D54, symBinAddr: 0x67C0C, symSize: 0x4C }
  - { offset: 0x10E8E5, size: 0x8, addend: 0x0, symName: '__ZN4core3ptr84drop_in_place$LT$alloc..sync..ArcInner$LT$gimli..read..abbrev..Abbreviations$GT$$GT$17h6479223f060ebaa5E', symObjAddr: 0x3DA0, symBinAddr: 0x67C58, symSize: 0x84 }
  - { offset: 0x10EAAC, size: 0x8, addend: 0x0, symName: '__ZN4core3ptr86drop_in_place$LT$core..result..Result$LT$addr2line..Lines$C$gimli..read..Error$GT$$GT$17ha164628fd886a3ebE', symObjAddr: 0x3E24, symBinAddr: 0x67CDC, symSize: 0xE4 }
  - { offset: 0x10ED1C, size: 0x8, addend: 0x0, symName: '__ZN4core3ptr87drop_in_place$LT$alloc..sync..ArcInner$LT$std..sys..pal..unix..fs..InnerReadDir$GT$$GT$17h56e6c6dbab73e727E', symObjAddr: 0x3F08, symBinAddr: 0x67DC0, symSize: 0x60 }
  - { offset: 0x10EEC5, size: 0x8, addend: 0x0, symName: '__ZN4core3ptr87drop_in_place$LT$core..option..Option$LT$alloc..boxed..Box$LT$$u5b$u32$u5d$$GT$$GT$$GT$17h1b2f69dde4e5f77dE', symObjAddr: 0x3F68, symBinAddr: 0x67E20, symSize: 0x34 }
  - { offset: 0x10EFA7, size: 0x8, addend: 0x0, symName: '__ZN4core3ptr88drop_in_place$LT$alloc..vec..Vec$LT$std..backtrace_rs..symbolize..gimli..Library$GT$$GT$17h91ba9e2e855e83ceE', symObjAddr: 0x3F9C, symBinAddr: 0x67E54, symSize: 0x98 }
  - { offset: 0x10F186, size: 0x8, addend: 0x0, symName: '__ZN4core3ptr88drop_in_place$LT$std..io..Write..write_fmt..Adapter$LT$alloc..vec..Vec$LT$u8$GT$$GT$$GT$17h8c290d6f0bca7794E', symObjAddr: 0x4034, symBinAddr: 0x67EEC, symSize: 0x20 }
  - { offset: 0x10F1CD, size: 0x8, addend: 0x0, symName: '__ZN4core3ptr90drop_in_place$LT$std..io..buffered..bufwriter..BufWriter$LT$W$GT$..flush_buf..BufGuard$GT$17h3df9289022535494E', symObjAddr: 0x4054, symBinAddr: 0x67F0C, symSize: 0x60 }
  - { offset: 0x10F348, size: 0x8, addend: 0x0, symName: '__ZN4core3ptr91drop_in_place$LT$core..result..Result$LT$alloc..string..String$C$std..env..VarError$GT$$GT$17h1e94dba99aa48ddfE', symObjAddr: 0x40B4, symBinAddr: 0x67F6C, symSize: 0x3C }
  - { offset: 0x10F3E5, size: 0x8, addend: 0x0, symName: '__ZN4core3ptr91drop_in_place$LT$core..result..Result$LT$std..path..PathBuf$C$std..io..error..Error$GT$$GT$17h8744b157e1d4bb48E', symObjAddr: 0x40F0, symBinAddr: 0x67FA8, symSize: 0x40 }
  - { offset: 0x10F4B5, size: 0x8, addend: 0x0, symName: '__ZN4core3ptr92drop_in_place$LT$alloc..boxed..Box$LT$std..sys..sync..mutex..pthread..AllocatedMutex$GT$$GT$17h6bc4e095dc230eb4E', symObjAddr: 0x4130, symBinAddr: 0x67FE8, symSize: 0x2C }
  - { offset: 0x10F557, size: 0x8, addend: 0x0, symName: '__ZN4core3ptr95drop_in_place$LT$core..option..IntoIter$LT$std..backtrace_rs..symbolize..gimli..Library$GT$$GT$17ha944061dec8c7fd8E', symObjAddr: 0x415C, symBinAddr: 0x68014, symSize: 0x5C }
  - { offset: 0x10F576, size: 0x8, addend: 0x0, symName: '__ZN4core3ptr95drop_in_place$LT$core..option..IntoIter$LT$std..backtrace_rs..symbolize..gimli..Library$GT$$GT$17ha944061dec8c7fd8E', symObjAddr: 0x415C, symBinAddr: 0x68014, symSize: 0x5C }
  - { offset: 0x10F58C, size: 0x8, addend: 0x0, symName: '__ZN4core3ptr95drop_in_place$LT$core..option..IntoIter$LT$std..backtrace_rs..symbolize..gimli..Library$GT$$GT$17ha944061dec8c7fd8E', symObjAddr: 0x415C, symBinAddr: 0x68014, symSize: 0x5C }
  - { offset: 0x10F6DB, size: 0x8, addend: 0x0, symName: '__ZN4core3ptr95drop_in_place$LT$std..io..buffered..linewriter..LineWriter$LT$std..io..stdio..StdoutRaw$GT$$GT$17hcc417b509eccd524E', symObjAddr: 0x41B8, symBinAddr: 0x68070, symSize: 0x84 }
  - { offset: 0x111B50, size: 0x8, addend: 0x0, symName: '__ZN66_$LT$core..option..Option$LT$T$GT$$u20$as$u20$core..fmt..Debug$GT$3fmt17h33fe09df73e8d82fE', symObjAddr: 0x17F00, symBinAddr: 0x7B774, symSize: 0x60 }
  - { offset: 0x111B6B, size: 0x8, addend: 0x0, symName: '__ZN66_$LT$core..option..Option$LT$T$GT$$u20$as$u20$core..fmt..Debug$GT$3fmt17h64449f1dd537e094E', symObjAddr: 0x17F60, symBinAddr: 0x7B7D4, symSize: 0x5C }
  - { offset: 0x111B86, size: 0x8, addend: 0x0, symName: '__ZN66_$LT$core..option..Option$LT$T$GT$$u20$as$u20$core..fmt..Debug$GT$3fmt17h7bead13b7bd54748E', symObjAddr: 0x17FBC, symBinAddr: 0x7B830, symSize: 0x60 }
  - { offset: 0x111BA1, size: 0x8, addend: 0x0, symName: '__ZN66_$LT$core..option..Option$LT$T$GT$$u20$as$u20$core..fmt..Debug$GT$3fmt17hb8fd7376f33ff939E', symObjAddr: 0x1801C, symBinAddr: 0x7B890, symSize: 0x60 }
  - { offset: 0x111BBC, size: 0x8, addend: 0x0, symName: '__ZN66_$LT$core..option..Option$LT$T$GT$$u20$as$u20$core..fmt..Debug$GT$3fmt17hbbb41e20570659edE', symObjAddr: 0x1807C, symBinAddr: 0x7B8F0, symSize: 0x60 }
  - { offset: 0x111BD7, size: 0x8, addend: 0x0, symName: '__ZN66_$LT$core..option..Option$LT$T$GT$$u20$as$u20$core..fmt..Debug$GT$3fmt17hd13f8e9a33fc3a85E', symObjAddr: 0x180DC, symBinAddr: 0x7B950, symSize: 0x5C }
  - { offset: 0x111BF2, size: 0x8, addend: 0x0, symName: '__ZN66_$LT$core..option..Option$LT$T$GT$$u20$as$u20$core..fmt..Debug$GT$3fmt17hd8a0e52a386e808fE', symObjAddr: 0x18138, symBinAddr: 0x7B9AC, symSize: 0x60 }
  - { offset: 0x111C0D, size: 0x8, addend: 0x0, symName: '__ZN66_$LT$core..option..Option$LT$T$GT$$u20$as$u20$core..fmt..Debug$GT$3fmt17he17cb5b9d9100dfcE', symObjAddr: 0x18198, symBinAddr: 0x7BA0C, symSize: 0x5C }
  - { offset: 0x111C28, size: 0x8, addend: 0x0, symName: '__ZN66_$LT$core..option..Option$LT$T$GT$$u20$as$u20$core..fmt..Debug$GT$3fmt17he3a6ad1eb9a43c9dE', symObjAddr: 0x181F4, symBinAddr: 0x7BA68, symSize: 0x60 }
  - { offset: 0x114405, size: 0x8, addend: 0x0, symName: __ZN4core5slice4sort6shared5pivot11median3_rec17h04b9d0d2112cd472E, symObjAddr: 0x4610, symBinAddr: 0x682AC, symSize: 0xD0 }
  - { offset: 0x11450A, size: 0x8, addend: 0x0, symName: __ZN4core5slice4sort6shared5pivot11median3_rec17h74c340e2de7d3f46E, symObjAddr: 0x46E0, symBinAddr: 0x6837C, symSize: 0xCC }
  - { offset: 0x11460F, size: 0x8, addend: 0x0, symName: __ZN4core5slice4sort6shared5pivot11median3_rec17h77e0ad62818ec898E, symObjAddr: 0x47AC, symBinAddr: 0x68448, symSize: 0xCC }
  - { offset: 0x114714, size: 0x8, addend: 0x0, symName: __ZN4core5slice4sort6shared5pivot11median3_rec17h8b6c3d91de8681a0E, symObjAddr: 0x4878, symBinAddr: 0x68514, symSize: 0xD0 }
  - { offset: 0x114819, size: 0x8, addend: 0x0, symName: __ZN4core5slice4sort6shared5pivot11median3_rec17h8ec50b0412895b5dE, symObjAddr: 0x4948, symBinAddr: 0x685E4, symSize: 0xD0 }
  - { offset: 0x11491E, size: 0x8, addend: 0x0, symName: __ZN4core5slice4sort6shared5pivot11median3_rec17h993fd65d12581bcbE, symObjAddr: 0x4A18, symBinAddr: 0x686B4, symSize: 0x11C }
  - { offset: 0x114A27, size: 0x8, addend: 0x0, symName: __ZN4core5slice4sort6shared5pivot11median3_rec17had5f1afc4d5f0826E, symObjAddr: 0x4B34, symBinAddr: 0x687D0, symSize: 0x134 }
  - { offset: 0x114C66, size: 0x8, addend: 0x0, symName: __ZN4core5slice4sort6shared5pivot11median3_rec17hec6a1d8336dd3f3cE, symObjAddr: 0x4C68, symBinAddr: 0x68904, symSize: 0xCC }
  - { offset: 0x114E9E, size: 0x8, addend: 0x0, symName: __ZN4core5slice4sort6shared9smallsort12sort4_stable17h4b36114d0cf62b1cE, symObjAddr: 0x4D34, symBinAddr: 0x689D0, symSize: 0x1A4 }
  - { offset: 0x115059, size: 0x8, addend: 0x0, symName: __ZN4core5slice4sort6shared9smallsort12sort4_stable17h6bfca0ff923ae5feE, symObjAddr: 0x4ED8, symBinAddr: 0x68B74, symSize: 0x180 }
  - { offset: 0x1154A8, size: 0x8, addend: 0x0, symName: __ZN4core5slice4sort6shared9smallsort12sort8_stable17hd333668ac110650cE, symObjAddr: 0x5058, symBinAddr: 0x68CF4, symSize: 0x2B8 }
  - { offset: 0x115A69, size: 0x8, addend: 0x0, symName: __ZN4core5slice4sort6shared9smallsort18small_sort_general17h735d23473ea33dcbE, symObjAddr: 0x5310, symBinAddr: 0x68FAC, symSize: 0x3E0 }
  - { offset: 0x115FFF, size: 0x8, addend: 0x0, symName: __ZN4core5slice4sort6shared9smallsort18small_sort_general17h8d5552a9d2883523E, symObjAddr: 0x56F0, symBinAddr: 0x6938C, symSize: 0x48C }
  - { offset: 0x116A51, size: 0x8, addend: 0x0, symName: __ZN4core5slice4sort6stable14driftsort_main17h00ea740f87881179E, symObjAddr: 0x5B7C, symBinAddr: 0x69818, symSize: 0x128 }
  - { offset: 0x116CEC, size: 0x8, addend: 0x0, symName: __ZN4core5slice4sort6stable14driftsort_main17h1787297776cbc813E, symObjAddr: 0x5CA4, symBinAddr: 0x69940, symSize: 0x138 }
  - { offset: 0x116F87, size: 0x8, addend: 0x0, symName: __ZN4core5slice4sort6stable14driftsort_main17h18565bb5ae5fc96bE, symObjAddr: 0x5DDC, symBinAddr: 0x69A78, symSize: 0x138 }
  - { offset: 0x117222, size: 0x8, addend: 0x0, symName: __ZN4core5slice4sort6stable14driftsort_main17h5c9294b13bc948daE, symObjAddr: 0x5F14, symBinAddr: 0x69BB0, symSize: 0x128 }
  - { offset: 0x1174BD, size: 0x8, addend: 0x0, symName: __ZN4core5slice4sort6stable14driftsort_main17ha409f2a72655ab3cE, symObjAddr: 0x603C, symBinAddr: 0x69CD8, symSize: 0x128 }
  - { offset: 0x117758, size: 0x8, addend: 0x0, symName: __ZN4core5slice4sort6stable14driftsort_main17hc743e19684df460aE, symObjAddr: 0x6164, symBinAddr: 0x69E00, symSize: 0x128 }
  - { offset: 0x117B75, size: 0x8, addend: 0x0, symName: __ZN4core5slice4sort6stable5drift4sort17h31244dbc451ba8baE, symObjAddr: 0x628C, symBinAddr: 0x69F28, symSize: 0x610 }
  - { offset: 0x1182CE, size: 0x8, addend: 0x0, symName: __ZN4core5slice4sort6stable5drift4sort17h6e53b4857e434db5E, symObjAddr: 0x689C, symBinAddr: 0x6A538, symSize: 0x540 }
  - { offset: 0x118AAF, size: 0x8, addend: 0x0, symName: __ZN4core5slice4sort6stable5drift4sort17h8721754c57d72503E, symObjAddr: 0x6DDC, symBinAddr: 0x6AA78, symSize: 0x5BC }
  - { offset: 0x1191F3, size: 0x8, addend: 0x0, symName: __ZN4core5slice4sort6stable5drift4sort17hafc962964f2cfd49E, symObjAddr: 0x7398, symBinAddr: 0x6B034, symSize: 0x5C4 }
  - { offset: 0x11998F, size: 0x8, addend: 0x0, symName: __ZN4core5slice4sort6stable5drift4sort17hbdc7e067cbda2cd8E, symObjAddr: 0x795C, symBinAddr: 0x6B5F8, symSize: 0x4DC }
  - { offset: 0x11A0D7, size: 0x8, addend: 0x0, symName: __ZN4core5slice4sort6stable5drift4sort17hcd0fb6e3fdb9eb6bE, symObjAddr: 0x7E38, symBinAddr: 0x6BAD4, symSize: 0x6E4 }
  - { offset: 0x11AA80, size: 0x8, addend: 0x0, symName: __ZN4core5slice4sort6stable9quicksort9quicksort17h0bc42e398b639b0eE, symObjAddr: 0x851C, symBinAddr: 0x6C1B8, symSize: 0x820 }
  - { offset: 0x11B761, size: 0x8, addend: 0x0, symName: __ZN4core5slice4sort6stable9quicksort9quicksort17h11530b40ef75c262E, symObjAddr: 0x8D3C, symBinAddr: 0x6C9D8, symSize: 0x78C }
  - { offset: 0x11C55F, size: 0x8, addend: 0x0, symName: __ZN4core5slice4sort6stable9quicksort9quicksort17h2243574f1a68364bE, symObjAddr: 0x94C8, symBinAddr: 0x6D164, symSize: 0x730 }
  - { offset: 0x11CD33, size: 0x8, addend: 0x0, symName: __ZN4core5slice4sort6stable9quicksort9quicksort17h6880f0f0ae0b50d4E, symObjAddr: 0x9BF8, symBinAddr: 0x6D894, symSize: 0x81C }
  - { offset: 0x11DEE4, size: 0x8, addend: 0x0, symName: __ZN4core5slice4sort6stable9quicksort9quicksort17ha653fad6ee02d569E, symObjAddr: 0xA414, symBinAddr: 0x6E0B0, symSize: 0x6BC }
  - { offset: 0x11EA56, size: 0x8, addend: 0x0, symName: __ZN4core5slice4sort6stable9quicksort9quicksort17hcc861ecc75d8adebE, symObjAddr: 0xAAD0, symBinAddr: 0x6E76C, symSize: 0x684 }
  - { offset: 0x11F755, size: 0x8, addend: 0x0, symName: __ZN4core5slice4sort8unstable7ipnsort17h2442f5c112558902E, symObjAddr: 0xB154, symBinAddr: 0x6EDF0, symSize: 0x280 }
  - { offset: 0x11FA04, size: 0x8, addend: 0x0, symName: __ZN4core5slice4sort8unstable7ipnsort17h63a80808be2104fcE, symObjAddr: 0xB3D4, symBinAddr: 0x6F070, symSize: 0x1DC }
  - { offset: 0x11FB26, size: 0x8, addend: 0x0, symName: __ZN4core5slice4sort8unstable8heapsort8heapsort17h4e18605dcb994e2dE, symObjAddr: 0xB5B0, symBinAddr: 0x6F24C, symSize: 0xCC }
  - { offset: 0x11FC56, size: 0x8, addend: 0x0, symName: __ZN4core5slice4sort8unstable8heapsort8heapsort17hd699836665c92fd2E, symObjAddr: 0xB67C, symBinAddr: 0x6F318, symSize: 0xCC }
  - { offset: 0x11FD86, size: 0x8, addend: 0x0, symName: __ZN4core5slice4sort8unstable8heapsort9sift_down17h922cc2f373fe1854E, symObjAddr: 0xB748, symBinAddr: 0x6F3E4, symSize: 0x100 }
  - { offset: 0x11FF59, size: 0x8, addend: 0x0, symName: __ZN4core5slice4sort8unstable8heapsort9sift_down17hda1fe70450a6c562E, symObjAddr: 0xB848, symBinAddr: 0x6F4E4, symSize: 0xC4 }
  - { offset: 0x1200AD, size: 0x8, addend: 0x0, symName: __ZN4core5slice4sort8unstable9quicksort9quicksort17h418f976ec89ec23bE, symObjAddr: 0xB90C, symBinAddr: 0x6F5A8, symSize: 0x5D8 }
  - { offset: 0x120D15, size: 0x8, addend: 0x0, symName: __ZN4core5slice4sort8unstable9quicksort9quicksort17he318a175fcd244c7E, symObjAddr: 0xBEE4, symBinAddr: 0x6FB80, symSize: 0x468 }
  - { offset: 0x12171C, size: 0x8, addend: 0x0, symName: '__ZN36_$LT$T$u20$as$u20$core..any..Any$GT$7type_id17h07576a1e674092b9E', symObjAddr: 0x128, symBinAddr: 0x64060, symSize: 0x30 }
  - { offset: 0x121736, size: 0x8, addend: 0x0, symName: '__ZN36_$LT$T$u20$as$u20$core..any..Any$GT$7type_id17h2481823241ef5a5eE', symObjAddr: 0x158, symBinAddr: 0x64090, symSize: 0x30 }
  - { offset: 0x121750, size: 0x8, addend: 0x0, symName: '__ZN36_$LT$T$u20$as$u20$core..any..Any$GT$7type_id17h26dc9e98dcc116acE', symObjAddr: 0x188, symBinAddr: 0x640C0, symSize: 0x30 }
  - { offset: 0x1217F0, size: 0x8, addend: 0x0, symName: '__ZN41_$LT$bool$u20$as$u20$core..fmt..Debug$GT$3fmt17h48d55c1cdc9ef042E', symObjAddr: 0x1B8, symBinAddr: 0x640F0, symSize: 0x10 }
  - { offset: 0x12188E, size: 0x8, addend: 0x0, symName: '__ZN4core3fmt3num50_$LT$impl$u20$core..fmt..Debug$u20$for$u20$u32$GT$3fmt17he0c506a5f90be19dE', symObjAddr: 0xCFC, symBinAddr: 0x64C34, symSize: 0x2C }
  - { offset: 0x1218CC, size: 0x8, addend: 0x0, symName: '__ZN4core3fmt3num52_$LT$impl$u20$core..fmt..Debug$u20$for$u20$usize$GT$3fmt17h0c200cabaf266fe7E', symObjAddr: 0xD54, symBinAddr: 0x64C8C, symSize: 0x2C }
  - { offset: 0x12190A, size: 0x8, addend: 0x0, symName: '__ZN4core3fmt3num50_$LT$impl$u20$core..fmt..Debug$u20$for$u20$i32$GT$3fmt17h4222a89e7c3e0e0aE', symObjAddr: 0xCA4, symBinAddr: 0x64BDC, symSize: 0x2C }
  - { offset: 0x121948, size: 0x8, addend: 0x0, symName: '__ZN4core3fmt3num50_$LT$impl$u20$core..fmt..Debug$u20$for$u20$u64$GT$3fmt17h66a5c12bcfde1c36E', symObjAddr: 0xD28, symBinAddr: 0x64C60, symSize: 0x2C }
  - { offset: 0x121986, size: 0x8, addend: 0x0, symName: '__ZN4core3fmt3num49_$LT$impl$u20$core..fmt..Debug$u20$for$u20$u8$GT$3fmt17h7b617b41c935168dE', symObjAddr: 0xC78, symBinAddr: 0x64BB0, symSize: 0x2C }
  - { offset: 0x1219B7, size: 0x8, addend: 0x0, symName: '__ZN4core3fmt3num50_$LT$impl$u20$core..fmt..Debug$u20$for$u20$i64$GT$3fmt17h9d5f3b0fb240e378E', symObjAddr: 0xCD0, symBinAddr: 0x64C08, symSize: 0x2C }
  - { offset: 0x1219EF, size: 0x8, addend: 0x0, symName: '__ZN42_$LT$$RF$T$u20$as$u20$core..fmt..Debug$GT$3fmt17h0c1101464161786eE', symObjAddr: 0x1C8, symBinAddr: 0x64100, symSize: 0x30 }
  - { offset: 0x121A37, size: 0x8, addend: 0x0, symName: '__ZN42_$LT$$RF$T$u20$as$u20$core..fmt..Debug$GT$3fmt17h0e561a3dd539a936E', symObjAddr: 0x1F8, symBinAddr: 0x64130, symSize: 0x1C }
  - { offset: 0x121A60, size: 0x8, addend: 0x0, symName: '__ZN42_$LT$$RF$T$u20$as$u20$core..fmt..Debug$GT$3fmt17h120c43d752c3b775E', symObjAddr: 0x214, symBinAddr: 0x6414C, symSize: 0x1C }
  - { offset: 0x121A92, size: 0x8, addend: 0x0, symName: '__ZN42_$LT$$RF$T$u20$as$u20$core..fmt..Debug$GT$3fmt17h205fa463900014ffE', symObjAddr: 0x230, symBinAddr: 0x64168, symSize: 0x38 }
  - { offset: 0x121AC4, size: 0x8, addend: 0x0, symName: '__ZN42_$LT$$RF$T$u20$as$u20$core..fmt..Debug$GT$3fmt17h27b2938539499976E', symObjAddr: 0x268, symBinAddr: 0x641A0, symSize: 0x38 }
  - { offset: 0x121AF6, size: 0x8, addend: 0x0, symName: '__ZN42_$LT$$RF$T$u20$as$u20$core..fmt..Debug$GT$3fmt17h2aaad20b43826eebE', symObjAddr: 0x2A0, symBinAddr: 0x641D8, symSize: 0x1C }
  - { offset: 0x121B28, size: 0x8, addend: 0x0, symName: '__ZN42_$LT$$RF$T$u20$as$u20$core..fmt..Debug$GT$3fmt17h2bf63db64e839eedE', symObjAddr: 0x2BC, symBinAddr: 0x641F4, symSize: 0x2C }
  - { offset: 0x121C26, size: 0x8, addend: 0x0, symName: '__ZN42_$LT$$RF$T$u20$as$u20$core..fmt..Debug$GT$3fmt17h31dc0b91fc54b139E', symObjAddr: 0x2E8, symBinAddr: 0x64220, symSize: 0x58 }
  - { offset: 0x121C66, size: 0x8, addend: 0x0, symName: '__ZN42_$LT$$RF$T$u20$as$u20$core..fmt..Debug$GT$3fmt17h330ba3fc321aa16aE', symObjAddr: 0x340, symBinAddr: 0x64278, symSize: 0x74 }
  - { offset: 0x121D2D, size: 0x8, addend: 0x0, symName: '__ZN42_$LT$$RF$T$u20$as$u20$core..fmt..Debug$GT$3fmt17h3b73e6583801767eE', symObjAddr: 0x3B4, symBinAddr: 0x642EC, symSize: 0x30 }
  - { offset: 0x121D75, size: 0x8, addend: 0x0, symName: '__ZN42_$LT$$RF$T$u20$as$u20$core..fmt..Debug$GT$3fmt17h3de976c19a0b17c8E', symObjAddr: 0x3E4, symBinAddr: 0x6431C, symSize: 0x14 }
  - { offset: 0x121D90, size: 0x8, addend: 0x0, symName: '__ZN42_$LT$$RF$T$u20$as$u20$core..fmt..Debug$GT$3fmt17h491cf4e2a1ea3478E', symObjAddr: 0x3F8, symBinAddr: 0x64330, symSize: 0x30 }
  - { offset: 0x121DE6, size: 0x8, addend: 0x0, symName: '__ZN42_$LT$$RF$T$u20$as$u20$core..fmt..Debug$GT$3fmt17h51bb1dce51eb7e09E', symObjAddr: 0x428, symBinAddr: 0x64360, symSize: 0x9C }
  - { offset: 0x121E97, size: 0x8, addend: 0x0, symName: '__ZN42_$LT$$RF$T$u20$as$u20$core..fmt..Debug$GT$3fmt17h5691f88c48a980a1E', symObjAddr: 0x4C4, symBinAddr: 0x643FC, symSize: 0x38 }
  - { offset: 0x121EC9, size: 0x8, addend: 0x0, symName: '__ZN42_$LT$$RF$T$u20$as$u20$core..fmt..Debug$GT$3fmt17h5d6c0d5eefdd826bE', symObjAddr: 0x4FC, symBinAddr: 0x64434, symSize: 0x74 }
  - { offset: 0x121EFB, size: 0x8, addend: 0x0, symName: '__ZN42_$LT$$RF$T$u20$as$u20$core..fmt..Debug$GT$3fmt17h6001b8201f0be24eE', symObjAddr: 0x570, symBinAddr: 0x644A8, symSize: 0x144 }
  - { offset: 0x121F2D, size: 0x8, addend: 0x0, symName: '__ZN42_$LT$$RF$T$u20$as$u20$core..fmt..Debug$GT$3fmt17h616c79650ab53d4cE', symObjAddr: 0x6B4, symBinAddr: 0x645EC, symSize: 0x6C }
  - { offset: 0x121F5F, size: 0x8, addend: 0x0, symName: '__ZN42_$LT$$RF$T$u20$as$u20$core..fmt..Debug$GT$3fmt17h6a5268f65ea436a5E', symObjAddr: 0x720, symBinAddr: 0x64658, symSize: 0xC8 }
  - { offset: 0x121F89, size: 0x8, addend: 0x0, symName: '__ZN42_$LT$$RF$T$u20$as$u20$core..fmt..Debug$GT$3fmt17h8d684471875f03ccE', symObjAddr: 0x7E8, symBinAddr: 0x64720, symSize: 0x70 }
  - { offset: 0x121FBB, size: 0x8, addend: 0x0, symName: '__ZN42_$LT$$RF$T$u20$as$u20$core..fmt..Debug$GT$3fmt17h8f1e8634bb6a7633E', symObjAddr: 0x858, symBinAddr: 0x64790, symSize: 0x4C }
  - { offset: 0x12202E, size: 0x8, addend: 0x0, symName: '__ZN42_$LT$$RF$T$u20$as$u20$core..fmt..Debug$GT$3fmt17h9015b7f2a213c1c4E', symObjAddr: 0x8A4, symBinAddr: 0x647DC, symSize: 0x64 }
  - { offset: 0x122060, size: 0x8, addend: 0x0, symName: '__ZN42_$LT$$RF$T$u20$as$u20$core..fmt..Debug$GT$3fmt17h9d15306fea2bc55fE', symObjAddr: 0x908, symBinAddr: 0x64840, symSize: 0x20 }
  - { offset: 0x122092, size: 0x8, addend: 0x0, symName: '__ZN42_$LT$$RF$T$u20$as$u20$core..fmt..Debug$GT$3fmt17haaa6df2df70ad982E', symObjAddr: 0x928, symBinAddr: 0x64860, symSize: 0x14 }
  - { offset: 0x1220AD, size: 0x8, addend: 0x0, symName: '__ZN42_$LT$$RF$T$u20$as$u20$core..fmt..Debug$GT$3fmt17hb1c1ef474161b065E', symObjAddr: 0x93C, symBinAddr: 0x64874, symSize: 0x30 }
  - { offset: 0x1220F5, size: 0x8, addend: 0x0, symName: '__ZN42_$LT$$RF$T$u20$as$u20$core..fmt..Debug$GT$3fmt17hb6cd7805d90f0bbdE', symObjAddr: 0x96C, symBinAddr: 0x648A4, symSize: 0x78 }
  - { offset: 0x1221BC, size: 0x8, addend: 0x0, symName: '__ZN42_$LT$$RF$T$u20$as$u20$core..fmt..Debug$GT$3fmt17hca6f898961c4d443E', symObjAddr: 0x9E4, symBinAddr: 0x6491C, symSize: 0x14 }
  - { offset: 0x1221D7, size: 0x8, addend: 0x0, symName: '__ZN42_$LT$$RF$T$u20$as$u20$core..fmt..Debug$GT$3fmt17hd1259af819c25db0E', symObjAddr: 0x9F8, symBinAddr: 0x64930, symSize: 0x44 }
  - { offset: 0x122209, size: 0x8, addend: 0x0, symName: '__ZN42_$LT$$RF$T$u20$as$u20$core..fmt..Debug$GT$3fmt17hd39cdc9798acf381E', symObjAddr: 0xA3C, symBinAddr: 0x64974, symSize: 0x64 }
  - { offset: 0x12223B, size: 0x8, addend: 0x0, symName: '__ZN42_$LT$$RF$T$u20$as$u20$core..fmt..Debug$GT$3fmt17hdca9273ffd14949bE', symObjAddr: 0xAA0, symBinAddr: 0x649D8, symSize: 0x1C }
  - { offset: 0x12224F, size: 0x8, addend: 0x0, symName: '__ZN42_$LT$$RF$T$u20$as$u20$core..fmt..Debug$GT$3fmt17hedc9a45dc9022269E', symObjAddr: 0xABC, symBinAddr: 0x649F4, symSize: 0x68 }
  - { offset: 0x12228F, size: 0x8, addend: 0x0, symName: '__ZN42_$LT$$RF$T$u20$as$u20$core..fmt..Debug$GT$3fmt17hee85b0869d7f94abE', symObjAddr: 0xB24, symBinAddr: 0x64A5C, symSize: 0x2C }
  - { offset: 0x122305, size: 0x8, addend: 0x0, symName: '__ZN42_$LT$$RF$T$u20$as$u20$core..fmt..Debug$GT$3fmt17hefe52e8aadefa4bcE', symObjAddr: 0xB50, symBinAddr: 0x64A88, symSize: 0x74 }
  - { offset: 0x122410, size: 0x8, addend: 0x0, symName: '__ZN42_$LT$$RF$T$u20$as$u20$core..fmt..Debug$GT$3fmt17hf13b66163b79ba21E', symObjAddr: 0xBC4, symBinAddr: 0x64AFC, symSize: 0x64 }
  - { offset: 0x122559, size: 0x8, addend: 0x0, symName: '__ZN50_$LT$$LP$U$C$T$RP$$u20$as$u20$core..fmt..Debug$GT$3fmt17h8d3f72f74dab93a1E', symObjAddr: 0xC414, symBinAddr: 0x6FFFC, symSize: 0x74 }
  - { offset: 0x122589, size: 0x8, addend: 0x0, symName: '__ZN45_$LT$$LP$$RP$$u20$as$u20$core..fmt..Debug$GT$3fmt17h25867a1c6f88e9d3E', symObjAddr: 0xC58, symBinAddr: 0x64B90, symSize: 0x20 }
  - { offset: 0x1225A4, size: 0x8, addend: 0x0, symName: '__ZN44_$LT$$RF$T$u20$as$u20$core..fmt..Display$GT$3fmt17h4a67ec5fab0089bcE', symObjAddr: 0xC28, symBinAddr: 0x64B60, symSize: 0x1C }
  - { offset: 0x1225BF, size: 0x8, addend: 0x0, symName: '__ZN44_$LT$$RF$T$u20$as$u20$core..fmt..Display$GT$3fmt17h5cf39267766efe4eE', symObjAddr: 0xC44, symBinAddr: 0x64B7C, symSize: 0x14 }
  - { offset: 0x1225FD, size: 0x8, addend: 0x0, symName: __ZN4core3fmt5Write10write_char17h46ef659fa7b4aaaaE, symObjAddr: 0xD80, symBinAddr: 0x64CB8, symSize: 0x148 }
  - { offset: 0x1228B6, size: 0x8, addend: 0x0, symName: __ZN4core3fmt5Write10write_char17h4afa267b4727c5caE, symObjAddr: 0xEC8, symBinAddr: 0x64E00, symSize: 0xC8 }
  - { offset: 0x12290C, size: 0x8, addend: 0x0, symName: __ZN4core3fmt5Write10write_char17h53a358f110e75d4fE, symObjAddr: 0xF90, symBinAddr: 0x64EC8, symSize: 0x140 }
  - { offset: 0x122976, size: 0x8, addend: 0x0, symName: __ZN4core3fmt5Write10write_char17hcb97b000ae9c3560E, symObjAddr: 0x10D0, symBinAddr: 0x65008, symSize: 0xC8 }
  - { offset: 0x1229CC, size: 0x8, addend: 0x0, symName: __ZN4core3fmt5Write10write_char17he6d0f07de5990d16E, symObjAddr: 0x1198, symBinAddr: 0x650D0, symSize: 0x120 }
  - { offset: 0x122B97, size: 0x8, addend: 0x0, symName: __ZN4core3fmt5Write9write_fmt17h999c2cd56c85d068E, symObjAddr: 0x12B8, symBinAddr: 0x651F0, symSize: 0x1C }
  - { offset: 0x122BC7, size: 0x8, addend: 0x0, symName: __ZN4core3fmt5Write9write_fmt17h9b42472c3f68cf32E, symObjAddr: 0x12D4, symBinAddr: 0x6520C, symSize: 0x1C }
  - { offset: 0x122BF7, size: 0x8, addend: 0x0, symName: __ZN4core3fmt5Write9write_fmt17h9c7d545dfbe2d12eE, symObjAddr: 0x12F0, symBinAddr: 0x65228, symSize: 0x1C }
  - { offset: 0x122C27, size: 0x8, addend: 0x0, symName: __ZN4core3fmt5Write9write_fmt17hba0fad688f01de5cE, symObjAddr: 0x130C, symBinAddr: 0x65244, symSize: 0x1C }
  - { offset: 0x122C57, size: 0x8, addend: 0x0, symName: __ZN4core3fmt5Write9write_fmt17hcf479949d7634244E, symObjAddr: 0x1328, symBinAddr: 0x65260, symSize: 0x1C }
  - { offset: 0x122C87, size: 0x8, addend: 0x0, symName: __ZN4core3fmt5Write9write_fmt17he2886f75cd39fbe4E, symObjAddr: 0x1344, symBinAddr: 0x6527C, symSize: 0x1C }
  - { offset: 0x123187, size: 0x8, addend: 0x0, symName: '__ZN50_$LT$$BP$mut$u20$T$u20$as$u20$core..fmt..Debug$GT$3fmt17h5e67231ba9d63223E', symObjAddr: 0xC400, symBinAddr: 0x6FFE8, symSize: 0x14 }
  - { offset: 0x1231D7, size: 0x8, addend: 0x0, symName: '__ZN52_$LT$$RF$mut$u20$T$u20$as$u20$core..fmt..Display$GT$3fmt17h7a956d3d08146900E', symObjAddr: 0xC488, symBinAddr: 0x70070, symSize: 0x1C }
  - { offset: 0x123257, size: 0x8, addend: 0x0, symName: '__ZN55_$LT$$RF$str$u20$as$u20$core..str..pattern..Pattern$GT$15is_contained_in17h4435c5a0eec1a737E', symObjAddr: 0xC4A4, symBinAddr: 0x7008C, symSize: 0x3BC }
  - { offset: 0x12373A, size: 0x8, addend: 0x0, symName: '__ZN64_$LT$core..str..error..Utf8Error$u20$as$u20$core..fmt..Debug$GT$3fmt17h6ddc67e46ab5774fE', symObjAddr: 0x17D90, symBinAddr: 0x7B604, symSize: 0x70 }
  - { offset: 0x123785, size: 0x8, addend: 0x0, symName: '__ZN4core5array69_$LT$impl$u20$core..fmt..Debug$u20$for$u20$$u5b$T$u3b$$u20$N$u5d$$GT$3fmt17hd97310da3f4046e3E', symObjAddr: 0x4458, symBinAddr: 0x680F4, symSize: 0xFC }
  - { offset: 0x123EDE, size: 0x8, addend: 0x0, symName: '__ZN73_$LT$core..num..nonzero..NonZero$LT$T$GT$$u20$as$u20$core..fmt..Debug$GT$3fmt17h448b098250f336c7E', symObjAddr: 0x18648, symBinAddr: 0x7BEBC, symSize: 0x48 }
  - { offset: 0x124886, size: 0x8, addend: 0x0, symName: '__ZN70_$LT$core..num..error..TryFromIntError$u20$as$u20$core..fmt..Debug$GT$3fmt17hd5cbc82fe30aceb1E', symObjAddr: 0x185EC, symBinAddr: 0x7BE60, symSize: 0x40 }
  - { offset: 0x1248A7, size: 0x8, addend: 0x0, symName: '__ZN72_$LT$core..num..error..TryFromIntError$u20$as$u20$core..error..Error$GT$11description17h0fbcb70c94e7e32dE', symObjAddr: 0x1862C, symBinAddr: 0x7BEA0, symSize: 0x1C }
  - { offset: 0x124FD5, size: 0x8, addend: 0x0, symName: '__ZN4core4cell4once17OnceCell$LT$T$GT$8try_init17ha62e01f69ff2747dE', symObjAddr: 0x423C, symBinAddr: 0xEAD2C, symSize: 0x148 }
  - { offset: 0x125314, size: 0x8, addend: 0x0, symName: '__ZN4core4cell4once17OnceCell$LT$T$GT$8try_init17hab9388e39b9c6b9cE', symObjAddr: 0x4384, symBinAddr: 0xEAE74, symSize: 0xD4 }
  - { offset: 0x126BF7, size: 0x8, addend: 0x0, symName: __ZN4core3ops8function2Fn4call17h5f1fac58579c2a95E, symObjAddr: 0x1360, symBinAddr: 0x65298, symSize: 0x14 }
  - { offset: 0x126C18, size: 0x8, addend: 0x0, symName: __ZN4core3ops8function5FnMut8call_mut17h9e007a035230206fE, symObjAddr: 0x1374, symBinAddr: 0x652AC, symSize: 0x14 }
  - { offset: 0x126C60, size: 0x8, addend: 0x0, symName: '__ZN4core3ops8function6FnOnce40call_once$u7b$$u7b$vtable.shim$u7d$$u7d$17h1f416fb0cf98576aE', symObjAddr: 0x1388, symBinAddr: 0x652C0, symSize: 0x18 }
  - { offset: 0x126C9D, size: 0x8, addend: 0x0, symName: '__ZN4core3ops8function6FnOnce40call_once$u7b$$u7b$vtable.shim$u7d$$u7d$17h334a760ab7191c2dE', symObjAddr: 0x13A0, symBinAddr: 0x652D8, symSize: 0xB0 }
  - { offset: 0x126DEF, size: 0x8, addend: 0x0, symName: '__ZN4core3ops8function6FnOnce40call_once$u7b$$u7b$vtable.shim$u7d$$u7d$17h3cbf3dff1f73d72fE', symObjAddr: 0x1450, symBinAddr: 0x65388, symSize: 0x28 }
  - { offset: 0x126E2C, size: 0x8, addend: 0x0, symName: '__ZN4core3ops8function6FnOnce40call_once$u7b$$u7b$vtable.shim$u7d$$u7d$17h3dd0951fa0aab164E', symObjAddr: 0x1478, symBinAddr: 0x653B0, symSize: 0x78 }
  - { offset: 0x126FDC, size: 0x8, addend: 0x0, symName: '__ZN4core3ops8function6FnOnce40call_once$u7b$$u7b$vtable.shim$u7d$$u7d$17h79865b81aa81b353E', symObjAddr: 0x14F0, symBinAddr: 0x65428, symSize: 0x18 }
  - { offset: 0x12702F, size: 0x8, addend: 0x0, symName: '__ZN4core3ops8function6FnOnce40call_once$u7b$$u7b$vtable.shim$u7d$$u7d$17h91e879e59e649b71E', symObjAddr: 0x1508, symBinAddr: 0x65440, symSize: 0x14 }
  - { offset: 0x12706C, size: 0x8, addend: 0x0, symName: '__ZN4core3ops8function6FnOnce40call_once$u7b$$u7b$vtable.shim$u7d$$u7d$17h994ca439da98670eE', symObjAddr: 0x151C, symBinAddr: 0x65454, symSize: 0x18 }
  - { offset: 0x1270BF, size: 0x8, addend: 0x0, symName: '__ZN4core3ops8function6FnOnce40call_once$u7b$$u7b$vtable.shim$u7d$$u7d$17hba1063d9bace00b7E', symObjAddr: 0x1534, symBinAddr: 0x6546C, symSize: 0x60 }
  - { offset: 0x1271D9, size: 0x8, addend: 0x0, symName: '__ZN4core3ops8function6FnOnce40call_once$u7b$$u7b$vtable.shim$u7d$$u7d$17hc99afa561b7a0391E', symObjAddr: 0x1594, symBinAddr: 0x654CC, symSize: 0x74 }
  - { offset: 0x12736C, size: 0x8, addend: 0x0, symName: '__ZN4core3ops8function6FnOnce40call_once$u7b$$u7b$vtable.shim$u7d$$u7d$17hd163d9883b0aa160E', symObjAddr: 0x1608, symBinAddr: 0x65540, symSize: 0x28 }
  - { offset: 0x1273A9, size: 0x8, addend: 0x0, symName: '__ZN4core3ops8function6FnOnce40call_once$u7b$$u7b$vtable.shim$u7d$$u7d$17hd1fe718e2d34421bE', symObjAddr: 0x1630, symBinAddr: 0x65568, symSize: 0xA4 }
  - { offset: 0x1274E6, size: 0x8, addend: 0x0, symName: '__ZN4core3ops8function6FnOnce40call_once$u7b$$u7b$vtable.shim$u7d$$u7d$17hd53da837920f7754E', symObjAddr: 0x16D4, symBinAddr: 0x6560C, symSize: 0x10 }
  - { offset: 0x127523, size: 0x8, addend: 0x0, symName: '__ZN4core3ops8function6FnOnce40call_once$u7b$$u7b$vtable.shim$u7d$$u7d$17hd592a84a9295d8ecE', symObjAddr: 0x16E4, symBinAddr: 0x6561C, symSize: 0x10 }
  - { offset: 0x127560, size: 0x8, addend: 0x0, symName: '__ZN4core3ops8function6FnOnce40call_once$u7b$$u7b$vtable.shim$u7d$$u7d$17he8bffab9aec82adbE', symObjAddr: 0x16F4, symBinAddr: 0x6562C, symSize: 0x28 }
  - { offset: 0x127590, size: 0x8, addend: 0x0, symName: __ZN4core3ops8function6FnOnce9call_once17hd78bab40a1e8733bE, symObjAddr: 0x171C, symBinAddr: 0x65654, symSize: 0xC }
  - { offset: 0x12AAA8, size: 0x8, addend: 0x0, symName: __ZN4core5error5Error5cause17hb959d035d8131f2cE, symObjAddr: 0x4554, symBinAddr: 0x681F0, symSize: 0x14 }
  - { offset: 0x12AAC2, size: 0x8, addend: 0x0, symName: __ZN4core5error5Error5cause17hc4a77a13d5be4b34E, symObjAddr: 0x4568, symBinAddr: 0x68204, symSize: 0x14 }
  - { offset: 0x12AADC, size: 0x8, addend: 0x0, symName: __ZN4core5error5Error7provide17h1552b755366981daE, symObjAddr: 0x457C, symBinAddr: 0x68218, symSize: 0x10 }
  - { offset: 0x12AAF6, size: 0x8, addend: 0x0, symName: __ZN4core5error5Error7provide17h8eb9abc6ba4413edE, symObjAddr: 0x458C, symBinAddr: 0x68228, symSize: 0x10 }
  - { offset: 0x12AB10, size: 0x8, addend: 0x0, symName: __ZN4core5error5Error7type_id17h8f710b212e4ee5e0E, symObjAddr: 0x459C, symBinAddr: 0x68238, symSize: 0x30 }
  - { offset: 0x12AB2A, size: 0x8, addend: 0x0, symName: __ZN4core5error5Error7type_id17he0edda2761b9da68E, symObjAddr: 0x45CC, symBinAddr: 0x68268, symSize: 0x30 }
  - { offset: 0x12AB52, size: 0x8, addend: 0x0, symName: __ZN4core5panic12PanicPayload6as_str17h1f2fdb4782e520a0E, symObjAddr: 0x45FC, symBinAddr: 0x68298, symSize: 0x14 }
  - { offset: 0x12BA94, size: 0x8, addend: 0x0, symName: __ZN4core9panicking13assert_failed17h8ebd6f8959fa42d8E, symObjAddr: 0xC34C, symBinAddr: 0xEAF48, symSize: 0x44 }
  - { offset: 0x12BAB0, size: 0x8, addend: 0x0, symName: __ZN4core9panicking13assert_failed17hc27d6c3511b5d1d6E, symObjAddr: 0xC390, symBinAddr: 0xEAF8C, symSize: 0x40 }
  - { offset: 0x12BACC, size: 0x8, addend: 0x0, symName: __ZN4core9panicking13assert_failed17he9351cc95ce6519fE, symObjAddr: 0xC3D0, symBinAddr: 0xEAFCC, symSize: 0x30 }
  - { offset: 0x12C382, size: 0x8, addend: 0x0, symName: '__ZN62_$LT$std..process..ChildStdout$u20$as$u20$core..fmt..Debug$GT$3fmt17h3604857be3024ebaE', symObjAddr: 0x32B04, symBinAddr: 0x9605C, symSize: 0x38 }
  - { offset: 0x12C3AB, size: 0x8, addend: 0x0, symName: '__ZN61_$LT$std..process..ChildStdin$u20$as$u20$core..fmt..Debug$GT$3fmt17h64d081e54f0ec7c9E', symObjAddr: 0x32ACC, symBinAddr: 0x96024, symSize: 0x38 }
  - { offset: 0x12C3D4, size: 0x8, addend: 0x0, symName: '__ZN62_$LT$std..process..ChildStderr$u20$as$u20$core..fmt..Debug$GT$3fmt17h3d04000faeaf9136E', symObjAddr: 0x32C10, symBinAddr: 0x96168, symSize: 0x38 }
  - { offset: 0x12C3EF, size: 0x8, addend: 0x0, symName: '__ZN193_$LT$std..process..Child$u20$as$u20$std..sys_common..FromInner$LT$$LP$std..sys..pal..unix..process..process_inner..Process$C$std..sys..pal..unix..process..process_common..StdioPipes$RP$$GT$$GT$10from_inner17h6617d8fb680d5e2eE', symObjAddr: 0x329A0, symBinAddr: 0x95EF8, symSize: 0x30 }
  - { offset: 0x12C411, size: 0x8, addend: 0x0, symName: '__ZN126_$LT$std..process..Child$u20$as$u20$std..sys_common..IntoInner$LT$std..sys..pal..unix..process..process_inner..Process$GT$$GT$10into_inner17h51590afd5c625bbfE', symObjAddr: 0x329D0, symBinAddr: 0x95F28, symSize: 0x60 }
  - { offset: 0x12C5E6, size: 0x8, addend: 0x0, symName: '__ZN56_$LT$std..process..Child$u20$as$u20$core..fmt..Debug$GT$3fmt17h5d62b856dded34baE', symObjAddr: 0x32A30, symBinAddr: 0x95F88, symSize: 0x9C }
  - { offset: 0x12C608, size: 0x8, addend: 0x0, symName: '__ZN59_$LT$std..process..ChildStderr$u20$as$u20$std..io..Read$GT$4read17h7dd9bef37ded0ca3E', symObjAddr: 0x32B3C, symBinAddr: 0x96094, symSize: 0x4C }
  - { offset: 0x12C704, size: 0x8, addend: 0x0, symName: '__ZN59_$LT$std..process..ChildStderr$u20$as$u20$std..io..Read$GT$8read_buf17h2c88f4aee5f71c6aE', symObjAddr: 0x32B88, symBinAddr: 0x960E0, symSize: 0x78 }
  - { offset: 0x12C8E5, size: 0x8, addend: 0x0, symName: '__ZN59_$LT$std..process..ChildStderr$u20$as$u20$std..io..Read$GT$11read_to_end17h3b5875983bef084aE', symObjAddr: 0x32C00, symBinAddr: 0x96158, symSize: 0x10 }
  - { offset: 0x12C925, size: 0x8, addend: 0x0, symName: __ZN3std7process7Command9env_clear17h420469327891f7c6E, symObjAddr: 0x32C48, symBinAddr: 0x961A0, symSize: 0x50 }
  - { offset: 0x12C9E4, size: 0x8, addend: 0x0, symName: __ZN3std7process7Command5spawn17hbdc81f330a444d8bE, symObjAddr: 0x32C98, symBinAddr: 0x961F0, symSize: 0x78 }
  - { offset: 0x12CA16, size: 0x8, addend: 0x0, symName: __ZN3std7process7Command6output17ha152aeea566bce2fE, symObjAddr: 0x32D10, symBinAddr: 0x96268, symSize: 0x338 }
  - { offset: 0x12D01E, size: 0x8, addend: 0x0, symName: __ZN3std7process7Command6status17h9f2792492ca3951eE, symObjAddr: 0x33048, symBinAddr: 0x965A0, symSize: 0xB8 }
  - { offset: 0x12D218, size: 0x8, addend: 0x0, symName: __ZN3std7process7Command11get_program17hfa18626e801fb636E, symObjAddr: 0x33100, symBinAddr: 0x96658, symSize: 0x1C }
  - { offset: 0x12D261, size: 0x8, addend: 0x0, symName: __ZN3std7process7Command8get_args17hfd580b3b78b6b07dE, symObjAddr: 0x3311C, symBinAddr: 0x96674, symSize: 0x24 }
  - { offset: 0x12D303, size: 0x8, addend: 0x0, symName: __ZN3std7process7Command15get_current_dir17haa56a1893b81bd82E, symObjAddr: 0x33140, symBinAddr: 0x96698, symSize: 0x1C }
  - { offset: 0x12D36F, size: 0x8, addend: 0x0, symName: '__ZN58_$LT$std..process..Command$u20$as$u20$core..fmt..Debug$GT$3fmt17hd653d9f7e402ed9bE', symObjAddr: 0x3315C, symBinAddr: 0x966B4, symSize: 0x10 }
  - { offset: 0x12D391, size: 0x8, addend: 0x0, symName: '__ZN84_$LT$std..process..CommandArgs$u20$as$u20$core..iter..traits..iterator..Iterator$GT$4next17h3385993771a18badE', symObjAddr: 0x3316C, symBinAddr: 0x966C4, symSize: 0x34 }
  - { offset: 0x12D3B0, size: 0x8, addend: 0x0, symName: '__ZN84_$LT$std..process..CommandArgs$u20$as$u20$core..iter..traits..iterator..Iterator$GT$4next17h3385993771a18badE', symObjAddr: 0x3316C, symBinAddr: 0x966C4, symSize: 0x34 }
  - { offset: 0x12D3C6, size: 0x8, addend: 0x0, symName: '__ZN84_$LT$std..process..CommandArgs$u20$as$u20$core..iter..traits..iterator..Iterator$GT$4next17h3385993771a18badE', symObjAddr: 0x3316C, symBinAddr: 0x966C4, symSize: 0x34 }
  - { offset: 0x12D461, size: 0x8, addend: 0x0, symName: '__ZN84_$LT$std..process..CommandArgs$u20$as$u20$core..iter..traits..iterator..Iterator$GT$9size_hint17h6fb6be1acc85a0a5E', symObjAddr: 0x331A0, symBinAddr: 0x966F8, symSize: 0x28 }
  - { offset: 0x12D4DE, size: 0x8, addend: 0x0, symName: '__ZN95_$LT$std..process..CommandArgs$u20$as$u20$core..iter..traits..exact_size..ExactSizeIterator$GT$3len17h13327340503a1c13E', symObjAddr: 0x331C8, symBinAddr: 0x96720, symSize: 0x1C }
  - { offset: 0x12D55B, size: 0x8, addend: 0x0, symName: '__ZN57_$LT$std..process..Output$u20$as$u20$core..fmt..Debug$GT$3fmt17h2570709be96d1683E', symObjAddr: 0x331E4, symBinAddr: 0x9673C, symSize: 0x10C }
  - { offset: 0x12D606, size: 0x8, addend: 0x0, symName: '__ZN56_$LT$std..process..Stdio$u20$as$u20$core..fmt..Debug$GT$3fmt17hb065e4176e09bea3E', symObjAddr: 0x332F0, symBinAddr: 0x96848, symSize: 0x38 }
  - { offset: 0x12D628, size: 0x8, addend: 0x0, symName: __ZN3std7process10ExitStatus7exit_ok17he4c518b7bfa88f1aE, symObjAddr: 0x33328, symBinAddr: 0x96880, symSize: 0x14 }
  - { offset: 0x12D661, size: 0x8, addend: 0x0, symName: '__ZN63_$LT$std..process..ExitStatus$u20$as$u20$core..fmt..Display$GT$3fmt17h61455a939837d158E', symObjAddr: 0x3333C, symBinAddr: 0x96894, symSize: 0x10 }
  - { offset: 0x12D691, size: 0x8, addend: 0x0, symName: __ZN3std7process15ExitStatusError4code17h67bd5584f471e57fE, symObjAddr: 0x3334C, symBinAddr: 0x968A4, symSize: 0x5C }
  - { offset: 0x12D795, size: 0x8, addend: 0x0, symName: __ZN3std7process15ExitStatusError12code_nonzero17ha710ced4db062dbcE, symObjAddr: 0x333A8, symBinAddr: 0x96900, symSize: 0x54 }
  - { offset: 0x12D898, size: 0x8, addend: 0x0, symName: '__ZN68_$LT$std..process..ExitStatusError$u20$as$u20$core..fmt..Display$GT$3fmt17hafbcce8aaff6e1e0E', symObjAddr: 0x333FC, symBinAddr: 0x96954, symSize: 0x58 }
  - { offset: 0x12D90B, size: 0x8, addend: 0x0, symName: __ZN3std7process8ExitCode12exit_process17hf6b9a913e4f392ffE, symObjAddr: 0x33454, symBinAddr: 0x969AC, symSize: 0x10 }
  - { offset: 0x12D95B, size: 0x8, addend: 0x0, symName: __ZN3std7process5Child4kill17h6abf8f78d667eb9fE, symObjAddr: 0x33464, symBinAddr: 0x969BC, symSize: 0x4C }
  - { offset: 0x12DA0D, size: 0x8, addend: 0x0, symName: __ZN3std7process5Child4wait17h2fd4d624e222ab49E, symObjAddr: 0x334B0, symBinAddr: 0x96A08, symSize: 0xF0 }
  - { offset: 0x12DBEC, size: 0x8, addend: 0x0, symName: __ZN3std7process5Child8try_wait17h59bf88f543c6ae52E, symObjAddr: 0x335A0, symBinAddr: 0x96AF8, symSize: 0xB0 }
  - { offset: 0x12DCB4, size: 0x8, addend: 0x0, symName: __ZN3std7process5Child16wait_with_output17h69478435236af49aE, symObjAddr: 0x33650, symBinAddr: 0x96BA8, symSize: 0x294 }
  - { offset: 0x12E24C, size: 0x8, addend: 0x0, symName: __ZN3std7process4exit17hbe68f0f1dba2385eE, symObjAddr: 0x338E4, symBinAddr: 0x96E3C, symSize: 0x1C }
  - { offset: 0x12E267, size: 0x8, addend: 0x0, symName: __ZN3std7process5abort17h9fa133710ccd7ba8E, symObjAddr: 0x33900, symBinAddr: 0xEB574, symSize: 0xC }
  - { offset: 0x12E282, size: 0x8, addend: 0x0, symName: __ZN3std7process2id17h439cf823fc386f57E, symObjAddr: 0x3390C, symBinAddr: 0x96E58, symSize: 0x10 }
  - { offset: 0x12E2BA, size: 0x8, addend: 0x0, symName: '__ZN61_$LT$std..process..ExitStatus$u20$as$u20$core..fmt..Debug$GT$3fmt17h3fa8c892fdd1fed1E', symObjAddr: 0x3A570, symBinAddr: 0x9CF64, symSize: 0x40 }
  - { offset: 0x12E427, size: 0x8, addend: 0x0, symName: __ZN3std3sys6os_str5bytes3Buf11into_string17h58677acc13c98288E, symObjAddr: 0x433B4, symBinAddr: 0xA5CFC, symSize: 0xA0 }
  - { offset: 0x12E4E7, size: 0x8, addend: 0x0, symName: __ZN3std3sys6os_str5bytes3Buf10push_slice17h49261e5f2061daf1E, symObjAddr: 0x43454, symBinAddr: 0xA5D9C, symSize: 0x74 }
  - { offset: 0x12E680, size: 0x8, addend: 0x0, symName: __ZN3std3sys6os_str5bytes5Slice15to_string_lossy17h57355f362353ac33E, symObjAddr: 0x435FC, symBinAddr: 0xA5F44, symSize: 0x10 }
  - { offset: 0x12E694, size: 0x8, addend: 0x0, symName: __ZN3std3sys6os_str5bytes5Slice8to_owned17h2298ff80b63d2463E, symObjAddr: 0x4360C, symBinAddr: 0xA5F54, symSize: 0x90 }
  - { offset: 0x12E79A, size: 0x8, addend: 0x0, symName: __ZN3std3sys6os_str5bytes5Slice10clone_into17h574eaf5587ef52ebE, symObjAddr: 0x4369C, symBinAddr: 0xA5FE4, symSize: 0x74 }
  - { offset: 0x12E8D0, size: 0x8, addend: 0x0, symName: __ZN3std3sys6os_str5bytes5Slice9empty_box17h6c6f81971d8088faE, symObjAddr: 0x43710, symBinAddr: 0xA6058, symSize: 0x18 }
  - { offset: 0x12E906, size: 0x8, addend: 0x0, symName: '__ZN69_$LT$std..sys..os_str..bytes..Slice$u20$as$u20$core..fmt..Display$GT$3fmt17ha29ee20dd5e04fecE', symObjAddr: 0x432F8, symBinAddr: 0xA5C40, symSize: 0xA0 }
  - { offset: 0x12E952, size: 0x8, addend: 0x0, symName: '__ZN67_$LT$std..sys..os_str..bytes..Buf$u20$as$u20$core..fmt..Display$GT$3fmt17h031f98e7daaff885E', symObjAddr: 0x43398, symBinAddr: 0xA5CE0, symSize: 0x1C }
  - { offset: 0x12E9D3, size: 0x8, addend: 0x0, symName: __ZN3std3sys6os_str5bytes5Slice21check_public_boundary9slow_path17ha4029d18dfa1a411E, symObjAddr: 0x434C8, symBinAddr: 0xA5E10, symSize: 0x134 }
  - { offset: 0x12EBA4, size: 0x8, addend: 0x0, symName: '__ZN92_$LT$std..sys..pal..unix..process..process_inner..ExitStatus$u20$as$u20$core..fmt..Debug$GT$3fmt17h07c873b4f6fac8f7E', symObjAddr: 0x42CF0, symBinAddr: 0xA5638, symSize: 0x58 }
  - { offset: 0x12EC05, size: 0x8, addend: 0x0, symName: __ZN3std3sys3pal4unix7process13process_inner7Process4wait17h491acc4148a98352E, symObjAddr: 0x42C18, symBinAddr: 0xA5560, symSize: 0xD8 }
  - { offset: 0x12EDAB, size: 0x8, addend: 0x0, symName: '__ZN193_$LT$std..sys..pal..unix..process..process_inner..$LT$impl$u20$std..sys..pal..unix..process..process_common..Command$GT$..posix_spawn..PosixSpawnFileActions$u20$as$u20$core..ops..drop..Drop$GT$4drop17h8d6617ae9547b69eE', symObjAddr: 0x42BF0, symBinAddr: 0xA5538, symSize: 0x14 }
  - { offset: 0x12EDD4, size: 0x8, addend: 0x0, symName: '__ZN186_$LT$std..sys..pal..unix..process..process_inner..$LT$impl$u20$std..sys..pal..unix..process..process_common..Command$GT$..posix_spawn..PosixSpawnattr$u20$as$u20$core..ops..drop..Drop$GT$4drop17h07b5bf03151efa1fE', symObjAddr: 0x42C04, symBinAddr: 0xA554C, symSize: 0x14 }
  - { offset: 0x12EE3C, size: 0x8, addend: 0x0, symName: '__ZN173_$LT$std..sys..pal..unix..process..process_inner..$LT$impl$u20$std..sys..pal..unix..process..process_common..Command$GT$..do_exec..Reset$u20$as$u20$core..ops..drop..Drop$GT$4drop17he196e2ddf0592cdeE', symObjAddr: 0x42BCC, symBinAddr: 0xA5514, symSize: 0x24 }
  - { offset: 0x12EE9A, size: 0x8, addend: 0x0, symName: '__ZN94_$LT$std..sys..pal..unix..process..process_inner..ExitStatus$u20$as$u20$core..fmt..Display$GT$3fmt17he7fd0047d2a7b3a4E', symObjAddr: 0x42D48, symBinAddr: 0xA5690, symSize: 0x1C0 }
  - { offset: 0x12F044, size: 0x8, addend: 0x0, symName: '__ZN97_$LT$std..sys..pal..unix..process..process_inner..ExitStatusError$u20$as$u20$core..fmt..Debug$GT$3fmt17hafa575bf182c9e1aE', symObjAddr: 0x42F08, symBinAddr: 0xA5850, symSize: 0x58 }
  - { offset: 0x12F0E1, size: 0x8, addend: 0x0, symName: __ZN3std3sys3pal4unix7process14process_common7Command3new17h83570e5d8f97c3e6E, symObjAddr: 0x3F84C, symBinAddr: 0xA2194, symSize: 0x234 }
  - { offset: 0x12F4E6, size: 0x8, addend: 0x0, symName: __ZN3std3sys3pal4unix7process14process_common7Command9set_arg_017hd1cca0435ef9ea83E, symObjAddr: 0x3FA80, symBinAddr: 0xA23C8, symSize: 0xCC }
  - { offset: 0x12F6B4, size: 0x8, addend: 0x0, symName: __ZN3std3sys3pal4unix7process14process_common7Command3arg17h2039b91083469447E, symObjAddr: 0x3FB4C, symBinAddr: 0xA2494, symSize: 0xEC }
  - { offset: 0x12F808, size: 0x8, addend: 0x0, symName: __ZN3std3sys3pal4unix7process14process_common7Command3cwd17h3e5a51d9df8ee667E, symObjAddr: 0x3FC38, symBinAddr: 0xA2580, symSize: 0x60 }
  - { offset: 0x12F8C1, size: 0x8, addend: 0x0, symName: __ZN3std3sys3pal4unix7process14process_common7Command8pre_exec17h3f41fcb7a0b0c86fE, symObjAddr: 0x3FC98, symBinAddr: 0xA25E0, symSize: 0x70 }
  - { offset: 0x12F95B, size: 0x8, addend: 0x0, symName: __ZN3std3sys3pal4unix7process14process_common7Command5stdin17h15c57b88b6a2c291E, symObjAddr: 0x3FD08, symBinAddr: 0xA2650, symSize: 0x44 }
  - { offset: 0x12F9E9, size: 0x8, addend: 0x0, symName: __ZN3std3sys3pal4unix7process14process_common7Command6stdout17ha4b8ae495119b20cE, symObjAddr: 0x3FD4C, symBinAddr: 0xA2694, symSize: 0x44 }
  - { offset: 0x12FA77, size: 0x8, addend: 0x0, symName: __ZN3std3sys3pal4unix7process14process_common7Command6stderr17h021570a5bd97e32fE, symObjAddr: 0x3FD90, symBinAddr: 0xA26D8, symSize: 0x44 }
  - { offset: 0x12FB05, size: 0x8, addend: 0x0, symName: __ZN3std3sys3pal4unix7process14process_common7Command11capture_env17hc9a7e8a738f7bf64E, symObjAddr: 0x3FDD4, symBinAddr: 0xA271C, symSize: 0xA14 }
  - { offset: 0x131501, size: 0x8, addend: 0x0, symName: __ZN3std3sys3pal4unix7process14process_common7Command8setup_io17h90e68aa9bd5be74cE, symObjAddr: 0x407E8, symBinAddr: 0xA3130, symSize: 0x298 }
  - { offset: 0x131A16, size: 0x8, addend: 0x0, symName: '__ZN3std3sys3pal4unix7process13process_inner71_$LT$impl$u20$std..sys..pal..unix..process..process_common..Command$GT$5spawn17hb6a44228fe9bfe5eE', symObjAddr: 0x41DF4, symBinAddr: 0xA473C, symSize: 0x9AC }
  - { offset: 0x132CAC, size: 0x8, addend: 0x0, symName: '__ZN3std3sys3pal4unix7process13process_inner71_$LT$impl$u20$std..sys..pal..unix..process..process_common..Command$GT$7do_exec17h4163498c2c4643fbE', symObjAddr: 0x427A0, symBinAddr: 0xA50E8, symSize: 0x42C }
  - { offset: 0x133488, size: 0x8, addend: 0x0, symName: '__ZN116_$LT$std..sys..pal..unix..process..process_common..CommandArgs$u20$as$u20$core..iter..traits..iterator..Iterator$GT$4next17h046cfebed204feaeE', symObjAddr: 0x4138C, symBinAddr: 0xA3CD4, symSize: 0x34 }
  - { offset: 0x1334A0, size: 0x8, addend: 0x0, symName: '__ZN116_$LT$std..sys..pal..unix..process..process_common..CommandArgs$u20$as$u20$core..iter..traits..iterator..Iterator$GT$4next17h046cfebed204feaeE', symObjAddr: 0x4138C, symBinAddr: 0xA3CD4, symSize: 0x34 }
  - { offset: 0x13353A, size: 0x8, addend: 0x0, symName: '__ZN116_$LT$std..sys..pal..unix..process..process_common..CommandArgs$u20$as$u20$core..iter..traits..iterator..Iterator$GT$9size_hint17h600c0d45ff5ae273E', symObjAddr: 0x413C0, symBinAddr: 0xA3D08, symSize: 0x28 }
  - { offset: 0x1335A7, size: 0x8, addend: 0x0, symName: '__ZN127_$LT$std..sys..pal..unix..process..process_common..CommandArgs$u20$as$u20$core..iter..traits..exact_size..ExactSizeIterator$GT$3len17h0011b8e84a85659aE', symObjAddr: 0x413E8, symBinAddr: 0xA3D30, symSize: 0x1C }
  - { offset: 0x1336A7, size: 0x8, addend: 0x0, symName: __ZN3std3sys3pal4unix7process14process_common4os2c17hb36cd898ae5ceb6aE, symObjAddr: 0x40A80, symBinAddr: 0xA33C8, symSize: 0x10C }
  - { offset: 0x1338EF, size: 0x8, addend: 0x0, symName: __ZN3std3sys3pal4unix7process14process_common5Stdio14to_child_stdio17he0dddcfaa4994f3aE, symObjAddr: 0x40B8C, symBinAddr: 0xA34D4, symSize: 0x13C }
  - { offset: 0x13398C, size: 0x8, addend: 0x0, symName: '__ZN90_$LT$std..sys..pal..unix..process..process_common..Command$u20$as$u20$core..fmt..Debug$GT$3fmt17hcd582ae4d6ca21d6E', symObjAddr: 0x40CC8, symBinAddr: 0xA3610, symSize: 0x66C }
  - { offset: 0x133F8E, size: 0x8, addend: 0x0, symName: '__ZN91_$LT$std..sys..pal..unix..process..process_common..ExitCode$u20$as$u20$core..fmt..Debug$GT$3fmt17h06dd8d027cb60490E', symObjAddr: 0x41334, symBinAddr: 0xA3C7C, symSize: 0x58 }
  - { offset: 0x133FB0, size: 0x8, addend: 0x0, symName: '__ZN94_$LT$std..sys..pal..unix..process..process_common..CommandArgs$u20$as$u20$core..fmt..Debug$GT$3fmt17hc56d5d303acacae6E', symObjAddr: 0x41404, symBinAddr: 0xA3D4C, symSize: 0x78 }
  - { offset: 0x13408A, size: 0x8, addend: 0x0, symName: '__ZN77_$LT$std..sys..pal..unix..fs..FilePermissions$u20$as$u20$core..fmt..Debug$GT$3fmt17h2acfb1e5dfa0d03cE', symObjAddr: 0x3B0CC, symBinAddr: 0x9DA14, symSize: 0x6C }
  - { offset: 0x134250, size: 0x8, addend: 0x0, symName: __ZN3std3sys3pal4unix2fs4File6open_c17h21cc28d293b6dfc6E, symObjAddr: 0x3B608, symBinAddr: 0x9DF50, symSize: 0x190 }
  - { offset: 0x134339, size: 0x8, addend: 0x0, symName: __ZN3std3sys3pal4unix2fs4File4read17h9846c66db7b43271E, symObjAddr: 0x3B798, symBinAddr: 0x9E0E0, symSize: 0x4C }
  - { offset: 0x134444, size: 0x8, addend: 0x0, symName: __ZN3std3sys3pal4unix2fs4File13read_vectored17hc8a5c5959e2cf7a3E, symObjAddr: 0x3B7E4, symBinAddr: 0x9E12C, symSize: 0x4C }
  - { offset: 0x13454F, size: 0x8, addend: 0x0, symName: __ZN3std3sys3pal4unix2fs4File8read_buf17h59fe2b90b6314d39E, symObjAddr: 0x3B830, symBinAddr: 0x9E178, symSize: 0x78 }
  - { offset: 0x134922, size: 0x8, addend: 0x0, symName: __ZN3std3sys3pal4unix2fs8DirEntry8metadata17he8b6ffb26c50ed5aE, symObjAddr: 0x3B374, symBinAddr: 0x9DCBC, symSize: 0x174 }
  - { offset: 0x134E30, size: 0x8, addend: 0x0, symName: '__ZN3std3sys3pal4unix2fs4stat28_$u7b$$u7b$closure$u7d$$u7d$17h4525adadfc554731E', symObjAddr: 0x3CDDC, symBinAddr: 0x9F724, symSize: 0xAC }
  - { offset: 0x134F4F, size: 0x8, addend: 0x0, symName: '__ZN3std3sys3pal4unix2fs10DirBuilder5mkdir28_$u7b$$u7b$closure$u7d$$u7d$17h34555adde965a41bE', symObjAddr: 0x3B8A8, symBinAddr: 0x9E1F0, symSize: 0x44 }
  - { offset: 0x134FF9, size: 0x8, addend: 0x0, symName: '__ZN3std3sys3pal4unix2fs5lstat28_$u7b$$u7b$closure$u7d$$u7d$17hb11e4f55a5865352E', symObjAddr: 0x3CFAC, symBinAddr: 0x9F8F4, symSize: 0xAC }
  - { offset: 0x135119, size: 0x8, addend: 0x0, symName: '__ZN70_$LT$std..sys..pal..unix..fs..FileType$u20$as$u20$core..fmt..Debug$GT$3fmt17h4ab33fb61c79d510E', symObjAddr: 0x3B060, symBinAddr: 0x9D9A8, symSize: 0x6C }
  - { offset: 0x13513B, size: 0x8, addend: 0x0, symName: '__ZN69_$LT$std..sys..pal..unix..fs..ReadDir$u20$as$u20$core..fmt..Debug$GT$3fmt17h82bfd6e4d580ea87E', symObjAddr: 0x3B138, symBinAddr: 0x9DA80, symSize: 0x2C }
  - { offset: 0x1352C9, size: 0x8, addend: 0x0, symName: '__ZN91_$LT$std..sys..pal..unix..fs..ReadDir$u20$as$u20$core..iter..traits..iterator..Iterator$GT$4next17hd2055f20a5923caaE', symObjAddr: 0x3B164, symBinAddr: 0x9DAAC, symSize: 0x144 }
  - { offset: 0x13555E, size: 0x8, addend: 0x0, symName: '__ZN70_$LT$std..sys..pal..unix..fs..Dir$u20$as$u20$core..ops..drop..Drop$GT$4drop17ha5c53b51d8ad7047E', symObjAddr: 0x3B2A8, symBinAddr: 0x9DBF0, symSize: 0xCC }
  - { offset: 0x13563A, size: 0x8, addend: 0x0, symName: '__ZN73_$LT$std..sys..pal..unix..fs..OpenOptions$u20$as$u20$core..fmt..Debug$GT$3fmt17h003e3350f97cae29E', symObjAddr: 0x3B4E8, symBinAddr: 0x9DE30, symSize: 0x120 }
  - { offset: 0x13565C, size: 0x8, addend: 0x0, symName: '__ZN72_$LT$std..sys..pal..unix..fs..DirBuilder$u20$as$u20$core..fmt..Debug$GT$3fmt17hd5357593296ce7faE', symObjAddr: 0x3B8EC, symBinAddr: 0x9E234, symSize: 0x6C }
  - { offset: 0x13567E, size: 0x8, addend: 0x0, symName: '__ZN77_$LT$std..sys..pal..unix..fs..File$u20$as$u20$std..os..fd..raw..FromRawFd$GT$11from_raw_fd17hd3348c7273a3809aE', symObjAddr: 0x3B958, symBinAddr: 0x9E2A0, symSize: 0x48 }
  - { offset: 0x135712, size: 0x8, addend: 0x0, symName: '__ZN66_$LT$std..sys..pal..unix..fs..File$u20$as$u20$core..fmt..Debug$GT$3fmt17hbf2dd4a9b7b36493E', symObjAddr: 0x3B9A0, symBinAddr: 0x9E2E8, symSize: 0x20C }
  - { offset: 0x135B33, size: 0x8, addend: 0x0, symName: '__ZN66_$LT$std..sys..pal..unix..fs..Mode$u20$as$u20$core..fmt..Debug$GT$3fmt17h29c8b9633faedb29E', symObjAddr: 0x3BBAC, symBinAddr: 0x9E4F4, symSize: 0x328 }
  - { offset: 0x135B9F, size: 0x8, addend: 0x0, symName: __ZN3std3sys3pal4unix2fs7readdir17h93dc5a159882137eE, symObjAddr: 0x3BED4, symBinAddr: 0x9E81C, symSize: 0x19C }
  - { offset: 0x135E6A, size: 0x8, addend: 0x0, symName: '__ZN3std3sys3pal4unix2fs6unlink28_$u7b$$u7b$closure$u7d$$u7d$17h355fac63ecb3f499E', symObjAddr: 0x3C130, symBinAddr: 0x9EA78, symSize: 0x38 }
  - { offset: 0x135EF1, size: 0x8, addend: 0x0, symName: __ZN3std3sys3pal4unix2fs6unlink17hd0c53b39baae2ed0E, symObjAddr: 0x3C070, symBinAddr: 0x9E9B8, symSize: 0xC0 }
  - { offset: 0x136029, size: 0x8, addend: 0x0, symName: '__ZN3std3sys3pal4unix2fs6rename28_$u7b$$u7b$closure$u7d$$u7d$28_$u7b$$u7b$closure$u7d$$u7d$17h33ab1bff15e3f14cE', symObjAddr: 0x3C348, symBinAddr: 0x9EC90, symSize: 0x38 }
  - { offset: 0x1360B0, size: 0x8, addend: 0x0, symName: '__ZN3std3sys3pal4unix2fs6rename28_$u7b$$u7b$closure$u7d$$u7d$17h7b42af3bd59682a0E', symObjAddr: 0x3C28C, symBinAddr: 0x9EBD4, symSize: 0xBC }
  - { offset: 0x1361D1, size: 0x8, addend: 0x0, symName: __ZN3std3sys3pal4unix2fs6rename17hfeda2a3994bbc442E, symObjAddr: 0x3C168, symBinAddr: 0x9EAB0, symSize: 0x124 }
  - { offset: 0x136373, size: 0x8, addend: 0x0, symName: '__ZN3std3sys3pal4unix2fs8set_perm28_$u7b$$u7b$closure$u7d$$u7d$17h0331d4a2762bc1d0E', symObjAddr: 0x3C488, symBinAddr: 0x9EDD0, symSize: 0x90 }
  - { offset: 0x13642D, size: 0x8, addend: 0x0, symName: __ZN3std3sys3pal4unix2fs8set_perm17h008219756b518c14E, symObjAddr: 0x3C380, symBinAddr: 0x9ECC8, symSize: 0x108 }
  - { offset: 0x13658B, size: 0x8, addend: 0x0, symName: '__ZN3std3sys3pal4unix2fs5rmdir28_$u7b$$u7b$closure$u7d$$u7d$17h6a248a8aa0c9d610E', symObjAddr: 0x3C5D8, symBinAddr: 0x9EF20, symSize: 0x38 }
  - { offset: 0x136612, size: 0x8, addend: 0x0, symName: __ZN3std3sys3pal4unix2fs5rmdir17hfeaa6650d85b4dbdE, symObjAddr: 0x3C518, symBinAddr: 0x9EE60, symSize: 0xC0 }
  - { offset: 0x136729, size: 0x8, addend: 0x0, symName: __ZN3std3sys3pal4unix2fs8readlink17h0332824a10747fcbE, symObjAddr: 0x3C610, symBinAddr: 0x9EF58, symSize: 0xA4 }
  - { offset: 0x1367BF, size: 0x8, addend: 0x0, symName: '__ZN3std3sys3pal4unix2fs8readlink28_$u7b$$u7b$closure$u7d$$u7d$17h2390c1aacb427957E', symObjAddr: 0x3C6B4, symBinAddr: 0x9EFFC, symSize: 0x1AC }
  - { offset: 0x136B39, size: 0x8, addend: 0x0, symName: '__ZN3std3sys3pal4unix2fs7symlink28_$u7b$$u7b$closure$u7d$$u7d$28_$u7b$$u7b$closure$u7d$$u7d$17hbe51142e1f387675E', symObjAddr: 0x3CA40, symBinAddr: 0x9F388, symSize: 0x38 }
  - { offset: 0x136BC0, size: 0x8, addend: 0x0, symName: '__ZN3std3sys3pal4unix2fs7symlink28_$u7b$$u7b$closure$u7d$$u7d$17hba12152e2ab3e5d3E', symObjAddr: 0x3C984, symBinAddr: 0x9F2CC, symSize: 0xBC }
  - { offset: 0x136CE1, size: 0x8, addend: 0x0, symName: __ZN3std3sys3pal4unix2fs7symlink17h6e616da29e943246E, symObjAddr: 0x3C860, symBinAddr: 0x9F1A8, symSize: 0x124 }
  - { offset: 0x136E82, size: 0x8, addend: 0x0, symName: '__ZN3std3sys3pal4unix2fs4link28_$u7b$$u7b$closure$u7d$$u7d$28_$u7b$$u7b$closure$u7d$$u7d$17h7cee61df2f55b5ecE', symObjAddr: 0x3CC70, symBinAddr: 0x9F5B8, symSize: 0x48 }
  - { offset: 0x136F09, size: 0x8, addend: 0x0, symName: '__ZN3std3sys3pal4unix2fs4link28_$u7b$$u7b$closure$u7d$$u7d$17h002b58dabcc30ce4E', symObjAddr: 0x3CBA8, symBinAddr: 0x9F4F0, symSize: 0xC8 }
  - { offset: 0x13702A, size: 0x8, addend: 0x0, symName: __ZN3std3sys3pal4unix2fs4link17h79788dfb05bc1914E, symObjAddr: 0x3CA78, symBinAddr: 0x9F3C0, symSize: 0x130 }
  - { offset: 0x1371A3, size: 0x8, addend: 0x0, symName: __ZN3std3sys3pal4unix2fs4stat17h1b52e8db08a322ffE, symObjAddr: 0x3CCB8, symBinAddr: 0x9F600, symSize: 0x124 }
  - { offset: 0x1372F6, size: 0x8, addend: 0x0, symName: __ZN3std3sys3pal4unix2fs5lstat17h980c2c8e9224e9f1E, symObjAddr: 0x3CE88, symBinAddr: 0x9F7D0, symSize: 0x124 }
  - { offset: 0x137449, size: 0x8, addend: 0x0, symName: __ZN3std3sys3pal4unix2fs12canonicalize17h4dad02e363feee76E, symObjAddr: 0x3D058, symBinAddr: 0x9F9A0, symSize: 0x14C }
  - { offset: 0x1376CF, size: 0x8, addend: 0x0, symName: '__ZN83_$LT$std..sys..pal..unix..fs..copy..FreeOnDrop$u20$as$u20$core..ops..drop..Drop$GT$4drop17h5e176c9779bb2c26E', symObjAddr: 0x3D668, symBinAddr: 0x9FFB0, symSize: 0x14 }
  - { offset: 0x1376E4, size: 0x8, addend: 0x0, symName: '__ZN3std3sys3pal4unix2fs4copy28_$u7b$$u7b$closure$u7d$$u7d$17ha09a209a9cda964fE', symObjAddr: 0x3D67C, symBinAddr: 0x9FFC4, symSize: 0x64 }
  - { offset: 0x1377D3, size: 0x8, addend: 0x0, symName: __ZN3std3sys3pal4unix2fs4copy17h6b1d04e36d5027a3E, symObjAddr: 0x3D1A4, symBinAddr: 0x9FAEC, symSize: 0x4C4 }
  - { offset: 0x1382BE, size: 0x8, addend: 0x0, symName: '__ZN3std3sys3pal4unix2fs5chown28_$u7b$$u7b$closure$u7d$$u7d$17h264b760ab8220484E', symObjAddr: 0x3D7A8, symBinAddr: 0xA00F0, symSize: 0x48 }
  - { offset: 0x138345, size: 0x8, addend: 0x0, symName: __ZN3std3sys3pal4unix2fs5chown17h60f49c3954584e17E, symObjAddr: 0x3D6E0, symBinAddr: 0xA0028, symSize: 0xC8 }
  - { offset: 0x13846C, size: 0x8, addend: 0x0, symName: __ZN3std3sys3pal4unix2fs6fchown17h17127396ce055a9eE, symObjAddr: 0x3D7F0, symBinAddr: 0xA0138, symSize: 0x34 }
  - { offset: 0x13850D, size: 0x8, addend: 0x0, symName: '__ZN3std3sys3pal4unix2fs6lchown28_$u7b$$u7b$closure$u7d$$u7d$17h96bd096afe96211eE', symObjAddr: 0x3D8EC, symBinAddr: 0xA0234, symSize: 0x48 }
  - { offset: 0x138594, size: 0x8, addend: 0x0, symName: __ZN3std3sys3pal4unix2fs6lchown17h07e93734d9344048E, symObjAddr: 0x3D824, symBinAddr: 0xA016C, symSize: 0xC8 }
  - { offset: 0x1386CF, size: 0x8, addend: 0x0, symName: '__ZN3std3sys3pal4unix2fs6chroot28_$u7b$$u7b$closure$u7d$$u7d$17hdd27df131d3d0db4E', symObjAddr: 0x3D9F4, symBinAddr: 0xA033C, symSize: 0x38 }
  - { offset: 0x138756, size: 0x8, addend: 0x0, symName: __ZN3std3sys3pal4unix2fs6chroot17had7c57ee47933be2E, symObjAddr: 0x3D934, symBinAddr: 0xA027C, symSize: 0xC0 }
  - { offset: 0x1388B2, size: 0x8, addend: 0x0, symName: __ZN3std3sys3pal4unix2fs15remove_dir_impl24remove_dir_all_recursive17h7d0c7e9a4cd40674E, symObjAddr: 0x3DA2C, symBinAddr: 0xA0374, symSize: 0x394 }
  - { offset: 0x139094, size: 0x8, addend: 0x0, symName: '__ZN3std3sys3pal4unix2fs15remove_dir_impl21remove_dir_all_modern28_$u7b$$u7b$closure$u7d$$u7d$17h791a1ecd4c3bde3fE', symObjAddr: 0x3DDC0, symBinAddr: 0xA0708, symSize: 0x18 }
  - { offset: 0x1390C5, size: 0x8, addend: 0x0, symName: __ZN3std3sys3pal4unix2fs15remove_dir_impl14remove_dir_all17h216a5dc4d5953f2fE, symObjAddr: 0x3DDD8, symBinAddr: 0xA0720, symSize: 0x228 }
  - { offset: 0x139406, size: 0x8, addend: 0x0, symName: '__ZN70_$LT$std..sys..pal..unix..fd..FileDesc$u20$as$u20$core..fmt..Debug$GT$3fmt17he404ec5ac5854cbeE', symObjAddr: 0x41DB4, symBinAddr: 0xA46FC, symSize: 0x40 }
  - { offset: 0x1394B7, size: 0x8, addend: 0x0, symName: __ZN3std3sys3pal4unix2fd8FileDesc4read17h77dc151708cdaf9eE, symObjAddr: 0x3A7C8, symBinAddr: 0x9D110, symSize: 0x4C }
  - { offset: 0x1395AB, size: 0x8, addend: 0x0, symName: __ZN3std3sys3pal4unix2fd8FileDesc13read_vectored17he298e8a52ffea113E, symObjAddr: 0x3A814, symBinAddr: 0x9D15C, symSize: 0x4C }
  - { offset: 0x13969F, size: 0x8, addend: 0x0, symName: __ZN3std3sys3pal4unix2fd8FileDesc11read_to_end17h7b64c1f3281088f4E, symObjAddr: 0x3A860, symBinAddr: 0x9D1A8, symSize: 0x22C }
  - { offset: 0x139A81, size: 0x8, addend: 0x0, symName: __ZN3std3sys3pal4unix2fd8FileDesc7read_at17h4b7fe72ba30adf0fE, symObjAddr: 0x3AA8C, symBinAddr: 0x9D3D4, symSize: 0x4C }
  - { offset: 0x139B75, size: 0x8, addend: 0x0, symName: __ZN3std3sys3pal4unix2fd8FileDesc8read_buf17hd374a0768ca2cb92E, symObjAddr: 0x3AAD8, symBinAddr: 0x9D420, symSize: 0x78 }
  - { offset: 0x139D4E, size: 0x8, addend: 0x0, symName: __ZN3std3sys3pal4unix2fd8FileDesc16read_vectored_at17h93eccdcda382066dE, symObjAddr: 0x3AB50, symBinAddr: 0x9D498, symSize: 0x10C }
  - { offset: 0x139F03, size: 0x8, addend: 0x0, symName: __ZN3std3sys3pal4unix2fd8FileDesc5write17h14a121d76e7bd572E, symObjAddr: 0x3AC5C, symBinAddr: 0x9D5A4, symSize: 0x4C }
  - { offset: 0x139FFA, size: 0x8, addend: 0x0, symName: __ZN3std3sys3pal4unix2fd8FileDesc14write_vectored17hd7d9d4b042960d35E, symObjAddr: 0x3ACA8, symBinAddr: 0x9D5F0, symSize: 0x4C }
  - { offset: 0x13A0F1, size: 0x8, addend: 0x0, symName: __ZN3std3sys3pal4unix2fd8FileDesc8write_at17h16899cc5f8a7b6b5E, symObjAddr: 0x3ACF4, symBinAddr: 0x9D63C, symSize: 0x4C }
  - { offset: 0x13A1E8, size: 0x8, addend: 0x0, symName: __ZN3std3sys3pal4unix2fd8FileDesc17write_vectored_at17hb156eb40ee605c7dE, symObjAddr: 0x3AD40, symBinAddr: 0x9D688, symSize: 0x10C }
  - { offset: 0x13A39E, size: 0x8, addend: 0x0, symName: __ZN3std3sys3pal4unix2fd8FileDesc11set_cloexec17h2a0c3964a77bd362E, symObjAddr: 0x3AE4C, symBinAddr: 0x9D794, symSize: 0x40 }
  - { offset: 0x13A451, size: 0x8, addend: 0x0, symName: __ZN3std3sys3pal4unix2fd8FileDesc15set_nonblocking17h1959701cc4ca9a34E, symObjAddr: 0x3AE8C, symBinAddr: 0x9D7D4, symSize: 0x88 }
  - { offset: 0x13A69A, size: 0x8, addend: 0x0, symName: '__ZN71_$LT$$RF$std..sys..pal..unix..fd..FileDesc$u20$as$u20$std..io..Read$GT$4read17h90a59aabd5c1eda2E', symObjAddr: 0x3AF14, symBinAddr: 0x9D85C, symSize: 0x50 }
  - { offset: 0x13A7A5, size: 0x8, addend: 0x0, symName: '__ZN71_$LT$$RF$std..sys..pal..unix..fd..FileDesc$u20$as$u20$std..io..Read$GT$8read_buf17hcb84047fd66d9454E', symObjAddr: 0x3AF64, symBinAddr: 0x9D8AC, symSize: 0x7C }
  - { offset: 0x13A995, size: 0x8, addend: 0x0, symName: '__ZN71_$LT$$RF$std..sys..pal..unix..fd..FileDesc$u20$as$u20$std..io..Read$GT$13read_vectored17hf6bb7ac24ae79a61E', symObjAddr: 0x3AFE0, symBinAddr: 0x9D928, symSize: 0x50 }
  - { offset: 0x13AADF, size: 0x8, addend: 0x0, symName: '__ZN78_$LT$std..sys..pal..unix..fd..FileDesc$u20$as$u20$std..os..fd..owned..AsFd$GT$5as_fd17h681fd662c793cc52E', symObjAddr: 0x3B030, symBinAddr: 0x9D978, symSize: 0x30 }
  - { offset: 0x13AB05, size: 0x8, addend: 0x0, symName: '__ZN78_$LT$std..sys..pal..unix..fd..FileDesc$u20$as$u20$std..os..fd..owned..AsFd$GT$5as_fd17h681fd662c793cc52E', symObjAddr: 0x3B030, symBinAddr: 0x9D978, symSize: 0x30 }
  - { offset: 0x13AC10, size: 0x8, addend: 0x0, symName: '__ZN87_$LT$std..sys..pal..unix..os..Env$u20$as$u20$core..iter..traits..iterator..Iterator$GT$4next17ha2c978bfe5dcd180E', symObjAddr: 0x3E940, symBinAddr: 0xA1288, symSize: 0x48 }
  - { offset: 0x13AC8A, size: 0x8, addend: 0x0, symName: '__ZN87_$LT$std..sys..pal..unix..os..Env$u20$as$u20$core..iter..traits..iterator..Iterator$GT$9size_hint17hfe940595badb2632E', symObjAddr: 0x3E988, symBinAddr: 0xA12D0, symSize: 0x38 }
  - { offset: 0x13AD19, size: 0x8, addend: 0x0, symName: '__ZN94_$LT$std..sys..pal..unix..os..SplitPaths$u20$as$u20$core..iter..traits..iterator..Iterator$GT$4next17h2bb0062f3d3b5f31E', symObjAddr: 0x3E6EC, symBinAddr: 0xA1034, symSize: 0xA8 }
  - { offset: 0x13AE72, size: 0x8, addend: 0x0, symName: '__ZN78_$LT$std..sys..pal..unix..os..JoinPathsError$u20$as$u20$core..fmt..Display$GT$3fmt17h40d5bfb9de988baaE', symObjAddr: 0x3E794, symBinAddr: 0xA10DC, symSize: 0x5C }
  - { offset: 0x13AF30, size: 0x8, addend: 0x0, symName: __ZN3std3sys3pal4unix2os5errno17hded5178c402b6a1fE, symObjAddr: 0x3E544, symBinAddr: 0xA0E8C, symSize: 0x18 }
  - { offset: 0x13AF57, size: 0x8, addend: 0x0, symName: '__ZN3std3sys3pal4unix2os5chdir28_$u7b$$u7b$closure$u7d$$u7d$17h511621d240be669eE', symObjAddr: 0x3E634, symBinAddr: 0xA0F7C, symSize: 0x28 }
  - { offset: 0x13AF6C, size: 0x8, addend: 0x0, symName: __ZN3std3sys3pal4unix2os5chdir17h957ae4fded0f626fE, symObjAddr: 0x3E55C, symBinAddr: 0xA0EA4, symSize: 0xD8 }
  - { offset: 0x13B073, size: 0x8, addend: 0x0, symName: __ZN3std3sys3pal4unix2os11split_paths13bytes_to_path17h1037ac437b554d38E, symObjAddr: 0x3E65C, symBinAddr: 0xA0FA4, symSize: 0x90 }
  - { offset: 0x13B1DD, size: 0x8, addend: 0x0, symName: '__ZN73_$LT$std..sys..pal..unix..os..EnvStrDebug$u20$as$u20$core..fmt..Debug$GT$3fmt17h16bd756a44632cdeE', symObjAddr: 0x3E7F0, symBinAddr: 0xA1138, symSize: 0xD4 }
  - { offset: 0x13B42F, size: 0x8, addend: 0x0, symName: '__ZN65_$LT$std..sys..pal..unix..os..Env$u20$as$u20$core..fmt..Debug$GT$3fmt17hf265114d29528d6aE', symObjAddr: 0x3E8C4, symBinAddr: 0xA120C, symSize: 0x7C }
  - { offset: 0x13B4B4, size: 0x8, addend: 0x0, symName: __ZN3std3sys3pal4unix2os13env_read_lock17hbec1556d40e1af8cE, symObjAddr: 0x3E9C0, symBinAddr: 0xA1308, symSize: 0x358 }
  - { offset: 0x13BB64, size: 0x8, addend: 0x0, symName: '__ZN3std3sys3pal4unix2os6getenv28_$u7b$$u7b$closure$u7d$$u7d$17hc658ddf32ce01f89E', symObjAddr: 0x3ED18, symBinAddr: 0xA1660, symSize: 0x144 }
  - { offset: 0x13BD6E, size: 0x8, addend: 0x0, symName: '__ZN3std3sys3pal4unix2os6setenv28_$u7b$$u7b$closure$u7d$$u7d$17hfcc395c45a8b97b6E', symObjAddr: 0x3EF60, symBinAddr: 0xA18A8, symSize: 0x9C }
  - { offset: 0x13BDEF, size: 0x8, addend: 0x0, symName: '__ZN3std3sys3pal4unix2os6setenv28_$u7b$$u7b$closure$u7d$$u7d$28_$u7b$$u7b$closure$u7d$$u7d$17hb9ac0a625a4bea21E', symObjAddr: 0x3EFFC, symBinAddr: 0xA1944, symSize: 0x1BC }
  - { offset: 0x13C16A, size: 0x8, addend: 0x0, symName: __ZN3std3sys3pal4unix2os6setenv17haf74e42f7fab61a1E, symObjAddr: 0x3EE5C, symBinAddr: 0xA17A4, symSize: 0x104 }
  - { offset: 0x13C250, size: 0x8, addend: 0x0, symName: __ZN3std3sys3pal4unix2os8unsetenv17h18b78aa143114d28E, symObjAddr: 0x3F1B8, symBinAddr: 0xA1B00, symSize: 0xA0 }
  - { offset: 0x13C2D8, size: 0x8, addend: 0x0, symName: '__ZN3std3sys3pal4unix2os8unsetenv28_$u7b$$u7b$closure$u7d$$u7d$17hc8471e402265371aE', symObjAddr: 0x3F258, symBinAddr: 0xA1BA0, symSize: 0x1B0 }
  - { offset: 0x13C652, size: 0x8, addend: 0x0, symName: __ZN3std3sys3pal4unix2os4exit17h19c9ad5c4ad95c69E, symObjAddr: 0x3F408, symBinAddr: 0xA1D50, symSize: 0xC }
  - { offset: 0x13C6BD, size: 0x8, addend: 0x0, symName: __ZN3std3sys3pal4unix6thread6Thread3new17h15122e03f686753cE, symObjAddr: 0x4178C, symBinAddr: 0xA40D4, symSize: 0x234 }
  - { offset: 0x13CA02, size: 0x8, addend: 0x0, symName: __ZN3std3sys3pal4unix6thread6Thread8set_name17hd6ade35b5ad48a56E, symObjAddr: 0x41A44, symBinAddr: 0xA438C, symSize: 0x70 }
  - { offset: 0x13CB14, size: 0x8, addend: 0x0, symName: __ZN3std3sys3pal4unix6thread6Thread4join17h868659a045588b1aE, symObjAddr: 0x41AB4, symBinAddr: 0xA43FC, symSize: 0x90 }
  - { offset: 0x13CB85, size: 0x8, addend: 0x0, symName: __ZN3std3sys3pal4unix6thread6Thread3new12thread_start17h92272ca226fb516fE, symObjAddr: 0x419C0, symBinAddr: 0xA4308, symSize: 0x84 }
  - { offset: 0x13CD2D, size: 0x8, addend: 0x0, symName: '__ZN77_$LT$std..sys..pal..unix..thread..Thread$u20$as$u20$core..ops..drop..Drop$GT$4drop17h2751d54bed8ffe29E', symObjAddr: 0x41B44, symBinAddr: 0xA448C, symSize: 0x14 }
  - { offset: 0x13CDBC, size: 0x8, addend: 0x0, symName: __ZN3std3sys3pal4unix4time8Timespec3now17h7fbe9fcc63889ee7E, symObjAddr: 0x41B58, symBinAddr: 0xA44A0, symSize: 0x11C }
  - { offset: 0x13CE6E, size: 0x8, addend: 0x0, symName: __ZN3std3sys3pal4unix4time8Timespec12sub_timespec17h17f5e05dc96a60f8E, symObjAddr: 0x41C74, symBinAddr: 0xA45BC, symSize: 0x104 }
  - { offset: 0x13D034, size: 0x8, addend: 0x0, symName: '__ZN90_$LT$std..sys..pal..unix..args..Args$u20$as$u20$core..iter..traits..iterator..Iterator$GT$4next17h4893ad800c86b7f9E', symObjAddr: 0x3A6D4, symBinAddr: 0x9D01C, symSize: 0x48 }
  - { offset: 0x13D0AD, size: 0x8, addend: 0x0, symName: '__ZN90_$LT$std..sys..pal..unix..args..Args$u20$as$u20$core..iter..traits..iterator..Iterator$GT$9size_hint17hd102434cb784922eE', symObjAddr: 0x3A71C, symBinAddr: 0x9D064, symSize: 0x38 }
  - { offset: 0x13D118, size: 0x8, addend: 0x0, symName: '__ZN101_$LT$std..sys..pal..unix..args..Args$u20$as$u20$core..iter..traits..exact_size..ExactSizeIterator$GT$3len17h1aeb0007f7d500c1E', symObjAddr: 0x3A754, symBinAddr: 0x9D09C, symSize: 0x2C }
  - { offset: 0x13D199, size: 0x8, addend: 0x0, symName: '__ZN105_$LT$std..sys..pal..unix..args..Args$u20$as$u20$core..iter..traits..double_ended..DoubleEndedIterator$GT$9next_back17h40281619affb507fE', symObjAddr: 0x3A780, symBinAddr: 0x9D0C8, symSize: 0x48 }
  - { offset: 0x13D21C, size: 0x8, addend: 0x0, symName: '__ZN68_$LT$std..sys..pal..unix..args..Args$u20$as$u20$core..fmt..Debug$GT$3fmt17h6a530043117706c6E', symObjAddr: 0x3A65C, symBinAddr: 0x9CFA4, symSize: 0x78 }
  - { offset: 0x13D33E, size: 0x8, addend: 0x0, symName: '__ZN67_$LT$std..sys..pal..unix..stdio..Stdin$u20$as$u20$std..io..Read$GT$4read17h1ade8e514565f5d5E', symObjAddr: 0x41524, symBinAddr: 0xA3E6C, symSize: 0x4C }
  - { offset: 0x13D41C, size: 0x8, addend: 0x0, symName: '__ZN67_$LT$std..sys..pal..unix..stdio..Stdin$u20$as$u20$std..io..Read$GT$8read_buf17he624240748bda91aE', symObjAddr: 0x41570, symBinAddr: 0xA3EB8, symSize: 0x78 }
  - { offset: 0x13D5DF, size: 0x8, addend: 0x0, symName: '__ZN67_$LT$std..sys..pal..unix..stdio..Stdin$u20$as$u20$std..io..Read$GT$13read_vectored17h30cd0f8d5a786a7aE', symObjAddr: 0x415E8, symBinAddr: 0xA3F30, symSize: 0x4C }
  - { offset: 0x13D6EB, size: 0x8, addend: 0x0, symName: '__ZN69_$LT$std..sys..pal..unix..stdio..Stdout$u20$as$u20$std..io..Write$GT$5write17h0f0a29de30e65ea6E', symObjAddr: 0x41634, symBinAddr: 0xA3F7C, symSize: 0x4C }
  - { offset: 0x13D7CB, size: 0x8, addend: 0x0, symName: '__ZN69_$LT$std..sys..pal..unix..stdio..Stdout$u20$as$u20$std..io..Write$GT$14write_vectored17h2e9bc17417a8d4a2E', symObjAddr: 0x41680, symBinAddr: 0xA3FC8, symSize: 0x4C }
  - { offset: 0x13D8CC, size: 0x8, addend: 0x0, symName: '__ZN69_$LT$std..sys..pal..unix..stdio..Stderr$u20$as$u20$std..io..Write$GT$5write17h8de60dda8a53cad0E', symObjAddr: 0x416CC, symBinAddr: 0xA4014, symSize: 0x4C }
  - { offset: 0x13D9AC, size: 0x8, addend: 0x0, symName: '__ZN69_$LT$std..sys..pal..unix..stdio..Stderr$u20$as$u20$std..io..Write$GT$14write_vectored17hb0b15208cc5033f7E', symObjAddr: 0x41718, symBinAddr: 0xA4060, symSize: 0x4C }
  - { offset: 0x13DA8C, size: 0x8, addend: 0x0, symName: '__ZN69_$LT$std..sys..pal..unix..stdio..Stderr$u20$as$u20$std..io..Write$GT$17is_write_vectored17hdb78718b5fea34f8E', symObjAddr: 0x41764, symBinAddr: 0xA40AC, symSize: 0x14 }
  - { offset: 0x13DAA6, size: 0x8, addend: 0x0, symName: '__ZN69_$LT$std..sys..pal..unix..stdio..Stderr$u20$as$u20$std..io..Write$GT$5flush17h4deaf4a1077184a8E', symObjAddr: 0x41778, symBinAddr: 0xA40C0, symSize: 0x14 }
  - { offset: 0x13DC89, size: 0x8, addend: 0x0, symName: __ZN3std3sys3pal4unix3net6Socket7new_raw17hdbe48394aeacd5c7E, symObjAddr: 0x3E000, symBinAddr: 0xA0948, symSize: 0xF8 }
  - { offset: 0x13DED5, size: 0x8, addend: 0x0, symName: __ZN3std3sys3pal4unix3net6Socket8new_pair17h58001257916317c3E, symObjAddr: 0x3E0F8, symBinAddr: 0xA0A40, symSize: 0x150 }
  - { offset: 0x13E161, size: 0x8, addend: 0x0, symName: __ZN3std3sys3pal4unix3net6Socket6accept17h8d3f0782bdaf1185E, symObjAddr: 0x3E248, symBinAddr: 0xA0B90, symSize: 0x108 }
  - { offset: 0x13E308, size: 0x8, addend: 0x0, symName: __ZN3std3sys3pal4unix3net6Socket20recv_from_with_flags17h84595e43924e707eE, symObjAddr: 0x3E350, symBinAddr: 0xA0C98, symSize: 0x154 }
  - { offset: 0x13E49F, size: 0x8, addend: 0x0, symName: __ZN3std3sys3pal4unix3net6Socket10take_error17hdd3a03d9ed4ca282E, symObjAddr: 0x3E4A4, symBinAddr: 0xA0DEC, symSize: 0x70 }
  - { offset: 0x13E603, size: 0x8, addend: 0x0, symName: '__ZN77_$LT$std..sys..pal..unix..net..Socket$u20$as$u20$std..os..fd..owned..AsFd$GT$5as_fd17hd117b2ce9996b05bE', symObjAddr: 0x3E514, symBinAddr: 0xA0E5C, symSize: 0x30 }
  - { offset: 0x13E63E, size: 0x8, addend: 0x0, symName: '__ZN77_$LT$std..sys..pal..unix..net..Socket$u20$as$u20$std..os..fd..owned..AsFd$GT$5as_fd17hd117b2ce9996b05bE', symObjAddr: 0x3E514, symBinAddr: 0xA0E5C, symSize: 0x30 }
  - { offset: 0x13E6C8, size: 0x8, addend: 0x0, symName: '__ZN3std3sys3pal4unix4weak18DlsymWeak$LT$F$GT$10initialize17h0b7120b01846f790E', symObjAddr: 0x3A5B0, symBinAddr: 0xEC0D8, symSize: 0x54 }
  - { offset: 0x13E724, size: 0x8, addend: 0x0, symName: '__ZN3std3sys3pal4unix4weak18DlsymWeak$LT$F$GT$10initialize17h41e9276ca233e81eE', symObjAddr: 0x3A604, symBinAddr: 0xEC12C, symSize: 0x58 }
  - { offset: 0x13E7E5, size: 0x8, addend: 0x0, symName: __ZN3std3sys3pal4unix4pipe8AnonPipe5write17hc71d2dfab78483a0E, symObjAddr: 0x3F55C, symBinAddr: 0xA1EA4, symSize: 0x48 }
  - { offset: 0x13E8CC, size: 0x8, addend: 0x0, symName: __ZN3std3sys3pal4unix4pipe9anon_pipe17hc1f633c0b1e3df6fE, symObjAddr: 0x3F414, symBinAddr: 0xA1D5C, symSize: 0x148 }
  - { offset: 0x13EB8C, size: 0x8, addend: 0x0, symName: __ZN3std3sys3pal4unix4pipe5read217h89ceb9056f3573d4E, symObjAddr: 0x3F5A4, symBinAddr: 0xA1EEC, symSize: 0x2A8 }
  - { offset: 0x13F1F2, size: 0x8, addend: 0x0, symName: __ZN3std3sys3pal4unix4rand19hashmap_random_keys17h5813b7dfeba48d18E, symObjAddr: 0x4147C, symBinAddr: 0xA3DC4, symSize: 0xA8 }
  - { offset: 0x13F30E, size: 0x8, addend: 0x0, symName: __ZN3std3sys3pal4unix17decode_error_kind17h6a0b4dd3ca467a7fE, symObjAddr: 0x41D78, symBinAddr: 0xA46C0, symSize: 0x30 }
  - { offset: 0x13F328, size: 0x8, addend: 0x0, symName: __ZN3std3sys3pal4unix14abort_internal17h7aaddd5d51af3275E, symObjAddr: 0x41DA8, symBinAddr: 0xA46F0, symSize: 0xC }
  - { offset: 0x13F466, size: 0x8, addend: 0x0, symName: __ZN3std3sys3pal6common14small_c_string24run_with_cstr_allocating17h109f0a02acdbff3bE, symObjAddr: 0x355A0, symBinAddr: 0xEB844, symSize: 0xC0 }
  - { offset: 0x13F62C, size: 0x8, addend: 0x0, symName: __ZN3std3sys3pal6common14small_c_string24run_with_cstr_allocating17h31e4924eaff0930fE, symObjAddr: 0x35660, symBinAddr: 0xEB904, symSize: 0xD0 }
  - { offset: 0x13F807, size: 0x8, addend: 0x0, symName: __ZN3std3sys3pal6common14small_c_string24run_with_cstr_allocating17h5da233a5a606c8e8E, symObjAddr: 0x35730, symBinAddr: 0xEB9D4, symSize: 0xA0 }
  - { offset: 0x13F978, size: 0x8, addend: 0x0, symName: __ZN3std3sys3pal6common14small_c_string24run_with_cstr_allocating17h6c46ef3e7a98efa1E, symObjAddr: 0x357D0, symBinAddr: 0xEBA74, symSize: 0xBC }
  - { offset: 0x13FB5B, size: 0x8, addend: 0x0, symName: __ZN3std3sys3pal6common14small_c_string24run_with_cstr_allocating17h6de3c7ab134ab44bE, symObjAddr: 0x3588C, symBinAddr: 0xEBB30, symSize: 0xC4 }
  - { offset: 0x13FD21, size: 0x8, addend: 0x0, symName: __ZN3std3sys3pal6common14small_c_string24run_with_cstr_allocating17h72bca5f19c7f7720E, symObjAddr: 0x35950, symBinAddr: 0xEBBF4, symSize: 0xE4 }
  - { offset: 0x13FEE7, size: 0x8, addend: 0x0, symName: __ZN3std3sys3pal6common14small_c_string24run_with_cstr_allocating17hb0c7dc2e0c9e1e48E, symObjAddr: 0x35A34, symBinAddr: 0xEBCD8, symSize: 0xD0 }
  - { offset: 0x1400AD, size: 0x8, addend: 0x0, symName: __ZN3std3sys3pal6common14small_c_string24run_with_cstr_allocating17hbe49b9e70efed577E, symObjAddr: 0x35B04, symBinAddr: 0xEBDA8, symSize: 0xCC }
  - { offset: 0x140273, size: 0x8, addend: 0x0, symName: __ZN3std3sys3pal6common14small_c_string24run_with_cstr_allocating17hf5a03ffa85deb856E, symObjAddr: 0x35BD0, symBinAddr: 0xEBE74, symSize: 0x9C }
  - { offset: 0x14061A, size: 0x8, addend: 0x0, symName: __ZN3std3sys3pal6common5alloc16realloc_fallback17hc9114467ac12c905E, symObjAddr: 0x354E4, symBinAddr: 0x9876C, symSize: 0xBC }
  - { offset: 0x140756, size: 0x8, addend: 0x0, symName: '__ZN3std3sys11personality3gcc14find_eh_action28_$u7b$$u7b$closure$u7d$$u7d$17hdfc671cf18383ed4E', symObjAddr: 0x42F60, symBinAddr: 0xA58A8, symSize: 0x18 }
  - { offset: 0x14076A, size: 0x8, addend: 0x0, symName: '__ZN3std3sys11personality3gcc14find_eh_action28_$u7b$$u7b$closure$u7d$$u7d$17h4eb0abc31899766eE', symObjAddr: 0x42F78, symBinAddr: 0xA58C0, symSize: 0x18 }
  - { offset: 0x14079A, size: 0x8, addend: 0x0, symName: _rust_eh_personality, symObjAddr: 0x42F90, symBinAddr: 0xA58D8, symSize: 0x368 }
  - { offset: 0x140AE0, size: 0x8, addend: 0x0, symName: __ZN3std3sys11personality5dwarf2eh19read_encoded_offset17h952b6a5b7c3e050dE, symObjAddr: 0x35C6C, symBinAddr: 0x98828, symSize: 0x150 }
  - { offset: 0x140C37, size: 0x8, addend: 0x0, symName: '__ZN3std3sys9backtrace10_print_fmt28_$u7b$$u7b$closure$u7d$$u7d$17h9b0a21cb422db53aE', symObjAddr: 0x35FE8, symBinAddr: 0x98BA4, symSize: 0x30 }
  - { offset: 0x140C61, size: 0x8, addend: 0x0, symName: '__ZN3std3sys9backtrace10_print_fmt28_$u7b$$u7b$closure$u7d$$u7d$17h3db0ae3e80ec389aE', symObjAddr: 0x36018, symBinAddr: 0x98BD4, symSize: 0x130 }
  - { offset: 0x140D82, size: 0x8, addend: 0x0, symName: '__ZN3std3sys9backtrace10_print_fmt28_$u7b$$u7b$closure$u7d$$u7d$28_$u7b$$u7b$closure$u7d$$u7d$17hb4084842fcf3ddd7E', symObjAddr: 0x36148, symBinAddr: 0x98D04, symSize: 0x264 }
  - { offset: 0x140FD8, size: 0x8, addend: 0x0, symName: __ZN3std3sys9backtrace4lock17h5c478e284d6bae16E, symObjAddr: 0x35DBC, symBinAddr: 0x98978, symSize: 0x70 }
  - { offset: 0x141138, size: 0x8, addend: 0x0, symName: '__ZN98_$LT$std..sys..backtrace..BacktraceLock..print..DisplayBacktrace$u20$as$u20$core..fmt..Display$GT$3fmt17h6e07ac9cbc84bbf7E', symObjAddr: 0x35E2C, symBinAddr: 0x989E8, symSize: 0x1BC }
  - { offset: 0x1414F9, size: 0x8, addend: 0x0, symName: __ZN3std3sys9backtrace26__rust_end_short_backtrace17hd94c1ab8ebbb033fE, symObjAddr: 0x363AC, symBinAddr: 0x98F68, symSize: 0xC }
  - { offset: 0x141513, size: 0x8, addend: 0x0, symName: __ZN3std3sys9backtrace15output_filename17hb13961f297ebcaa8E, symObjAddr: 0x363B8, symBinAddr: 0x98F74, symSize: 0x104 }
  - { offset: 0x14177C, size: 0x8, addend: 0x0, symName: '__ZN102_$LT$std..sys..sync..mutex..pthread..AllocatedMutex$u20$as$u20$std..sys_common..lazy_box..LazyInit$GT$4init17h6fc901eb43fa093aE', symObjAddr: 0x43D00, symBinAddr: 0xA6648, symSize: 0x1C8 }
  - { offset: 0x1418F7, size: 0x8, addend: 0x0, symName: '__ZN102_$LT$std..sys..sync..mutex..pthread..AllocatedMutex$u20$as$u20$std..sys_common..lazy_box..LazyInit$GT$7destroy17hf7827af28ace9f6eE', symObjAddr: 0x43EC8, symBinAddr: 0xA6810, symSize: 0x4C }
  - { offset: 0x1419AA, size: 0x8, addend: 0x0, symName: '__ZN102_$LT$std..sys..sync..mutex..pthread..AllocatedMutex$u20$as$u20$std..sys_common..lazy_box..LazyInit$GT$11cancel_init17hd3bb5c0406ec8bbcE', symObjAddr: 0x43F14, symBinAddr: 0xA685C, symSize: 0x2C }
  - { offset: 0x141A5A, size: 0x8, addend: 0x0, symName: '__ZN90_$LT$std..sys..sync..mutex..pthread..PthreadMutexAttr$u20$as$u20$core..ops..drop..Drop$GT$4drop17hc807ef48d0daefecE', symObjAddr: 0x43FB0, symBinAddr: 0xA6888, symSize: 0x14 }
  - { offset: 0x141A7B, size: 0x8, addend: 0x0, symName: __ZN3std3sys4sync5mutex7pthread5Mutex4lock4fail17hc380cd060199fa53E, symObjAddr: 0x43F40, symBinAddr: 0xEC184, symSize: 0x70 }
  - { offset: 0x141AEA, size: 0x8, addend: 0x0, symName: '__ZN83_$LT$std..sys..sync..rwlock..queue..PanicGuard$u20$as$u20$core..ops..drop..Drop$GT$4drop17h195f4b1f56781748E', symObjAddr: 0x4449C, symBinAddr: 0xA69B0, symSize: 0x44 }
  - { offset: 0x141BDF, size: 0x8, addend: 0x0, symName: __ZN3std3sys4sync6rwlock5queue6RwLock14lock_contended17hceb9fe41d65ba03aE, symObjAddr: 0x444E0, symBinAddr: 0xEC5B8, symSize: 0x2B4 }
  - { offset: 0x142115, size: 0x8, addend: 0x0, symName: __ZN3std3sys4sync6rwlock5queue6RwLock21read_unlock_contended17h0fa1b84ea4c16ad6E, symObjAddr: 0x44794, symBinAddr: 0xEC86C, symSize: 0x94 }
  - { offset: 0x142322, size: 0x8, addend: 0x0, symName: __ZN3std3sys4sync6rwlock5queue6RwLock16unlock_contended17hbfe4e5c4880b647dE, symObjAddr: 0x44828, symBinAddr: 0xEC900, symSize: 0x58 }
  - { offset: 0x1423AD, size: 0x8, addend: 0x0, symName: __ZN3std3sys4sync6rwlock5queue6RwLock12unlock_queue17hcd6e098f677ab003E, symObjAddr: 0x44880, symBinAddr: 0xA69F4, symSize: 0x1E0 }
  - { offset: 0x142BBC, size: 0x8, addend: 0x0, symName: __ZN3std3sys4sync6rwlock5queue10write_lock17hf5b78bd9d6ef9ddaE, symObjAddr: 0x4445C, symBinAddr: 0xA6970, symSize: 0x18 }
  - { offset: 0x142C14, size: 0x8, addend: 0x0, symName: __ZN3std3sys4sync6rwlock5queue9read_lock17h7ba337e055fa0c09E, symObjAddr: 0x44474, symBinAddr: 0xA6988, symSize: 0x28 }
  - { offset: 0x142C70, size: 0x8, addend: 0x0, symName: '__ZN88_$LT$std..sys..sync..thread_parking..darwin..Parker$u20$as$u20$core..ops..drop..Drop$GT$4drop17h618bf8e84b438190E', symObjAddr: 0x44A98, symBinAddr: 0xA6C0C, symSize: 0x14 }
  - { offset: 0x142CBF, size: 0x8, addend: 0x0, symName: __ZN3std3sys4sync14thread_parking6darwin6Parker6unpark17hcd187bb8eb042fcfE, symObjAddr: 0x44A60, symBinAddr: 0xA6BD4, symSize: 0x38 }
  - { offset: 0x142D86, size: 0x8, addend: 0x0, symName: __ZN3std3sys4sync4once5queue4Once4call17h118eb67701f86caaE, symObjAddr: 0x43FC4, symBinAddr: 0xEC1F4, symSize: 0x3C4 }
  - { offset: 0x143676, size: 0x8, addend: 0x0, symName: '__ZN82_$LT$std..sys..sync..once..queue..WaiterQueue$u20$as$u20$core..ops..drop..Drop$GT$4drop17he90fef8a4f3aa837E', symObjAddr: 0x44388, symBinAddr: 0xA689C, symSize: 0xD4 }
  - { offset: 0x143928, size: 0x8, addend: 0x0, symName: __ZN3std3sys4sync7condvar7pthread7Condvar12wait_timeout17hefcb4a77c267d5dfE, symObjAddr: 0x43B20, symBinAddr: 0xA6468, symSize: 0x1E0 }
  - { offset: 0x143D20, size: 0x8, addend: 0x0, symName: '__ZN106_$LT$std..sys..sync..condvar..pthread..AllocatedCondvar$u20$as$u20$std..sys_common..lazy_box..LazyInit$GT$4init17hc3bbf1999fce4e23E', symObjAddr: 0x43A94, symBinAddr: 0xA63DC, symSize: 0x8C }
  - { offset: 0x143E51, size: 0x8, addend: 0x0, symName: __ZN3std3sys12thread_local6native5eager7destroy17h0cab816e59d41f82E, symObjAddr: 0x44AAC, symBinAddr: 0xA6C20, symSize: 0x40 }
  - { offset: 0x144008, size: 0x8, addend: 0x0, symName: '__ZN3std3sys12thread_local6native4lazy20Storage$LT$T$C$D$GT$10initialize17hedb77d8ab1ef5f01E', symObjAddr: 0x44AEC, symBinAddr: 0xEC958, symSize: 0xC4 }
  - { offset: 0x144217, size: 0x8, addend: 0x0, symName: __ZN3std3sys12thread_local6native4lazy7destroy17hc02757defbf7c879E, symObjAddr: 0x44BB0, symBinAddr: 0xA6C60, symSize: 0x58 }
  - { offset: 0x1443B3, size: 0x8, addend: 0x0, symName: __ZN3std3sys12thread_local5guard5apple6enable9run_dtors17h1e321107b4eb95e5E, symObjAddr: 0x44D44, symBinAddr: 0xA6DF4, symSize: 0xE0 }
  - { offset: 0x1446A5, size: 0x8, addend: 0x0, symName: __ZN3std3sys12thread_local11destructors4list8register17h6c545da0a4ab0b3cE, symObjAddr: 0x44C08, symBinAddr: 0xA6CB8, symSize: 0x13C }
  - { offset: 0x144A07, size: 0x8, addend: 0x0, symName: __ZN3std3sys4path4unix8absolute17h4cef2cddcd775aa4E, symObjAddr: 0x43728, symBinAddr: 0xA6070, symSize: 0x36C }
  - { offset: 0x145584, size: 0x8, addend: 0x0, symName: __ZN3std3ffi6os_str8OsString4push17ha385c9bc086f882fE, symObjAddr: 0x21530, symBinAddr: 0x84D2C, symSize: 0x74 }
  - { offset: 0x1456A3, size: 0x8, addend: 0x0, symName: __ZN3std3ffi6os_str8OsString17into_boxed_os_str17h03fe37735b3cbf05E, symObjAddr: 0x215A4, symBinAddr: 0x84DA0, symSize: 0x98 }
  - { offset: 0x1458E2, size: 0x8, addend: 0x0, symName: __ZN3std3ffi6os_str5OsStr14into_os_string17h0b40189bdfe8fed3E, symObjAddr: 0x216B4, symBinAddr: 0x84EB0, symSize: 0x18 }
  - { offset: 0x1458FD, size: 0x8, addend: 0x0, symName: __ZN3std3ffi6os_str5OsStr18to_ascii_lowercase17h84113d61dde2f032E, symObjAddr: 0x216CC, symBinAddr: 0x84EC8, symSize: 0x170 }
  - { offset: 0x145A8D, size: 0x8, addend: 0x0, symName: __ZN3std3ffi6os_str5OsStr18to_ascii_uppercase17hf9e66c9c8bcaa19fE, symObjAddr: 0x2183C, symBinAddr: 0x85038, symSize: 0x170 }
  - { offset: 0x145CB0, size: 0x8, addend: 0x0, symName: '__ZN63_$LT$std..ffi..os_str..OsString$u20$as$u20$core..fmt..Write$GT$9write_str17hab8802e51eae66bcE', symObjAddr: 0x2163C, symBinAddr: 0x84E38, symSize: 0x78 }
  - { offset: 0x145E0F, size: 0x8, addend: 0x0, symName: '__ZN3std3ffi6os_str95_$LT$impl$u20$core..convert..TryFrom$LT$$RF$std..ffi..os_str..OsStr$GT$$u20$for$u20$$RF$str$GT$8try_from17h17a2a174ef393fbbE', symObjAddr: 0x219AC, symBinAddr: 0x851A8, symSize: 0x10 }
  - { offset: 0x145E48, size: 0x8, addend: 0x0, symName: '__ZN62_$LT$std..ffi..os_str..Display$u20$as$u20$core..fmt..Debug$GT$3fmt17hf5fe62b019405262E', symObjAddr: 0x219BC, symBinAddr: 0x851B8, symSize: 0x28 }
  - { offset: 0x145ECC, size: 0x8, addend: 0x0, symName: '__ZN64_$LT$std..ffi..os_str..Display$u20$as$u20$core..fmt..Display$GT$3fmt17h150cc8b08ce222c7E', symObjAddr: 0x219E4, symBinAddr: 0x851E0, symSize: 0x1C }
  - { offset: 0x1461B8, size: 0x8, addend: 0x0, symName: __ZN3std4path4Path11is_absolute17hbf07c11ea9805dd3E, symObjAddr: 0x31908, symBinAddr: 0x94E60, symSize: 0x2C }
  - { offset: 0x146227, size: 0x8, addend: 0x0, symName: __ZN3std4path4Path6parent17h32ea79c2012c2c82E, symObjAddr: 0x31934, symBinAddr: 0x94E8C, symSize: 0x8C }
  - { offset: 0x14623F, size: 0x8, addend: 0x0, symName: __ZN3std4path4Path6parent17h32ea79c2012c2c82E, symObjAddr: 0x31934, symBinAddr: 0x94E8C, symSize: 0x8C }
  - { offset: 0x146255, size: 0x8, addend: 0x0, symName: __ZN3std4path4Path6parent17h32ea79c2012c2c82E, symObjAddr: 0x31934, symBinAddr: 0x94E8C, symSize: 0x8C }
  - { offset: 0x1462AD, size: 0x8, addend: 0x0, symName: __ZN3std4path4Path9file_name17h2ac3b747ce22ce7bE, symObjAddr: 0x319C0, symBinAddr: 0x94F18, symSize: 0x64 }
  - { offset: 0x1462C5, size: 0x8, addend: 0x0, symName: __ZN3std4path4Path9file_name17h2ac3b747ce22ce7bE, symObjAddr: 0x319C0, symBinAddr: 0x94F18, symSize: 0x64 }
  - { offset: 0x1462DB, size: 0x8, addend: 0x0, symName: __ZN3std4path4Path9file_name17h2ac3b747ce22ce7bE, symObjAddr: 0x319C0, symBinAddr: 0x94F18, symSize: 0x64 }
  - { offset: 0x14631C, size: 0x8, addend: 0x0, symName: __ZN3std4path4Path13_strip_prefix17h140a5afa85563f4fE, symObjAddr: 0x31A24, symBinAddr: 0x94F7C, symSize: 0x21C }
  - { offset: 0x14644E, size: 0x8, addend: 0x0, symName: __ZN3std4path4Path12_starts_with17h0da776696264c59dE, symObjAddr: 0x31C40, symBinAddr: 0x95198, symSize: 0x198 }
  - { offset: 0x146569, size: 0x8, addend: 0x0, symName: __ZN3std4path4Path10_ends_with17h057670875dd68cd1E, symObjAddr: 0x31DD8, symBinAddr: 0x95330, symSize: 0x198 }
  - { offset: 0x1466EB, size: 0x8, addend: 0x0, symName: __ZN3std4path4Path9file_stem17ha4e0d4436a6b55b4E, symObjAddr: 0x31F70, symBinAddr: 0x954C8, symSize: 0xF4 }
  - { offset: 0x146703, size: 0x8, addend: 0x0, symName: __ZN3std4path4Path9file_stem17ha4e0d4436a6b55b4E, symObjAddr: 0x31F70, symBinAddr: 0x954C8, symSize: 0xF4 }
  - { offset: 0x146719, size: 0x8, addend: 0x0, symName: __ZN3std4path4Path9file_stem17ha4e0d4436a6b55b4E, symObjAddr: 0x31F70, symBinAddr: 0x954C8, symSize: 0xF4 }
  - { offset: 0x14672F, size: 0x8, addend: 0x0, symName: __ZN3std4path4Path9file_stem17ha4e0d4436a6b55b4E, symObjAddr: 0x31F70, symBinAddr: 0x954C8, symSize: 0xF4 }
  - { offset: 0x1469E0, size: 0x8, addend: 0x0, symName: __ZN3std4path4Path11file_prefix17h466f5c259e367bcdE, symObjAddr: 0x32064, symBinAddr: 0x955BC, symSize: 0x12C }
  - { offset: 0x146BDA, size: 0x8, addend: 0x0, symName: __ZN3std4path4Path9extension17hf43205f5ff415ea3E, symObjAddr: 0x32190, symBinAddr: 0x956E8, symSize: 0xC0 }
  - { offset: 0x146BF2, size: 0x8, addend: 0x0, symName: __ZN3std4path4Path9extension17hf43205f5ff415ea3E, symObjAddr: 0x32190, symBinAddr: 0x956E8, symSize: 0xC0 }
  - { offset: 0x146C08, size: 0x8, addend: 0x0, symName: __ZN3std4path4Path9extension17hf43205f5ff415ea3E, symObjAddr: 0x32190, symBinAddr: 0x956E8, symSize: 0xC0 }
  - { offset: 0x146C1E, size: 0x8, addend: 0x0, symName: __ZN3std4path4Path9extension17hf43205f5ff415ea3E, symObjAddr: 0x32190, symBinAddr: 0x956E8, symSize: 0xC0 }
  - { offset: 0x146E89, size: 0x8, addend: 0x0, symName: __ZN3std4path4Path5_join17h71c8a6f45955df03E, symObjAddr: 0x32250, symBinAddr: 0x957A8, symSize: 0x18C }
  - { offset: 0x1472C5, size: 0x8, addend: 0x0, symName: __ZN3std4path4Path15_with_file_name17ha41f55242c7f5fbfE, symObjAddr: 0x323DC, symBinAddr: 0x95934, symSize: 0xE8 }
  - { offset: 0x1474E6, size: 0x8, addend: 0x0, symName: __ZN3std4path4Path15_with_extension17h756995a38252220aE, symObjAddr: 0x324C4, symBinAddr: 0x95A1C, symSize: 0x1F8 }
  - { offset: 0x1479D0, size: 0x8, addend: 0x0, symName: __ZN3std4path4Path10components17h4d7611f11a6c5a9cE, symObjAddr: 0x326BC, symBinAddr: 0x95C14, symSize: 0x40 }
  - { offset: 0x147A12, size: 0x8, addend: 0x0, symName: __ZN3std4path4Path7is_file17h7e43c14a1184d589E, symObjAddr: 0x326FC, symBinAddr: 0x95C54, symSize: 0x64 }
  - { offset: 0x147AF3, size: 0x8, addend: 0x0, symName: __ZN3std4path4Path6is_dir17hae3b85b602436876E, symObjAddr: 0x32760, symBinAddr: 0x95CB8, symSize: 0x64 }
  - { offset: 0x147BCD, size: 0x8, addend: 0x0, symName: __ZN3std4path4Path10is_symlink17h094ccd9899a0f3a2E, symObjAddr: 0x327C4, symBinAddr: 0x95D1C, symSize: 0x150 }
  - { offset: 0x147FE4, size: 0x8, addend: 0x0, symName: '__ZN58_$LT$std..path..Components$u20$as$u20$core..fmt..Debug$GT$3fmt17hcf8fa71458ca671bE', symObjAddr: 0x2FC8C, symBinAddr: 0x931E4, symSize: 0x64 }
  - { offset: 0x14800B, size: 0x8, addend: 0x0, symName: '__ZN112_$LT$$LT$std..path..Components$u20$as$u20$core..fmt..Debug$GT$..fmt..DebugHelper$u20$as$u20$core..fmt..Debug$GT$3fmt17h5c6b833f49ac8a7eE', symObjAddr: 0x2FCF0, symBinAddr: 0x93248, symSize: 0xD4 }
  - { offset: 0x1480E5, size: 0x8, addend: 0x0, symName: __ZN3std4path10Components15len_before_body17h416d1adc87dcd0d6E, symObjAddr: 0x2FDC4, symBinAddr: 0x9331C, symSize: 0x190 }
  - { offset: 0x1480FD, size: 0x8, addend: 0x0, symName: __ZN3std4path10Components15len_before_body17h416d1adc87dcd0d6E, symObjAddr: 0x2FDC4, symBinAddr: 0x9331C, symSize: 0x190 }
  - { offset: 0x148113, size: 0x8, addend: 0x0, symName: __ZN3std4path10Components15len_before_body17h416d1adc87dcd0d6E, symObjAddr: 0x2FDC4, symBinAddr: 0x9331C, symSize: 0x190 }
  - { offset: 0x148311, size: 0x8, addend: 0x0, symName: __ZN3std4path10Components7as_path17h1128f36b79632e58E, symObjAddr: 0x2FF54, symBinAddr: 0x934AC, symSize: 0x538 }
  - { offset: 0x148844, size: 0x8, addend: 0x0, symName: __ZN3std4path10Components25parse_next_component_back17h20ab235aa38f9988E, symObjAddr: 0x3048C, symBinAddr: 0x939E4, symSize: 0x120 }
  - { offset: 0x148A63, size: 0x8, addend: 0x0, symName: '__ZN52_$LT$std..path..Iter$u20$as$u20$core..fmt..Debug$GT$3fmt17hee5c04587dd0efe4E', symObjAddr: 0x305AC, symBinAddr: 0x93B04, symSize: 0x64 }
  - { offset: 0x148AA1, size: 0x8, addend: 0x0, symName: '__ZN106_$LT$$LT$std..path..Iter$u20$as$u20$core..fmt..Debug$GT$..fmt..DebugHelper$u20$as$u20$core..fmt..Debug$GT$3fmt17h2b0df7aeedae664eE', symObjAddr: 0x30610, symBinAddr: 0x93B68, symSize: 0x13C }
  - { offset: 0x148BA4, size: 0x8, addend: 0x0, symName: '__ZN80_$LT$std..path..Components$u20$as$u20$core..iter..traits..iterator..Iterator$GT$4next17he170f53951ab4284E', symObjAddr: 0x3074C, symBinAddr: 0x93CA4, symSize: 0x364 }
  - { offset: 0x148F1A, size: 0x8, addend: 0x0, symName: '__ZN95_$LT$std..path..Components$u20$as$u20$core..iter..traits..double_ended..DoubleEndedIterator$GT$9next_back17h7b9f4406451174fbE', symObjAddr: 0x30AB0, symBinAddr: 0x94008, symSize: 0x31C }
  - { offset: 0x1490B2, size: 0x8, addend: 0x0, symName: __ZN3std4path18compare_components17hb0e12afd4f02587dE, symObjAddr: 0x30DCC, symBinAddr: 0x94324, symSize: 0x308 }
  - { offset: 0x1494C2, size: 0x8, addend: 0x0, symName: __ZN3std4path7PathBuf5_push17hf307f6ea6be5a510E, symObjAddr: 0x310D4, symBinAddr: 0x9462C, symSize: 0xDC }
  - { offset: 0x149750, size: 0x8, addend: 0x0, symName: __ZN3std4path7PathBuf3pop17h3db20dceccb57e07E, symObjAddr: 0x311B0, symBinAddr: 0x94708, symSize: 0xB0 }
  - { offset: 0x149925, size: 0x8, addend: 0x0, symName: __ZN3std4path7PathBuf14_set_file_name17h10e3b87d27874a4bE, symObjAddr: 0x31260, symBinAddr: 0x947B8, symSize: 0x1C0 }
  - { offset: 0x149DC4, size: 0x8, addend: 0x0, symName: __ZN3std4path7PathBuf14_set_extension17h5c9aba4ca70380fdE, symObjAddr: 0x31420, symBinAddr: 0x94978, symSize: 0x29C }
